
iso/boot/kernel.bin:     file format elf32-i386

Contents of the .eh_frame section (loaded from iso/boot/kernel.bin):


00000000 00000014 00000000 CIE
  Version:               1
  Augmentation:          "zR"
  Code alignment factor: 1
  Data alignment factor: -4
  Return address column: 8
  Augmentation data:     1b
  DW_CFA_def_cfa: r4 (esp) ofs 4
  DW_CFA_offset: r8 (eip) at cfa-4
  DW_CFA_nop
  DW_CFA_nop

00000018 0000001c 0000001c FDE cie=00000000 pc=0010404f..00104088
  DW_CFA_advance_loc: 5 to 00104054
  DW_CFA_def_cfa_offset: 8
  DW_CFA_offset: r5 (ebp) at cfa-8
  DW_CFA_advance_loc: 2 to 00104056
  DW_CFA_def_cfa_register: r5 (ebp)
  DW_CFA_advance_loc: 49 to 00104087
  DW_CFA_restore: r5 (ebp)
  DW_CFA_def_cfa: r4 (esp) ofs 4
  DW_CFA_nop
  DW_CFA_nop

00000038 0000001c 0000003c FDE cie=00000000 pc=00104088..001040b9
  DW_CFA_advance_loc: 5 to 0010408d
  DW_CFA_def_cfa_offset: 8
  DW_CFA_offset: r5 (ebp) at cfa-8
  DW_CFA_advance_loc: 2 to 0010408f
  DW_CFA_def_cfa_register: r5 (ebp)
  DW_CFA_advance_loc: 41 to 001040b8
  DW_CFA_restore: r5 (ebp)
  DW_CFA_def_cfa: r4 (esp) ofs 4
  DW_CFA_nop
  DW_CFA_nop

00000058 0000001c 0000005c FDE cie=00000000 pc=001040b9..00104137
  DW_CFA_advance_loc: 5 to 001040be
  DW_CFA_def_cfa_offset: 8
  DW_CFA_offset: r5 (ebp) at cfa-8
  DW_CFA_advance_loc: 2 to 001040c0
  DW_CFA_def_cfa_register: r5 (ebp)
  DW_CFA_advance_loc1: 118 to 00104136
  DW_CFA_restore: r5 (ebp)
  DW_CFA_def_cfa: r4 (esp) ofs 4
  DW_CFA_nop

00000078 0000001c 0000007c FDE cie=00000000 pc=00104137..00104162
  DW_CFA_advance_loc: 5 to 0010413c
  DW_CFA_def_cfa_offset: 8
  DW_CFA_offset: r5 (ebp) at cfa-8
  DW_CFA_advance_loc: 2 to 0010413e
  DW_CFA_def_cfa_register: r5 (ebp)
  DW_CFA_advance_loc: 35 to 00104161
  DW_CFA_restore: r5 (ebp)
  DW_CFA_def_cfa: r4 (esp) ofs 4
  DW_CFA_nop
  DW_CFA_nop

00000098 0000001c 0000009c FDE cie=00000000 pc=00104162..00104188
  DW_CFA_advance_loc: 5 to 00104167
  DW_CFA_def_cfa_offset: 8
  DW_CFA_offset: r5 (ebp) at cfa-8
  DW_CFA_advance_loc: 2 to 00104169
  DW_CFA_def_cfa_register: r5 (ebp)
  DW_CFA_advance_loc: 30 to 00104187
  DW_CFA_restore: r5 (ebp)
  DW_CFA_def_cfa: r4 (esp) ofs 4
  DW_CFA_nop
  DW_CFA_nop

000000b8 0000001c 000000bc FDE cie=00000000 pc=00104188..0010419a
  DW_CFA_advance_loc: 5 to 0010418d
  DW_CFA_def_cfa_offset: 8
  DW_CFA_offset: r5 (ebp) at cfa-8
  DW_CFA_advance_loc: 2 to 0010418f
  DW_CFA_def_cfa_register: r5 (ebp)
  DW_CFA_advance_loc: 10 to 00104199
  DW_CFA_restore: r5 (ebp)
  DW_CFA_def_cfa: r4 (esp) ofs 4
  DW_CFA_nop
  DW_CFA_nop

000000d8 0000001c 000000dc FDE cie=00000000 pc=0010419a..001041b6
  DW_CFA_advance_loc: 5 to 0010419f
  DW_CFA_def_cfa_offset: 8
  DW_CFA_offset: r5 (ebp) at cfa-8
  DW_CFA_advance_loc: 2 to 001041a1
  DW_CFA_def_cfa_register: r5 (ebp)
  DW_CFA_advance_loc: 20 to 001041b5
  DW_CFA_restore: r5 (ebp)
  DW_CFA_def_cfa: r4 (esp) ofs 4
  DW_CFA_nop
  DW_CFA_nop

000000f8 0000001c 000000fc FDE cie=00000000 pc=001041b6..00104204
  DW_CFA_advance_loc: 5 to 001041bb
  DW_CFA_def_cfa_offset: 8
  DW_CFA_offset: r5 (ebp) at cfa-8
  DW_CFA_advance_loc: 2 to 001041bd
  DW_CFA_def_cfa_register: r5 (ebp)
  DW_CFA_advance_loc1: 70 to 00104203
  DW_CFA_restore: r5 (ebp)
  DW_CFA_def_cfa: r4 (esp) ofs 4
  DW_CFA_nop

00000118 00000020 0000011c FDE cie=00000000 pc=00104204..0010427b
  DW_CFA_advance_loc: 5 to 00104209
  DW_CFA_def_cfa_offset: 8
  DW_CFA_offset: r5 (ebp) at cfa-8
  DW_CFA_advance_loc: 2 to 0010420b
  DW_CFA_def_cfa_register: r5 (ebp)
  DW_CFA_advance_loc: 4 to 0010420f
  DW_CFA_offset: r3 (ebx) at cfa-12
  DW_CFA_advance_loc1: 107 to 0010427a
  DW_CFA_restore: r5 (ebp)
  DW_CFA_restore: r3 (ebx)
  DW_CFA_def_cfa: r4 (esp) ofs 4
  DW_CFA_nop

0000013c 0000001c 00000140 FDE cie=00000000 pc=0010427b..00104305
  DW_CFA_advance_loc: 5 to 00104280
  DW_CFA_def_cfa_offset: 8
  DW_CFA_offset: r5 (ebp) at cfa-8
  DW_CFA_advance_loc: 2 to 00104282
  DW_CFA_def_cfa_register: r5 (ebp)
  DW_CFA_advance_loc1: 130 to 00104304
  DW_CFA_restore: r5 (ebp)
  DW_CFA_def_cfa: r4 (esp) ofs 4
  DW_CFA_nop

0000015c 0000001c 00000160 FDE cie=00000000 pc=00104305..0010432f
  DW_CFA_advance_loc: 5 to 0010430a
  DW_CFA_def_cfa_offset: 8
  DW_CFA_offset: r5 (ebp) at cfa-8
  DW_CFA_advance_loc: 2 to 0010430c
  DW_CFA_def_cfa_register: r5 (ebp)
  DW_CFA_advance_loc: 34 to 0010432e
  DW_CFA_restore: r5 (ebp)
  DW_CFA_def_cfa: r4 (esp) ofs 4
  DW_CFA_nop
  DW_CFA_nop

0000017c 0000001c 00000180 FDE cie=00000000 pc=0010432f..0010434d
  DW_CFA_advance_loc: 5 to 00104334
  DW_CFA_def_cfa_offset: 8
  DW_CFA_offset: r5 (ebp) at cfa-8
  DW_CFA_advance_loc: 2 to 00104336
  DW_CFA_def_cfa_register: r5 (ebp)
  DW_CFA_advance_loc: 22 to 0010434c
  DW_CFA_restore: r5 (ebp)
  DW_CFA_def_cfa: r4 (esp) ofs 4
  DW_CFA_nop
  DW_CFA_nop

0000019c 0000001c 000001a0 FDE cie=00000000 pc=0010434d..001043aa
  DW_CFA_advance_loc: 5 to 00104352
  DW_CFA_def_cfa_offset: 8
  DW_CFA_offset: r5 (ebp) at cfa-8
  DW_CFA_advance_loc: 2 to 00104354
  DW_CFA_def_cfa_register: r5 (ebp)
  DW_CFA_advance_loc1: 85 to 001043a9
  DW_CFA_restore: r5 (ebp)
  DW_CFA_def_cfa: r4 (esp) ofs 4
  DW_CFA_nop

000001bc 00000020 000001c0 FDE cie=00000000 pc=001043aa..00104442
  DW_CFA_advance_loc: 5 to 001043af
  DW_CFA_def_cfa_offset: 8
  DW_CFA_offset: r5 (ebp) at cfa-8
  DW_CFA_advance_loc: 2 to 001043b1
  DW_CFA_def_cfa_register: r5 (ebp)
  DW_CFA_advance_loc: 4 to 001043b5
  DW_CFA_offset: r3 (ebx) at cfa-12
  DW_CFA_advance_loc1: 140 to 00104441
  DW_CFA_restore: r5 (ebp)
  DW_CFA_restore: r3 (ebx)
  DW_CFA_def_cfa: r4 (esp) ofs 4
  DW_CFA_nop

000001e0 00000024 000001e4 FDE cie=00000000 pc=00104442..0010451e
  DW_CFA_advance_loc: 5 to 00104447
  DW_CFA_def_cfa_offset: 8
  DW_CFA_offset: r5 (ebp) at cfa-8
  DW_CFA_advance_loc: 2 to 00104449
  DW_CFA_def_cfa_register: r5 (ebp)
  DW_CFA_advance_loc: 2 to 0010444b
  DW_CFA_offset: r6 (esi) at cfa-12
  DW_CFA_offset: r3 (ebx) at cfa-16
  DW_CFA_advance_loc1: 208 to 0010451b
  DW_CFA_restore: r3 (ebx)
  DW_CFA_advance_loc: 1 to 0010451c
  DW_CFA_restore: r6 (esi)
  DW_CFA_advance_loc: 1 to 0010451d
  DW_CFA_restore: r5 (ebp)
  DW_CFA_def_cfa: r4 (esp) ofs 4

00000208 00000020 0000020c FDE cie=00000000 pc=0010451e..001045a3
  DW_CFA_advance_loc: 5 to 00104523
  DW_CFA_def_cfa_offset: 8
  DW_CFA_offset: r5 (ebp) at cfa-8
  DW_CFA_advance_loc: 2 to 00104525
  DW_CFA_def_cfa_register: r5 (ebp)
  DW_CFA_advance_loc: 4 to 00104529
  DW_CFA_offset: r3 (ebx) at cfa-12
  DW_CFA_advance_loc1: 121 to 001045a2
  DW_CFA_restore: r5 (ebp)
  DW_CFA_restore: r3 (ebx)
  DW_CFA_def_cfa: r4 (esp) ofs 4
  DW_CFA_nop

0000022c 0000001c 00000230 FDE cie=00000000 pc=001045a3..001045f0
  DW_CFA_advance_loc: 5 to 001045a8
  DW_CFA_def_cfa_offset: 8
  DW_CFA_offset: r5 (ebp) at cfa-8
  DW_CFA_advance_loc: 2 to 001045aa
  DW_CFA_def_cfa_register: r5 (ebp)
  DW_CFA_advance_loc1: 69 to 001045ef
  DW_CFA_restore: r5 (ebp)
  DW_CFA_def_cfa: r4 (esp) ofs 4
  DW_CFA_nop

0000024c 0000001c 00000250 FDE cie=00000000 pc=001045f0..0010460e
  DW_CFA_advance_loc: 5 to 001045f5
  DW_CFA_def_cfa_offset: 8
  DW_CFA_offset: r5 (ebp) at cfa-8
  DW_CFA_advance_loc: 2 to 001045f7
  DW_CFA_def_cfa_register: r5 (ebp)
  DW_CFA_advance_loc: 22 to 0010460d
  DW_CFA_restore: r5 (ebp)
  DW_CFA_def_cfa: r4 (esp) ofs 4
  DW_CFA_nop
  DW_CFA_nop

0000026c 00000020 00000270 FDE cie=00000000 pc=0010460e..001046ea
  DW_CFA_advance_loc: 5 to 00104613
  DW_CFA_def_cfa_offset: 8
  DW_CFA_offset: r5 (ebp) at cfa-8
  DW_CFA_advance_loc: 2 to 00104615
  DW_CFA_def_cfa_register: r5 (ebp)
  DW_CFA_advance_loc: 4 to 00104619
  DW_CFA_offset: r3 (ebx) at cfa-12
  DW_CFA_advance_loc1: 207 to 001046e8
  DW_CFA_restore: r3 (ebx)
  DW_CFA_advance_loc: 1 to 001046e9
  DW_CFA_restore: r5 (ebp)
  DW_CFA_def_cfa: r4 (esp) ofs 4

00000290 00000020 00000294 FDE cie=00000000 pc=001046ea..001047cf
  DW_CFA_advance_loc: 5 to 001046ef
  DW_CFA_def_cfa_offset: 8
  DW_CFA_offset: r5 (ebp) at cfa-8
  DW_CFA_advance_loc: 2 to 001046f1
  DW_CFA_def_cfa_register: r5 (ebp)
  DW_CFA_advance_loc: 4 to 001046f5
  DW_CFA_offset: r3 (ebx) at cfa-12
  DW_CFA_advance_loc1: 216 to 001047cd
  DW_CFA_restore: r3 (ebx)
  DW_CFA_advance_loc: 1 to 001047ce
  DW_CFA_restore: r5 (ebp)
  DW_CFA_def_cfa: r4 (esp) ofs 4

000002b4 0000001c 000002b8 FDE cie=00000000 pc=001047cf..0010483f
  DW_CFA_advance_loc: 5 to 001047d4
  DW_CFA_def_cfa_offset: 8
  DW_CFA_offset: r5 (ebp) at cfa-8
  DW_CFA_advance_loc: 2 to 001047d6
  DW_CFA_def_cfa_register: r5 (ebp)
  DW_CFA_advance_loc1: 104 to 0010483e
  DW_CFA_restore: r5 (ebp)
  DW_CFA_def_cfa: r4 (esp) ofs 4
  DW_CFA_nop

000002d4 0000001c 000002d8 FDE cie=00000000 pc=0010483f..001048a5
  DW_CFA_advance_loc: 5 to 00104844
  DW_CFA_def_cfa_offset: 8
  DW_CFA_offset: r5 (ebp) at cfa-8
  DW_CFA_advance_loc: 2 to 00104846
  DW_CFA_def_cfa_register: r5 (ebp)
  DW_CFA_advance_loc1: 94 to 001048a4
  DW_CFA_restore: r5 (ebp)
  DW_CFA_def_cfa: r4 (esp) ofs 4
  DW_CFA_nop

000002f4 0000001c 000002f8 FDE cie=00000000 pc=001048a5..00104a4c
  DW_CFA_advance_loc: 5 to 001048aa
  DW_CFA_def_cfa_offset: 8
  DW_CFA_offset: r5 (ebp) at cfa-8
  DW_CFA_advance_loc: 2 to 001048ac
  DW_CFA_def_cfa_register: r5 (ebp)
  DW_CFA_advance_loc2: 415 to 00104a4b
  DW_CFA_restore: r5 (ebp)
  DW_CFA_def_cfa: r4 (esp) ofs 4

00000314 0000001c 00000318 FDE cie=00000000 pc=00104a4c..00104b63
  DW_CFA_advance_loc: 5 to 00104a51
  DW_CFA_def_cfa_offset: 8
  DW_CFA_offset: r5 (ebp) at cfa-8
  DW_CFA_advance_loc: 2 to 00104a53
  DW_CFA_def_cfa_register: r5 (ebp)
  DW_CFA_advance_loc2: 271 to 00104b62
  DW_CFA_restore: r5 (ebp)
  DW_CFA_def_cfa: r4 (esp) ofs 4

00000334 0000001c 00000338 FDE cie=00000000 pc=00104b63..00104c1d
  DW_CFA_advance_loc: 5 to 00104b68
  DW_CFA_def_cfa_offset: 8
  DW_CFA_offset: r5 (ebp) at cfa-8
  DW_CFA_advance_loc: 2 to 00104b6a
  DW_CFA_def_cfa_register: r5 (ebp)
  DW_CFA_advance_loc1: 178 to 00104c1c
  DW_CFA_restore: r5 (ebp)
  DW_CFA_def_cfa: r4 (esp) ofs 4
  DW_CFA_nop

00000354 0000001c 00000358 FDE cie=00000000 pc=00104c1d..00104c33
  DW_CFA_advance_loc: 5 to 00104c22
  DW_CFA_def_cfa_offset: 8
  DW_CFA_offset: r5 (ebp) at cfa-8
  DW_CFA_advance_loc: 2 to 00104c24
  DW_CFA_def_cfa_register: r5 (ebp)
  DW_CFA_advance_loc: 14 to 00104c32
  DW_CFA_restore: r5 (ebp)
  DW_CFA_def_cfa: r4 (esp) ofs 4
  DW_CFA_nop
  DW_CFA_nop

00000374 0000001c 00000378 FDE cie=00000000 pc=00104c33..00104c41
  DW_CFA_advance_loc: 5 to 00104c38
  DW_CFA_def_cfa_offset: 8
  DW_CFA_offset: r5 (ebp) at cfa-8
  DW_CFA_advance_loc: 2 to 00104c3a
  DW_CFA_def_cfa_register: r5 (ebp)
  DW_CFA_advance_loc: 6 to 00104c40
  DW_CFA_restore: r5 (ebp)
  DW_CFA_def_cfa: r4 (esp) ofs 4
  DW_CFA_nop
  DW_CFA_nop

00000394 0000001c 00000398 FDE cie=00000000 pc=00104c41..00104c57
  DW_CFA_advance_loc: 5 to 00104c46
  DW_CFA_def_cfa_offset: 8
  DW_CFA_offset: r5 (ebp) at cfa-8
  DW_CFA_advance_loc: 2 to 00104c48
  DW_CFA_def_cfa_register: r5 (ebp)
  DW_CFA_advance_loc: 14 to 00104c56
  DW_CFA_restore: r5 (ebp)
  DW_CFA_def_cfa: r4 (esp) ofs 4
  DW_CFA_nop
  DW_CFA_nop

000003b4 0000001c 000003b8 FDE cie=00000000 pc=00104c57..00104c6f
  DW_CFA_advance_loc: 5 to 00104c5c
  DW_CFA_def_cfa_offset: 8
  DW_CFA_offset: r5 (ebp) at cfa-8
  DW_CFA_advance_loc: 2 to 00104c5e
  DW_CFA_def_cfa_register: r5 (ebp)
  DW_CFA_advance_loc: 16 to 00104c6e
  DW_CFA_restore: r5 (ebp)
  DW_CFA_def_cfa: r4 (esp) ofs 4
  DW_CFA_nop
  DW_CFA_nop

000003d4 0000001c 000003d8 FDE cie=00000000 pc=00104c6f..00104ce5
  DW_CFA_advance_loc: 5 to 00104c74
  DW_CFA_def_cfa_offset: 8
  DW_CFA_offset: r5 (ebp) at cfa-8
  DW_CFA_advance_loc: 2 to 00104c76
  DW_CFA_def_cfa_register: r5 (ebp)
  DW_CFA_advance_loc1: 110 to 00104ce4
  DW_CFA_restore: r5 (ebp)
  DW_CFA_def_cfa: r4 (esp) ofs 4
  DW_CFA_nop

000003f4 0000001c 000003f8 FDE cie=00000000 pc=00104ce5..00104d49
  DW_CFA_advance_loc: 5 to 00104cea
  DW_CFA_def_cfa_offset: 8
  DW_CFA_offset: r5 (ebp) at cfa-8
  DW_CFA_advance_loc: 2 to 00104cec
  DW_CFA_def_cfa_register: r5 (ebp)
  DW_CFA_advance_loc1: 92 to 00104d48
  DW_CFA_restore: r5 (ebp)
  DW_CFA_def_cfa: r4 (esp) ofs 4
  DW_CFA_nop

00000414 00000020 00000418 FDE cie=00000000 pc=00104d49..00104e34
  DW_CFA_advance_loc: 5 to 00104d4e
  DW_CFA_def_cfa_offset: 8
  DW_CFA_offset: r5 (ebp) at cfa-8
  DW_CFA_advance_loc: 2 to 00104d50
  DW_CFA_def_cfa_register: r5 (ebp)
  DW_CFA_advance_loc: 1 to 00104d51
  DW_CFA_offset: r3 (ebx) at cfa-12
  DW_CFA_advance_loc1: 225 to 00104e32
  DW_CFA_restore: r3 (ebx)
  DW_CFA_advance_loc: 1 to 00104e33
  DW_CFA_restore: r5 (ebp)
  DW_CFA_def_cfa: r4 (esp) ofs 4

00000438 0000001c 0000043c FDE cie=00000000 pc=00104e34..00104e92
  DW_CFA_advance_loc: 5 to 00104e39
  DW_CFA_def_cfa_offset: 8
  DW_CFA_offset: r5 (ebp) at cfa-8
  DW_CFA_advance_loc: 2 to 00104e3b
  DW_CFA_def_cfa_register: r5 (ebp)
  DW_CFA_advance_loc1: 86 to 00104e91
  DW_CFA_restore: r5 (ebp)
  DW_CFA_def_cfa: r4 (esp) ofs 4
  DW_CFA_nop

00000458 0000001c 0000045c FDE cie=00000000 pc=00104e92..00104edf
  DW_CFA_advance_loc: 5 to 00104e97
  DW_CFA_def_cfa_offset: 8
  DW_CFA_offset: r5 (ebp) at cfa-8
  DW_CFA_advance_loc: 2 to 00104e99
  DW_CFA_def_cfa_register: r5 (ebp)
  DW_CFA_advance_loc1: 69 to 00104ede
  DW_CFA_restore: r5 (ebp)
  DW_CFA_def_cfa: r4 (esp) ofs 4
  DW_CFA_nop

00000478 00000020 0000047c FDE cie=00000000 pc=00104edf..00104f9c
  DW_CFA_advance_loc: 5 to 00104ee4
  DW_CFA_def_cfa_offset: 8
  DW_CFA_offset: r5 (ebp) at cfa-8
  DW_CFA_advance_loc: 2 to 00104ee6
  DW_CFA_def_cfa_register: r5 (ebp)
  DW_CFA_advance_loc: 1 to 00104ee7
  DW_CFA_offset: r3 (ebx) at cfa-12
  DW_CFA_advance_loc1: 179 to 00104f9a
  DW_CFA_restore: r3 (ebx)
  DW_CFA_advance_loc: 1 to 00104f9b
  DW_CFA_restore: r5 (ebp)
  DW_CFA_def_cfa: r4 (esp) ofs 4

0000049c 0000001c 000004a0 FDE cie=00000000 pc=00104f9c..0010500e
  DW_CFA_advance_loc: 5 to 00104fa1
  DW_CFA_def_cfa_offset: 8
  DW_CFA_offset: r5 (ebp) at cfa-8
  DW_CFA_advance_loc: 2 to 00104fa3
  DW_CFA_def_cfa_register: r5 (ebp)
  DW_CFA_advance_loc1: 106 to 0010500d
  DW_CFA_restore: r5 (ebp)
  DW_CFA_def_cfa: r4 (esp) ofs 4
  DW_CFA_nop

000004bc 0000001c 000004c0 FDE cie=00000000 pc=0010500e..001050bd
  DW_CFA_advance_loc: 5 to 00105013
  DW_CFA_def_cfa_offset: 8
  DW_CFA_offset: r5 (ebp) at cfa-8
  DW_CFA_advance_loc: 2 to 00105015
  DW_CFA_def_cfa_register: r5 (ebp)
  DW_CFA_advance_loc1: 167 to 001050bc
  DW_CFA_restore: r5 (ebp)
  DW_CFA_def_cfa: r4 (esp) ofs 4
  DW_CFA_nop

000004dc 00000020 000004e0 FDE cie=00000000 pc=001050bd..0010517c
  DW_CFA_advance_loc: 5 to 001050c2
  DW_CFA_def_cfa_offset: 8
  DW_CFA_offset: r5 (ebp) at cfa-8
  DW_CFA_advance_loc: 2 to 001050c4
  DW_CFA_def_cfa_register: r5 (ebp)
  DW_CFA_advance_loc: 4 to 001050c8
  DW_CFA_offset: r3 (ebx) at cfa-12
  DW_CFA_advance_loc1: 178 to 0010517a
  DW_CFA_restore: r3 (ebx)
  DW_CFA_advance_loc: 1 to 0010517b
  DW_CFA_restore: r5 (ebp)
  DW_CFA_def_cfa: r4 (esp) ofs 4

00000500 00000024 00000504 FDE cie=00000000 pc=0010517c..001051d4
  DW_CFA_advance_loc: 5 to 00105181
  DW_CFA_def_cfa_offset: 8
  DW_CFA_offset: r5 (ebp) at cfa-8
  DW_CFA_advance_loc: 2 to 00105183
  DW_CFA_def_cfa_register: r5 (ebp)
  DW_CFA_advance_loc: 5 to 00105188
  DW_CFA_offset: r6 (esi) at cfa-12
  DW_CFA_offset: r3 (ebx) at cfa-16
  DW_CFA_advance_loc1: 73 to 001051d1
  DW_CFA_restore: r3 (ebx)
  DW_CFA_advance_loc: 1 to 001051d2
  DW_CFA_restore: r6 (esi)
  DW_CFA_advance_loc: 1 to 001051d3
  DW_CFA_restore: r5 (ebp)
  DW_CFA_def_cfa: r4 (esp) ofs 4

00000528 0000001c 0000052c FDE cie=00000000 pc=001051d4..0010520e
  DW_CFA_advance_loc: 5 to 001051d9
  DW_CFA_def_cfa_offset: 8
  DW_CFA_offset: r5 (ebp) at cfa-8
  DW_CFA_advance_loc: 2 to 001051db
  DW_CFA_def_cfa_register: r5 (ebp)
  DW_CFA_advance_loc: 50 to 0010520d
  DW_CFA_restore: r5 (ebp)
  DW_CFA_def_cfa: r4 (esp) ofs 4
  DW_CFA_nop
  DW_CFA_nop

00000548 0000001c 0000054c FDE cie=00000000 pc=0010520e..00105279
  DW_CFA_advance_loc: 5 to 00105213
  DW_CFA_def_cfa_offset: 8
  DW_CFA_offset: r5 (ebp) at cfa-8
  DW_CFA_advance_loc: 2 to 00105215
  DW_CFA_def_cfa_register: r5 (ebp)
  DW_CFA_advance_loc1: 99 to 00105278
  DW_CFA_restore: r5 (ebp)
  DW_CFA_def_cfa: r4 (esp) ofs 4
  DW_CFA_nop

00000568 0000001c 0000056c FDE cie=00000000 pc=00105279..001052bd
  DW_CFA_advance_loc: 5 to 0010527e
  DW_CFA_def_cfa_offset: 8
  DW_CFA_offset: r5 (ebp) at cfa-8
  DW_CFA_advance_loc: 2 to 00105280
  DW_CFA_def_cfa_register: r5 (ebp)
  DW_CFA_advance_loc: 60 to 001052bc
  DW_CFA_restore: r5 (ebp)
  DW_CFA_def_cfa: r4 (esp) ofs 4
  DW_CFA_nop
  DW_CFA_nop

00000588 0000001c 0000058c FDE cie=00000000 pc=001052bd..0010531c
  DW_CFA_advance_loc: 5 to 001052c2
  DW_CFA_def_cfa_offset: 8
  DW_CFA_offset: r5 (ebp) at cfa-8
  DW_CFA_advance_loc: 2 to 001052c4
  DW_CFA_def_cfa_register: r5 (ebp)
  DW_CFA_advance_loc1: 87 to 0010531b
  DW_CFA_restore: r5 (ebp)
  DW_CFA_def_cfa: r4 (esp) ofs 4
  DW_CFA_nop

000005a8 0000001c 000005ac FDE cie=00000000 pc=0010531c..0010536c
  DW_CFA_advance_loc: 5 to 00105321
  DW_CFA_def_cfa_offset: 8
  DW_CFA_offset: r5 (ebp) at cfa-8
  DW_CFA_advance_loc: 2 to 00105323
  DW_CFA_def_cfa_register: r5 (ebp)
  DW_CFA_advance_loc1: 72 to 0010536b
  DW_CFA_restore: r5 (ebp)
  DW_CFA_def_cfa: r4 (esp) ofs 4
  DW_CFA_nop

000005c8 0000001c 000005cc FDE cie=00000000 pc=0010536c..00105399
  DW_CFA_advance_loc: 5 to 00105371
  DW_CFA_def_cfa_offset: 8
  DW_CFA_offset: r5 (ebp) at cfa-8
  DW_CFA_advance_loc: 2 to 00105373
  DW_CFA_def_cfa_register: r5 (ebp)
  DW_CFA_advance_loc: 37 to 00105398
  DW_CFA_restore: r5 (ebp)
  DW_CFA_def_cfa: r4 (esp) ofs 4
  DW_CFA_nop
  DW_CFA_nop

000005e8 0000001c 000005ec FDE cie=00000000 pc=00105399..001053ec
  DW_CFA_advance_loc: 5 to 0010539e
  DW_CFA_def_cfa_offset: 8
  DW_CFA_offset: r5 (ebp) at cfa-8
  DW_CFA_advance_loc: 2 to 001053a0
  DW_CFA_def_cfa_register: r5 (ebp)
  DW_CFA_advance_loc1: 75 to 001053eb
  DW_CFA_restore: r5 (ebp)
  DW_CFA_def_cfa: r4 (esp) ofs 4
  DW_CFA_nop

00000608 0000001c 0000060c FDE cie=00000000 pc=001053ec..001054d2
  DW_CFA_advance_loc: 5 to 001053f1
  DW_CFA_def_cfa_offset: 8
  DW_CFA_offset: r5 (ebp) at cfa-8
  DW_CFA_advance_loc: 2 to 001053f3
  DW_CFA_def_cfa_register: r5 (ebp)
  DW_CFA_advance_loc1: 222 to 001054d1
  DW_CFA_restore: r5 (ebp)
  DW_CFA_def_cfa: r4 (esp) ofs 4
  DW_CFA_nop

00000628 00000020 0000062c FDE cie=00000000 pc=001054d2..00105617
  DW_CFA_advance_loc: 5 to 001054d7
  DW_CFA_def_cfa_offset: 8
  DW_CFA_offset: r5 (ebp) at cfa-8
  DW_CFA_advance_loc: 2 to 001054d9
  DW_CFA_def_cfa_register: r5 (ebp)
  DW_CFA_advance_loc: 4 to 001054dd
  DW_CFA_offset: r3 (ebx) at cfa-12
  DW_CFA_advance_loc2: 313 to 00105616
  DW_CFA_restore: r5 (ebp)
  DW_CFA_restore: r3 (ebx)
  DW_CFA_def_cfa: r4 (esp) ofs 4

0000064c 0000001c 00000650 FDE cie=00000000 pc=00105617..0010562f
  DW_CFA_advance_loc: 5 to 0010561c
  DW_CFA_def_cfa_offset: 8
  DW_CFA_offset: r5 (ebp) at cfa-8
  DW_CFA_advance_loc: 2 to 0010561e
  DW_CFA_def_cfa_register: r5 (ebp)
  DW_CFA_advance_loc: 16 to 0010562e
  DW_CFA_restore: r5 (ebp)
  DW_CFA_def_cfa: r4 (esp) ofs 4
  DW_CFA_nop
  DW_CFA_nop

0000066c 0000001c 00000670 FDE cie=00000000 pc=0010562f..0010564f
  DW_CFA_advance_loc: 5 to 00105634
  DW_CFA_def_cfa_offset: 8
  DW_CFA_offset: r5 (ebp) at cfa-8
  DW_CFA_advance_loc: 2 to 00105636
  DW_CFA_def_cfa_register: r5 (ebp)
  DW_CFA_advance_loc: 24 to 0010564e
  DW_CFA_restore: r5 (ebp)
  DW_CFA_def_cfa: r4 (esp) ofs 4
  DW_CFA_nop
  DW_CFA_nop

0000068c 0000001c 00000690 FDE cie=00000000 pc=0010564f..001056c4
  DW_CFA_advance_loc: 5 to 00105654
  DW_CFA_def_cfa_offset: 8
  DW_CFA_offset: r5 (ebp) at cfa-8
  DW_CFA_advance_loc: 2 to 00105656
  DW_CFA_def_cfa_register: r5 (ebp)
  DW_CFA_advance_loc1: 109 to 001056c3
  DW_CFA_restore: r5 (ebp)
  DW_CFA_def_cfa: r4 (esp) ofs 4
  DW_CFA_nop

000006ac 0000001c 000006b0 FDE cie=00000000 pc=001056c4..001056e5
  DW_CFA_advance_loc: 1 to 001056c5
  DW_CFA_def_cfa_offset: 8
  DW_CFA_offset: r5 (ebp) at cfa-8
  DW_CFA_advance_loc: 2 to 001056c7
  DW_CFA_def_cfa_register: r5 (ebp)
  DW_CFA_advance_loc: 29 to 001056e4
  DW_CFA_restore: r5 (ebp)
  DW_CFA_def_cfa: r4 (esp) ofs 4
  DW_CFA_nop
  DW_CFA_nop

000006cc 0000001c 000006d0 FDE cie=00000000 pc=001056e5..00105702
  DW_CFA_advance_loc: 1 to 001056e6
  DW_CFA_def_cfa_offset: 8
  DW_CFA_offset: r5 (ebp) at cfa-8
  DW_CFA_advance_loc: 2 to 001056e8
  DW_CFA_def_cfa_register: r5 (ebp)
  DW_CFA_advance_loc: 25 to 00105701
  DW_CFA_restore: r5 (ebp)
  DW_CFA_def_cfa: r4 (esp) ofs 4
  DW_CFA_nop
  DW_CFA_nop

000006ec 0000001c 000006f0 FDE cie=00000000 pc=00105702..00105b6d
  DW_CFA_advance_loc: 5 to 00105707
  DW_CFA_def_cfa_offset: 8
  DW_CFA_offset: r5 (ebp) at cfa-8
  DW_CFA_advance_loc: 2 to 00105709
  DW_CFA_def_cfa_register: r5 (ebp)
  DW_CFA_advance_loc2: 1123 to 00105b6c
  DW_CFA_restore: r5 (ebp)
  DW_CFA_def_cfa: r4 (esp) ofs 4

0000070c 0000001c 00000710 FDE cie=00000000 pc=00105b6d..00105e3f
  DW_CFA_advance_loc: 5 to 00105b72
  DW_CFA_def_cfa_offset: 8
  DW_CFA_offset: r5 (ebp) at cfa-8
  DW_CFA_advance_loc: 2 to 00105b74
  DW_CFA_def_cfa_register: r5 (ebp)
  DW_CFA_advance_loc2: 714 to 00105e3e
  DW_CFA_restore: r5 (ebp)
  DW_CFA_def_cfa: r4 (esp) ofs 4

0000072c 0000001c 00000730 FDE cie=00000000 pc=00105e3f..00105ea8
  DW_CFA_advance_loc: 5 to 00105e44
  DW_CFA_def_cfa_offset: 8
  DW_CFA_offset: r5 (ebp) at cfa-8
  DW_CFA_advance_loc: 2 to 00105e46
  DW_CFA_def_cfa_register: r5 (ebp)
  DW_CFA_advance_loc1: 97 to 00105ea7
  DW_CFA_restore: r5 (ebp)
  DW_CFA_def_cfa: r4 (esp) ofs 4
  DW_CFA_nop

0000074c 0000001c 00000750 FDE cie=00000000 pc=00105ea8..00105ec9
  DW_CFA_advance_loc: 5 to 00105ead
  DW_CFA_def_cfa_offset: 8
  DW_CFA_offset: r5 (ebp) at cfa-8
  DW_CFA_advance_loc: 2 to 00105eaf
  DW_CFA_def_cfa_register: r5 (ebp)
  DW_CFA_advance_loc: 25 to 00105ec8
  DW_CFA_restore: r5 (ebp)
  DW_CFA_def_cfa: r4 (esp) ofs 4
  DW_CFA_nop
  DW_CFA_nop

0000076c 0000001c 00000770 FDE cie=00000000 pc=00105ec9..00105f19
  DW_CFA_advance_loc: 5 to 00105ece
  DW_CFA_def_cfa_offset: 8
  DW_CFA_offset: r5 (ebp) at cfa-8
  DW_CFA_advance_loc: 2 to 00105ed0
  DW_CFA_def_cfa_register: r5 (ebp)
  DW_CFA_advance_loc1: 72 to 00105f18
  DW_CFA_restore: r5 (ebp)
  DW_CFA_def_cfa: r4 (esp) ofs 4
  DW_CFA_nop

0000078c 0000001c 00000790 FDE cie=00000000 pc=00105f19..00105f3e
  DW_CFA_advance_loc: 5 to 00105f1e
  DW_CFA_def_cfa_offset: 8
  DW_CFA_offset: r5 (ebp) at cfa-8
  DW_CFA_advance_loc: 2 to 00105f20
  DW_CFA_def_cfa_register: r5 (ebp)
  DW_CFA_advance_loc: 29 to 00105f3d
  DW_CFA_restore: r5 (ebp)
  DW_CFA_def_cfa: r4 (esp) ofs 4
  DW_CFA_nop
  DW_CFA_nop

000007ac 0000001c 000007b0 FDE cie=00000000 pc=00105f3e..00105f4f
  DW_CFA_advance_loc: 5 to 00105f43
  DW_CFA_def_cfa_offset: 8
  DW_CFA_offset: r5 (ebp) at cfa-8
  DW_CFA_advance_loc: 2 to 00105f45
  DW_CFA_def_cfa_register: r5 (ebp)
  DW_CFA_advance_loc: 9 to 00105f4e
  DW_CFA_restore: r5 (ebp)
  DW_CFA_def_cfa: r4 (esp) ofs 4
  DW_CFA_nop
  DW_CFA_nop

000007cc 0000001c 000007d0 FDE cie=00000000 pc=00105f4f..00105f94
  DW_CFA_advance_loc: 5 to 00105f54
  DW_CFA_def_cfa_offset: 8
  DW_CFA_offset: r5 (ebp) at cfa-8
  DW_CFA_advance_loc: 2 to 00105f56
  DW_CFA_def_cfa_register: r5 (ebp)
  DW_CFA_advance_loc: 61 to 00105f93
  DW_CFA_restore: r5 (ebp)
  DW_CFA_def_cfa: r4 (esp) ofs 4
  DW_CFA_nop
  DW_CFA_nop

000007ec 00000020 000007f0 FDE cie=00000000 pc=00105f94..00106234
  DW_CFA_advance_loc: 5 to 00105f99
  DW_CFA_def_cfa_offset: 8
  DW_CFA_offset: r5 (ebp) at cfa-8
  DW_CFA_advance_loc: 2 to 00105f9b
  DW_CFA_def_cfa_register: r5 (ebp)
  DW_CFA_advance_loc: 4 to 00105f9f
  DW_CFA_offset: r3 (ebx) at cfa-12
  DW_CFA_advance_loc2: 660 to 00106233
  DW_CFA_restore: r5 (ebp)
  DW_CFA_restore: r3 (ebx)
  DW_CFA_def_cfa: r4 (esp) ofs 4

00000810 0000001c 00000814 FDE cie=00000000 pc=00106234..0010627b
  DW_CFA_advance_loc: 5 to 00106239
  DW_CFA_def_cfa_offset: 8
  DW_CFA_offset: r5 (ebp) at cfa-8
  DW_CFA_advance_loc: 2 to 0010623b
  DW_CFA_def_cfa_register: r5 (ebp)
  DW_CFA_advance_loc: 63 to 0010627a
  DW_CFA_restore: r5 (ebp)
  DW_CFA_def_cfa: r4 (esp) ofs 4
  DW_CFA_nop
  DW_CFA_nop

00000830 0000001c 00000834 FDE cie=00000000 pc=0010627b..0010628b
  DW_CFA_advance_loc: 5 to 00106280
  DW_CFA_def_cfa_offset: 8
  DW_CFA_offset: r5 (ebp) at cfa-8
  DW_CFA_advance_loc: 2 to 00106282
  DW_CFA_def_cfa_register: r5 (ebp)
  DW_CFA_advance_loc: 8 to 0010628a
  DW_CFA_restore: r5 (ebp)
  DW_CFA_def_cfa: r4 (esp) ofs 4
  DW_CFA_nop
  DW_CFA_nop

00000850 0000001c 00000854 FDE cie=00000000 pc=0010628b..001064e1
  DW_CFA_advance_loc: 5 to 00106290
  DW_CFA_def_cfa_offset: 8
  DW_CFA_offset: r5 (ebp) at cfa-8
  DW_CFA_advance_loc: 2 to 00106292
  DW_CFA_def_cfa_register: r5 (ebp)
  DW_CFA_advance_loc2: 590 to 001064e0
  DW_CFA_restore: r5 (ebp)
  DW_CFA_def_cfa: r4 (esp) ofs 4

00000870 0000001c 00000874 FDE cie=00000000 pc=001064e1..00106578
  DW_CFA_advance_loc: 5 to 001064e6
  DW_CFA_def_cfa_offset: 8
  DW_CFA_offset: r5 (ebp) at cfa-8
  DW_CFA_advance_loc: 2 to 001064e8
  DW_CFA_def_cfa_register: r5 (ebp)
  DW_CFA_advance_loc1: 143 to 00106577
  DW_CFA_restore: r5 (ebp)
  DW_CFA_def_cfa: r4 (esp) ofs 4
  DW_CFA_nop

00000890 00000020 00000894 FDE cie=00000000 pc=00106578..00106678
  DW_CFA_advance_loc: 5 to 0010657d
  DW_CFA_def_cfa_offset: 8
  DW_CFA_offset: r5 (ebp) at cfa-8
  DW_CFA_advance_loc: 2 to 0010657f
  DW_CFA_def_cfa_register: r5 (ebp)
  DW_CFA_advance_loc: 4 to 00106583
  DW_CFA_offset: r3 (ebx) at cfa-12
  DW_CFA_advance_loc1: 243 to 00106676
  DW_CFA_restore: r3 (ebx)
  DW_CFA_advance_loc: 1 to 00106677
  DW_CFA_restore: r5 (ebp)
  DW_CFA_def_cfa: r4 (esp) ofs 4

000008b4 0000001c 000008b8 FDE cie=00000000 pc=00106678..001067b2
  DW_CFA_advance_loc: 5 to 0010667d
  DW_CFA_def_cfa_offset: 8
  DW_CFA_offset: r5 (ebp) at cfa-8
  DW_CFA_advance_loc: 2 to 0010667f
  DW_CFA_def_cfa_register: r5 (ebp)
  DW_CFA_advance_loc2: 306 to 001067b1
  DW_CFA_restore: r5 (ebp)
  DW_CFA_def_cfa: r4 (esp) ofs 4

000008d4 0000001c 000008d8 FDE cie=00000000 pc=001067b2..001068e5
  DW_CFA_advance_loc: 5 to 001067b7
  DW_CFA_def_cfa_offset: 8
  DW_CFA_offset: r5 (ebp) at cfa-8
  DW_CFA_advance_loc: 2 to 001067b9
  DW_CFA_def_cfa_register: r5 (ebp)
  DW_CFA_advance_loc2: 299 to 001068e4
  DW_CFA_restore: r5 (ebp)
  DW_CFA_def_cfa: r4 (esp) ofs 4

000008f4 0000001c 000008f8 FDE cie=00000000 pc=001068e5..00106b6f
  DW_CFA_advance_loc: 5 to 001068ea
  DW_CFA_def_cfa_offset: 8
  DW_CFA_offset: r5 (ebp) at cfa-8
  DW_CFA_advance_loc: 2 to 001068ec
  DW_CFA_def_cfa_register: r5 (ebp)
  DW_CFA_advance_loc2: 642 to 00106b6e
  DW_CFA_restore: r5 (ebp)
  DW_CFA_def_cfa: r4 (esp) ofs 4

00000914 0000001c 00000918 FDE cie=00000000 pc=00106b6f..00106d6a
  DW_CFA_advance_loc: 5 to 00106b74
  DW_CFA_def_cfa_offset: 8
  DW_CFA_offset: r5 (ebp) at cfa-8
  DW_CFA_advance_loc: 2 to 00106b76
  DW_CFA_def_cfa_register: r5 (ebp)
  DW_CFA_advance_loc2: 499 to 00106d69
  DW_CFA_restore: r5 (ebp)
  DW_CFA_def_cfa: r4 (esp) ofs 4

00000934 0000001c 00000938 FDE cie=00000000 pc=00106d6a..00106efb
  DW_CFA_advance_loc: 5 to 00106d6f
  DW_CFA_def_cfa_offset: 8
  DW_CFA_offset: r5 (ebp) at cfa-8
  DW_CFA_advance_loc: 2 to 00106d71
  DW_CFA_def_cfa_register: r5 (ebp)
  DW_CFA_advance_loc2: 393 to 00106efa
  DW_CFA_restore: r5 (ebp)
  DW_CFA_def_cfa: r4 (esp) ofs 4

00000954 0000001c 00000958 FDE cie=00000000 pc=00106efb..00106f1b
  DW_CFA_advance_loc: 5 to 00106f00
  DW_CFA_def_cfa_offset: 8
  DW_CFA_offset: r5 (ebp) at cfa-8
  DW_CFA_advance_loc: 2 to 00106f02
  DW_CFA_def_cfa_register: r5 (ebp)
  DW_CFA_advance_loc: 24 to 00106f1a
  DW_CFA_restore: r5 (ebp)
  DW_CFA_def_cfa: r4 (esp) ofs 4
  DW_CFA_nop
  DW_CFA_nop

00000974 00000020 00000978 FDE cie=00000000 pc=00106f1b..00107249
  DW_CFA_advance_loc: 5 to 00106f20
  DW_CFA_def_cfa_offset: 8
  DW_CFA_offset: r5 (ebp) at cfa-8
  DW_CFA_advance_loc: 2 to 00106f22
  DW_CFA_def_cfa_register: r5 (ebp)
  DW_CFA_advance_loc: 7 to 00106f29
  DW_CFA_offset: r3 (ebx) at cfa-12
  DW_CFA_advance_loc2: 799 to 00107248
  DW_CFA_restore: r5 (ebp)
  DW_CFA_restore: r3 (ebx)
  DW_CFA_def_cfa: r4 (esp) ofs 4

00000998 0000001c 0000099c FDE cie=00000000 pc=00107249..001072f7
  DW_CFA_advance_loc: 5 to 0010724e
  DW_CFA_def_cfa_offset: 8
  DW_CFA_offset: r5 (ebp) at cfa-8
  DW_CFA_advance_loc: 2 to 00107250
  DW_CFA_def_cfa_register: r5 (ebp)
  DW_CFA_advance_loc1: 166 to 001072f6
  DW_CFA_restore: r5 (ebp)
  DW_CFA_def_cfa: r4 (esp) ofs 4
  DW_CFA_nop

000009b8 0000001c 000009bc FDE cie=00000000 pc=001072f7..00107318
  DW_CFA_advance_loc: 1 to 001072f8
  DW_CFA_def_cfa_offset: 8
  DW_CFA_offset: r5 (ebp) at cfa-8
  DW_CFA_advance_loc: 2 to 001072fa
  DW_CFA_def_cfa_register: r5 (ebp)
  DW_CFA_advance_loc: 29 to 00107317
  DW_CFA_restore: r5 (ebp)
  DW_CFA_def_cfa: r4 (esp) ofs 4
  DW_CFA_nop
  DW_CFA_nop

000009d8 0000001c 000009dc FDE cie=00000000 pc=00107318..00107335
  DW_CFA_advance_loc: 1 to 00107319
  DW_CFA_def_cfa_offset: 8
  DW_CFA_offset: r5 (ebp) at cfa-8
  DW_CFA_advance_loc: 2 to 0010731b
  DW_CFA_def_cfa_register: r5 (ebp)
  DW_CFA_advance_loc: 25 to 00107334
  DW_CFA_restore: r5 (ebp)
  DW_CFA_def_cfa: r4 (esp) ofs 4
  DW_CFA_nop
  DW_CFA_nop

000009f8 0000001c 000009fc FDE cie=00000000 pc=00107335..001073a6
  DW_CFA_advance_loc: 5 to 0010733a
  DW_CFA_def_cfa_offset: 8
  DW_CFA_offset: r5 (ebp) at cfa-8
  DW_CFA_advance_loc: 2 to 0010733c
  DW_CFA_def_cfa_register: r5 (ebp)
  DW_CFA_advance_loc1: 105 to 001073a5
  DW_CFA_restore: r5 (ebp)
  DW_CFA_def_cfa: r4 (esp) ofs 4
  DW_CFA_nop

00000a18 0000001c 00000a1c FDE cie=00000000 pc=001073a6..001074a5
  DW_CFA_advance_loc: 5 to 001073ab
  DW_CFA_def_cfa_offset: 8
  DW_CFA_offset: r5 (ebp) at cfa-8
  DW_CFA_advance_loc: 2 to 001073ad
  DW_CFA_def_cfa_register: r5 (ebp)
  DW_CFA_advance_loc1: 247 to 001074a4
  DW_CFA_restore: r5 (ebp)
  DW_CFA_def_cfa: r4 (esp) ofs 4
  DW_CFA_nop

00000a38 0000001c 00000a3c FDE cie=00000000 pc=001074a5..00107550
  DW_CFA_advance_loc: 5 to 001074aa
  DW_CFA_def_cfa_offset: 8
  DW_CFA_offset: r5 (ebp) at cfa-8
  DW_CFA_advance_loc: 2 to 001074ac
  DW_CFA_def_cfa_register: r5 (ebp)
  DW_CFA_advance_loc1: 163 to 0010754f
  DW_CFA_restore: r5 (ebp)
  DW_CFA_def_cfa: r4 (esp) ofs 4
  DW_CFA_nop

00000a58 0000001c 00000a5c FDE cie=00000000 pc=00107550..0010757d
  DW_CFA_advance_loc: 5 to 00107555
  DW_CFA_def_cfa_offset: 8
  DW_CFA_offset: r5 (ebp) at cfa-8
  DW_CFA_advance_loc: 2 to 00107557
  DW_CFA_def_cfa_register: r5 (ebp)
  DW_CFA_advance_loc: 37 to 0010757c
  DW_CFA_restore: r5 (ebp)
  DW_CFA_def_cfa: r4 (esp) ofs 4
  DW_CFA_nop
  DW_CFA_nop

00000a78 0000001c 00000a7c FDE cie=00000000 pc=0010757d..001075c1
  DW_CFA_advance_loc: 5 to 00107582
  DW_CFA_def_cfa_offset: 8
  DW_CFA_offset: r5 (ebp) at cfa-8
  DW_CFA_advance_loc: 2 to 00107584
  DW_CFA_def_cfa_register: r5 (ebp)
  DW_CFA_advance_loc: 60 to 001075c0
  DW_CFA_restore: r5 (ebp)
  DW_CFA_def_cfa: r4 (esp) ofs 4
  DW_CFA_nop
  DW_CFA_nop

00000a98 0000001c 00000a9c FDE cie=00000000 pc=001075c1..001075e9
  DW_CFA_advance_loc: 5 to 001075c6
  DW_CFA_def_cfa_offset: 8
  DW_CFA_offset: r5 (ebp) at cfa-8
  DW_CFA_advance_loc: 2 to 001075c8
  DW_CFA_def_cfa_register: r5 (ebp)
  DW_CFA_advance_loc: 32 to 001075e8
  DW_CFA_restore: r5 (ebp)
  DW_CFA_def_cfa: r4 (esp) ofs 4
  DW_CFA_nop
  DW_CFA_nop

00000ab8 0000001c 00000abc FDE cie=00000000 pc=001075e9..00107640
  DW_CFA_advance_loc: 5 to 001075ee
  DW_CFA_def_cfa_offset: 8
  DW_CFA_offset: r5 (ebp) at cfa-8
  DW_CFA_advance_loc: 2 to 001075f0
  DW_CFA_def_cfa_register: r5 (ebp)
  DW_CFA_advance_loc1: 79 to 0010763f
  DW_CFA_restore: r5 (ebp)
  DW_CFA_def_cfa: r4 (esp) ofs 4
  DW_CFA_nop

00000ad8 0000001c 00000adc FDE cie=00000000 pc=00107640..0010767e
  DW_CFA_advance_loc: 5 to 00107645
  DW_CFA_def_cfa_offset: 8
  DW_CFA_offset: r5 (ebp) at cfa-8
  DW_CFA_advance_loc: 2 to 00107647
  DW_CFA_def_cfa_register: r5 (ebp)
  DW_CFA_advance_loc: 54 to 0010767d
  DW_CFA_restore: r5 (ebp)
  DW_CFA_def_cfa: r4 (esp) ofs 4
  DW_CFA_nop
  DW_CFA_nop

00000af8 0000001c 00000afc FDE cie=00000000 pc=0010767e..001076b2
  DW_CFA_advance_loc: 5 to 00107683
  DW_CFA_def_cfa_offset: 8
  DW_CFA_offset: r5 (ebp) at cfa-8
  DW_CFA_advance_loc: 2 to 00107685
  DW_CFA_def_cfa_register: r5 (ebp)
  DW_CFA_advance_loc: 44 to 001076b1
  DW_CFA_restore: r5 (ebp)
  DW_CFA_def_cfa: r4 (esp) ofs 4
  DW_CFA_nop
  DW_CFA_nop

00000b18 0000001c 00000b1c FDE cie=00000000 pc=001076b2..00107722
  DW_CFA_advance_loc: 5 to 001076b7
  DW_CFA_def_cfa_offset: 8
  DW_CFA_offset: r5 (ebp) at cfa-8
  DW_CFA_advance_loc: 2 to 001076b9
  DW_CFA_def_cfa_register: r5 (ebp)
  DW_CFA_advance_loc1: 104 to 00107721
  DW_CFA_restore: r5 (ebp)
  DW_CFA_def_cfa: r4 (esp) ofs 4
  DW_CFA_nop

00000b38 0000001c 00000b3c FDE cie=00000000 pc=00107722..00107730
  DW_CFA_advance_loc: 5 to 00107727
  DW_CFA_def_cfa_offset: 8
  DW_CFA_offset: r5 (ebp) at cfa-8
  DW_CFA_advance_loc: 2 to 00107729
  DW_CFA_def_cfa_register: r5 (ebp)
  DW_CFA_advance_loc: 6 to 0010772f
  DW_CFA_restore: r5 (ebp)
  DW_CFA_def_cfa: r4 (esp) ofs 4
  DW_CFA_nop
  DW_CFA_nop

00000b58 0000001c 00000b5c FDE cie=00000000 pc=00107730..00107796
  DW_CFA_advance_loc: 5 to 00107735
  DW_CFA_def_cfa_offset: 8
  DW_CFA_offset: r5 (ebp) at cfa-8
  DW_CFA_advance_loc: 2 to 00107737
  DW_CFA_def_cfa_register: r5 (ebp)
  DW_CFA_advance_loc1: 94 to 00107795
  DW_CFA_restore: r5 (ebp)
  DW_CFA_def_cfa: r4 (esp) ofs 4
  DW_CFA_nop

00000b78 0000001c 00000b7c FDE cie=00000000 pc=00107796..001077fc
  DW_CFA_advance_loc: 5 to 0010779b
  DW_CFA_def_cfa_offset: 8
  DW_CFA_offset: r5 (ebp) at cfa-8
  DW_CFA_advance_loc: 2 to 0010779d
  DW_CFA_def_cfa_register: r5 (ebp)
  DW_CFA_advance_loc1: 94 to 001077fb
  DW_CFA_restore: r5 (ebp)
  DW_CFA_def_cfa: r4 (esp) ofs 4
  DW_CFA_nop

00000b98 0000001c 00000b9c FDE cie=00000000 pc=001077fc..00107859
  DW_CFA_advance_loc: 5 to 00107801
  DW_CFA_def_cfa_offset: 8
  DW_CFA_offset: r5 (ebp) at cfa-8
  DW_CFA_advance_loc: 2 to 00107803
  DW_CFA_def_cfa_register: r5 (ebp)
  DW_CFA_advance_loc1: 85 to 00107858
  DW_CFA_restore: r5 (ebp)
  DW_CFA_def_cfa: r4 (esp) ofs 4
  DW_CFA_nop

00000bb8 0000001c 00000bbc FDE cie=00000000 pc=00107859..00107904
  DW_CFA_advance_loc: 5 to 0010785e
  DW_CFA_def_cfa_offset: 8
  DW_CFA_offset: r5 (ebp) at cfa-8
  DW_CFA_advance_loc: 2 to 00107860
  DW_CFA_def_cfa_register: r5 (ebp)
  DW_CFA_advance_loc1: 163 to 00107903
  DW_CFA_restore: r5 (ebp)
  DW_CFA_def_cfa: r4 (esp) ofs 4
  DW_CFA_nop

00000bd8 0000001c 00000bdc FDE cie=00000000 pc=00107904..0010798a
  DW_CFA_advance_loc: 5 to 00107909
  DW_CFA_def_cfa_offset: 8
  DW_CFA_offset: r5 (ebp) at cfa-8
  DW_CFA_advance_loc: 2 to 0010790b
  DW_CFA_def_cfa_register: r5 (ebp)
  DW_CFA_advance_loc1: 126 to 00107989
  DW_CFA_restore: r5 (ebp)
  DW_CFA_def_cfa: r4 (esp) ofs 4
  DW_CFA_nop

00000bf8 00000020 00000bfc FDE cie=00000000 pc=0010798a..00107a5c
  DW_CFA_advance_loc: 5 to 0010798f
  DW_CFA_def_cfa_offset: 8
  DW_CFA_offset: r5 (ebp) at cfa-8
  DW_CFA_advance_loc: 2 to 00107991
  DW_CFA_def_cfa_register: r5 (ebp)
  DW_CFA_advance_loc: 4 to 00107995
  DW_CFA_offset: r3 (ebx) at cfa-12
  DW_CFA_advance_loc1: 198 to 00107a5b
  DW_CFA_restore: r5 (ebp)
  DW_CFA_restore: r3 (ebx)
  DW_CFA_def_cfa: r4 (esp) ofs 4
  DW_CFA_nop

00000c1c 0000001c 00000c20 FDE cie=00000000 pc=00107a5c..00107aa6
  DW_CFA_advance_loc: 5 to 00107a61
  DW_CFA_def_cfa_offset: 8
  DW_CFA_offset: r5 (ebp) at cfa-8
  DW_CFA_advance_loc: 2 to 00107a63
  DW_CFA_def_cfa_register: r5 (ebp)
  DW_CFA_advance_loc1: 66 to 00107aa5
  DW_CFA_restore: r5 (ebp)
  DW_CFA_def_cfa: r4 (esp) ofs 4
  DW_CFA_nop

00000c3c 0000001c 00000c40 FDE cie=00000000 pc=00107aa6..00107b37
  DW_CFA_advance_loc: 5 to 00107aab
  DW_CFA_def_cfa_offset: 8
  DW_CFA_offset: r5 (ebp) at cfa-8
  DW_CFA_advance_loc: 2 to 00107aad
  DW_CFA_def_cfa_register: r5 (ebp)
  DW_CFA_advance_loc1: 137 to 00107b36
  DW_CFA_restore: r5 (ebp)
  DW_CFA_def_cfa: r4 (esp) ofs 4
  DW_CFA_nop

00000c5c 0000001c 00000c60 FDE cie=00000000 pc=00107b37..00107b47
  DW_CFA_advance_loc: 5 to 00107b3c
  DW_CFA_def_cfa_offset: 8
  DW_CFA_offset: r5 (ebp) at cfa-8
  DW_CFA_advance_loc: 2 to 00107b3e
  DW_CFA_def_cfa_register: r5 (ebp)
  DW_CFA_advance_loc: 8 to 00107b46
  DW_CFA_restore: r5 (ebp)
  DW_CFA_def_cfa: r4 (esp) ofs 4
  DW_CFA_nop
  DW_CFA_nop

00000c7c 0000001c 00000c80 FDE cie=00000000 pc=00107b47..00107b57
  DW_CFA_advance_loc: 5 to 00107b4c
  DW_CFA_def_cfa_offset: 8
  DW_CFA_offset: r5 (ebp) at cfa-8
  DW_CFA_advance_loc: 2 to 00107b4e
  DW_CFA_def_cfa_register: r5 (ebp)
  DW_CFA_advance_loc: 8 to 00107b56
  DW_CFA_restore: r5 (ebp)
  DW_CFA_def_cfa: r4 (esp) ofs 4
  DW_CFA_nop
  DW_CFA_nop

00000c9c 0000001c 00000ca0 FDE cie=00000000 pc=00107b57..00107bce
  DW_CFA_advance_loc: 5 to 00107b5c
  DW_CFA_def_cfa_offset: 8
  DW_CFA_offset: r5 (ebp) at cfa-8
  DW_CFA_advance_loc: 2 to 00107b5e
  DW_CFA_def_cfa_register: r5 (ebp)
  DW_CFA_advance_loc1: 111 to 00107bcd
  DW_CFA_restore: r5 (ebp)
  DW_CFA_def_cfa: r4 (esp) ofs 4
  DW_CFA_nop

00000cbc 0000001c 00000cc0 FDE cie=00000000 pc=00107bce..00107bfd
  DW_CFA_advance_loc: 5 to 00107bd3
  DW_CFA_def_cfa_offset: 8
  DW_CFA_offset: r5 (ebp) at cfa-8
  DW_CFA_advance_loc: 2 to 00107bd5
  DW_CFA_def_cfa_register: r5 (ebp)
  DW_CFA_advance_loc: 39 to 00107bfc
  DW_CFA_restore: r5 (ebp)
  DW_CFA_def_cfa: r4 (esp) ofs 4
  DW_CFA_nop
  DW_CFA_nop

00000cdc 0000001c 00000ce0 FDE cie=00000000 pc=00107bfd..00107d5f
  DW_CFA_advance_loc: 5 to 00107c02
  DW_CFA_def_cfa_offset: 8
  DW_CFA_offset: r5 (ebp) at cfa-8
  DW_CFA_advance_loc: 2 to 00107c04
  DW_CFA_def_cfa_register: r5 (ebp)
  DW_CFA_advance_loc2: 346 to 00107d5e
  DW_CFA_restore: r5 (ebp)
  DW_CFA_def_cfa: r4 (esp) ofs 4

00000cfc 0000001c 00000d00 FDE cie=00000000 pc=00107d5f..00107d7a
  DW_CFA_advance_loc: 5 to 00107d64
  DW_CFA_def_cfa_offset: 8
  DW_CFA_offset: r5 (ebp) at cfa-8
  DW_CFA_advance_loc: 2 to 00107d66
  DW_CFA_def_cfa_register: r5 (ebp)
  DW_CFA_advance_loc: 19 to 00107d79
  DW_CFA_restore: r5 (ebp)
  DW_CFA_def_cfa: r4 (esp) ofs 4
  DW_CFA_nop
  DW_CFA_nop

00000d1c 0000001c 00000d20 FDE cie=00000000 pc=00107d7a..00107d9b
  DW_CFA_advance_loc: 1 to 00107d7b
  DW_CFA_def_cfa_offset: 8
  DW_CFA_offset: r5 (ebp) at cfa-8
  DW_CFA_advance_loc: 2 to 00107d7d
  DW_CFA_def_cfa_register: r5 (ebp)
  DW_CFA_advance_loc: 29 to 00107d9a
  DW_CFA_restore: r5 (ebp)
  DW_CFA_def_cfa: r4 (esp) ofs 4
  DW_CFA_nop
  DW_CFA_nop

00000d3c 0000001c 00000d40 FDE cie=00000000 pc=00107d9b..00107dcf
  DW_CFA_advance_loc: 5 to 00107da0
  DW_CFA_def_cfa_offset: 8
  DW_CFA_offset: r5 (ebp) at cfa-8
  DW_CFA_advance_loc: 2 to 00107da2
  DW_CFA_def_cfa_register: r5 (ebp)
  DW_CFA_advance_loc: 44 to 00107dce
  DW_CFA_restore: r5 (ebp)
  DW_CFA_def_cfa: r4 (esp) ofs 4
  DW_CFA_nop
  DW_CFA_nop

00000d5c 0000001c 00000d60 FDE cie=00000000 pc=00107dcf..00107e0e
  DW_CFA_advance_loc: 5 to 00107dd4
  DW_CFA_def_cfa_offset: 8
  DW_CFA_offset: r5 (ebp) at cfa-8
  DW_CFA_advance_loc: 2 to 00107dd6
  DW_CFA_def_cfa_register: r5 (ebp)
  DW_CFA_advance_loc: 55 to 00107e0d
  DW_CFA_restore: r5 (ebp)
  DW_CFA_def_cfa: r4 (esp) ofs 4
  DW_CFA_nop
  DW_CFA_nop

00000d7c 0000001c 00000d80 FDE cie=00000000 pc=00107e0e..00107e36
  DW_CFA_advance_loc: 5 to 00107e13
  DW_CFA_def_cfa_offset: 8
  DW_CFA_offset: r5 (ebp) at cfa-8
  DW_CFA_advance_loc: 2 to 00107e15
  DW_CFA_def_cfa_register: r5 (ebp)
  DW_CFA_advance_loc: 32 to 00107e35
  DW_CFA_restore: r5 (ebp)
  DW_CFA_def_cfa: r4 (esp) ofs 4
  DW_CFA_nop
  DW_CFA_nop

00000d9c 0000001c 00000da0 FDE cie=00000000 pc=00107e36..00107e87
  DW_CFA_advance_loc: 5 to 00107e3b
  DW_CFA_def_cfa_offset: 8
  DW_CFA_offset: r5 (ebp) at cfa-8
  DW_CFA_advance_loc: 2 to 00107e3d
  DW_CFA_def_cfa_register: r5 (ebp)
  DW_CFA_advance_loc1: 73 to 00107e86
  DW_CFA_restore: r5 (ebp)
  DW_CFA_def_cfa: r4 (esp) ofs 4
  DW_CFA_nop

00000dbc 0000001c 00000dc0 FDE cie=00000000 pc=00107e87..00107ebf
  DW_CFA_advance_loc: 5 to 00107e8c
  DW_CFA_def_cfa_offset: 8
  DW_CFA_offset: r5 (ebp) at cfa-8
  DW_CFA_advance_loc: 2 to 00107e8e
  DW_CFA_def_cfa_register: r5 (ebp)
  DW_CFA_advance_loc: 48 to 00107ebe
  DW_CFA_restore: r5 (ebp)
  DW_CFA_def_cfa: r4 (esp) ofs 4
  DW_CFA_nop
  DW_CFA_nop

00000ddc 0000001c 00000de0 FDE cie=00000000 pc=00107ebf..00107eea
  DW_CFA_advance_loc: 5 to 00107ec4
  DW_CFA_def_cfa_offset: 8
  DW_CFA_offset: r5 (ebp) at cfa-8
  DW_CFA_advance_loc: 2 to 00107ec6
  DW_CFA_def_cfa_register: r5 (ebp)
  DW_CFA_advance_loc: 35 to 00107ee9
  DW_CFA_restore: r5 (ebp)
  DW_CFA_def_cfa: r4 (esp) ofs 4
  DW_CFA_nop
  DW_CFA_nop

00000dfc 00000020 00000e00 FDE cie=00000000 pc=00107eea..00107fb3
  DW_CFA_advance_loc: 5 to 00107eef
  DW_CFA_def_cfa_offset: 8
  DW_CFA_offset: r5 (ebp) at cfa-8
  DW_CFA_advance_loc: 2 to 00107ef1
  DW_CFA_def_cfa_register: r5 (ebp)
  DW_CFA_advance_loc: 4 to 00107ef5
  DW_CFA_offset: r3 (ebx) at cfa-12
  DW_CFA_advance_loc1: 189 to 00107fb2
  DW_CFA_restore: r5 (ebp)
  DW_CFA_restore: r3 (ebx)
  DW_CFA_def_cfa: r4 (esp) ofs 4
  DW_CFA_nop

00000e20 0000001c 00000e24 FDE cie=00000000 pc=00107fb3..001080fa
  DW_CFA_advance_loc: 5 to 00107fb8
  DW_CFA_def_cfa_offset: 8
  DW_CFA_offset: r5 (ebp) at cfa-8
  DW_CFA_advance_loc: 2 to 00107fba
  DW_CFA_def_cfa_register: r5 (ebp)
  DW_CFA_advance_loc2: 319 to 001080f9
  DW_CFA_restore: r5 (ebp)
  DW_CFA_def_cfa: r4 (esp) ofs 4

00000e40 0000001c 00000e44 FDE cie=00000000 pc=001080fa..001084f0
  DW_CFA_advance_loc: 5 to 001080ff
  DW_CFA_def_cfa_offset: 8
  DW_CFA_offset: r5 (ebp) at cfa-8
  DW_CFA_advance_loc: 2 to 00108101
  DW_CFA_def_cfa_register: r5 (ebp)
  DW_CFA_advance_loc2: 1006 to 001084ef
  DW_CFA_restore: r5 (ebp)
  DW_CFA_def_cfa: r4 (esp) ofs 4

00000e60 0000001c 00000e64 FDE cie=00000000 pc=001084f0..001085d1
  DW_CFA_advance_loc: 5 to 001084f5
  DW_CFA_def_cfa_offset: 8
  DW_CFA_offset: r5 (ebp) at cfa-8
  DW_CFA_advance_loc: 2 to 001084f7
  DW_CFA_def_cfa_register: r5 (ebp)
  DW_CFA_advance_loc1: 217 to 001085d0
  DW_CFA_restore: r5 (ebp)
  DW_CFA_def_cfa: r4 (esp) ofs 4
  DW_CFA_nop

00000e80 0000001c 00000e84 FDE cie=00000000 pc=001085d1..001085fc
  DW_CFA_advance_loc: 5 to 001085d6
  DW_CFA_def_cfa_offset: 8
  DW_CFA_offset: r5 (ebp) at cfa-8
  DW_CFA_advance_loc: 2 to 001085d8
  DW_CFA_def_cfa_register: r5 (ebp)
  DW_CFA_advance_loc: 35 to 001085fb
  DW_CFA_restore: r5 (ebp)
  DW_CFA_def_cfa: r4 (esp) ofs 4
  DW_CFA_nop
  DW_CFA_nop

00000ea0 0000001c 00000ea4 FDE cie=00000000 pc=001085fc..00108627
  DW_CFA_advance_loc: 5 to 00108601
  DW_CFA_def_cfa_offset: 8
  DW_CFA_offset: r5 (ebp) at cfa-8
  DW_CFA_advance_loc: 2 to 00108603
  DW_CFA_def_cfa_register: r5 (ebp)
  DW_CFA_advance_loc: 35 to 00108626
  DW_CFA_restore: r5 (ebp)
  DW_CFA_def_cfa: r4 (esp) ofs 4
  DW_CFA_nop
  DW_CFA_nop

00000ec0 0000001c 00000ec4 FDE cie=00000000 pc=00108627..00108652
  DW_CFA_advance_loc: 5 to 0010862c
  DW_CFA_def_cfa_offset: 8
  DW_CFA_offset: r5 (ebp) at cfa-8
  DW_CFA_advance_loc: 2 to 0010862e
  DW_CFA_def_cfa_register: r5 (ebp)
  DW_CFA_advance_loc: 35 to 00108651
  DW_CFA_restore: r5 (ebp)
  DW_CFA_def_cfa: r4 (esp) ofs 4
  DW_CFA_nop
  DW_CFA_nop

00000ee0 0000001c 00000ee4 FDE cie=00000000 pc=00108652..00108cd1
  DW_CFA_advance_loc: 5 to 00108657
  DW_CFA_def_cfa_offset: 8
  DW_CFA_offset: r5 (ebp) at cfa-8
  DW_CFA_advance_loc: 2 to 00108659
  DW_CFA_def_cfa_register: r5 (ebp)
  DW_CFA_advance_loc2: 1655 to 00108cd0
  DW_CFA_restore: r5 (ebp)
  DW_CFA_def_cfa: r4 (esp) ofs 4

00000f00 0000001c 00000f04 FDE cie=00000000 pc=00108cd1..00108cf4
  DW_CFA_advance_loc: 5 to 00108cd6
  DW_CFA_def_cfa_offset: 8
  DW_CFA_offset: r5 (ebp) at cfa-8
  DW_CFA_advance_loc: 2 to 00108cd8
  DW_CFA_def_cfa_register: r5 (ebp)
  DW_CFA_advance_loc: 27 to 00108cf3
  DW_CFA_restore: r5 (ebp)
  DW_CFA_def_cfa: r4 (esp) ofs 4
  DW_CFA_nop
  DW_CFA_nop

00000f20 0000001c 00000f24 FDE cie=00000000 pc=00108cf4..00108d15
  DW_CFA_advance_loc: 1 to 00108cf5
  DW_CFA_def_cfa_offset: 8
  DW_CFA_offset: r5 (ebp) at cfa-8
  DW_CFA_advance_loc: 2 to 00108cf7
  DW_CFA_def_cfa_register: r5 (ebp)
  DW_CFA_advance_loc: 29 to 00108d14
  DW_CFA_restore: r5 (ebp)
  DW_CFA_def_cfa: r4 (esp) ofs 4
  DW_CFA_nop
  DW_CFA_nop

00000f40 0000001c 00000f44 FDE cie=00000000 pc=00108d15..00108d32
  DW_CFA_advance_loc: 1 to 00108d16
  DW_CFA_def_cfa_offset: 8
  DW_CFA_offset: r5 (ebp) at cfa-8
  DW_CFA_advance_loc: 2 to 00108d18
  DW_CFA_def_cfa_register: r5 (ebp)
  DW_CFA_advance_loc: 25 to 00108d31
  DW_CFA_restore: r5 (ebp)
  DW_CFA_def_cfa: r4 (esp) ofs 4
  DW_CFA_nop
  DW_CFA_nop

00000f60 0000001c 00000f64 FDE cie=00000000 pc=00108d32..00108d51
  DW_CFA_advance_loc: 1 to 00108d33
  DW_CFA_def_cfa_offset: 8
  DW_CFA_offset: r5 (ebp) at cfa-8
  DW_CFA_advance_loc: 2 to 00108d35
  DW_CFA_def_cfa_register: r5 (ebp)
  DW_CFA_advance_loc: 27 to 00108d50
  DW_CFA_restore: r5 (ebp)
  DW_CFA_def_cfa: r4 (esp) ofs 4
  DW_CFA_nop
  DW_CFA_nop

00000f80 0000001c 00000f84 FDE cie=00000000 pc=00108d51..00108d6d
  DW_CFA_advance_loc: 1 to 00108d52
  DW_CFA_def_cfa_offset: 8
  DW_CFA_offset: r5 (ebp) at cfa-8
  DW_CFA_advance_loc: 2 to 00108d54
  DW_CFA_def_cfa_register: r5 (ebp)
  DW_CFA_advance_loc: 24 to 00108d6c
  DW_CFA_restore: r5 (ebp)
  DW_CFA_def_cfa: r4 (esp) ofs 4
  DW_CFA_nop
  DW_CFA_nop

00000fa0 0000001c 00000fa4 FDE cie=00000000 pc=00108d6d..00108e9c
  DW_CFA_advance_loc: 5 to 00108d72
  DW_CFA_def_cfa_offset: 8
  DW_CFA_offset: r5 (ebp) at cfa-8
  DW_CFA_advance_loc: 2 to 00108d74
  DW_CFA_def_cfa_register: r5 (ebp)
  DW_CFA_advance_loc2: 295 to 00108e9b
  DW_CFA_restore: r5 (ebp)
  DW_CFA_def_cfa: r4 (esp) ofs 4

00000fc0 0000001c 00000fc4 FDE cie=00000000 pc=00108e9c..00108fd1
  DW_CFA_advance_loc: 5 to 00108ea1
  DW_CFA_def_cfa_offset: 8
  DW_CFA_offset: r5 (ebp) at cfa-8
  DW_CFA_advance_loc: 2 to 00108ea3
  DW_CFA_def_cfa_register: r5 (ebp)
  DW_CFA_advance_loc2: 301 to 00108fd0
  DW_CFA_restore: r5 (ebp)
  DW_CFA_def_cfa: r4 (esp) ofs 4

00000fe0 0000001c 00000fe4 FDE cie=00000000 pc=00108fd1..00109105
  DW_CFA_advance_loc: 5 to 00108fd6
  DW_CFA_def_cfa_offset: 8
  DW_CFA_offset: r5 (ebp) at cfa-8
  DW_CFA_advance_loc: 2 to 00108fd8
  DW_CFA_def_cfa_register: r5 (ebp)
  DW_CFA_advance_loc2: 300 to 00109104
  DW_CFA_restore: r5 (ebp)
  DW_CFA_def_cfa: r4 (esp) ofs 4

00001000 0000001c 00001004 FDE cie=00000000 pc=00109105..0010915b
  DW_CFA_advance_loc: 5 to 0010910a
  DW_CFA_def_cfa_offset: 8
  DW_CFA_offset: r5 (ebp) at cfa-8
  DW_CFA_advance_loc: 2 to 0010910c
  DW_CFA_def_cfa_register: r5 (ebp)
  DW_CFA_advance_loc1: 78 to 0010915a
  DW_CFA_restore: r5 (ebp)
  DW_CFA_def_cfa: r4 (esp) ofs 4
  DW_CFA_nop

00001020 0000001c 00001024 FDE cie=00000000 pc=0010915b..001091b1
  DW_CFA_advance_loc: 5 to 00109160
  DW_CFA_def_cfa_offset: 8
  DW_CFA_offset: r5 (ebp) at cfa-8
  DW_CFA_advance_loc: 2 to 00109162
  DW_CFA_def_cfa_register: r5 (ebp)
  DW_CFA_advance_loc1: 78 to 001091b0
  DW_CFA_restore: r5 (ebp)
  DW_CFA_def_cfa: r4 (esp) ofs 4
  DW_CFA_nop

00001040 00000020 00001044 FDE cie=00000000 pc=001091b1..00109468
  DW_CFA_advance_loc: 5 to 001091b6
  DW_CFA_def_cfa_offset: 8
  DW_CFA_offset: r5 (ebp) at cfa-8
  DW_CFA_advance_loc: 2 to 001091b8
  DW_CFA_def_cfa_register: r5 (ebp)
  DW_CFA_advance_loc: 4 to 001091bc
  DW_CFA_offset: r3 (ebx) at cfa-12
  DW_CFA_advance_loc2: 683 to 00109467
  DW_CFA_restore: r5 (ebp)
  DW_CFA_restore: r3 (ebx)
  DW_CFA_def_cfa: r4 (esp) ofs 4

00001064 0000001c 00001068 FDE cie=00000000 pc=00109468..0010950c
  DW_CFA_advance_loc: 5 to 0010946d
  DW_CFA_def_cfa_offset: 8
  DW_CFA_offset: r5 (ebp) at cfa-8
  DW_CFA_advance_loc: 2 to 0010946f
  DW_CFA_def_cfa_register: r5 (ebp)
  DW_CFA_advance_loc1: 156 to 0010950b
  DW_CFA_restore: r5 (ebp)
  DW_CFA_def_cfa: r4 (esp) ofs 4
  DW_CFA_nop

00001084 00000028 00001088 FDE cie=00000000 pc=0010950c..001095f8
  DW_CFA_advance_loc: 5 to 00109511
  DW_CFA_def_cfa_offset: 8
  DW_CFA_offset: r5 (ebp) at cfa-8
  DW_CFA_advance_loc: 2 to 00109513
  DW_CFA_def_cfa_register: r5 (ebp)
  DW_CFA_advance_loc: 6 to 00109519
  DW_CFA_offset: r7 (edi) at cfa-12
  DW_CFA_offset: r6 (esi) at cfa-16
  DW_CFA_offset: r3 (ebx) at cfa-20
  DW_CFA_advance_loc1: 219 to 001095f4
  DW_CFA_restore: r3 (ebx)
  DW_CFA_advance_loc: 1 to 001095f5
  DW_CFA_restore: r6 (esi)
  DW_CFA_advance_loc: 1 to 001095f6
  DW_CFA_restore: r7 (edi)
  DW_CFA_advance_loc: 1 to 001095f7
  DW_CFA_restore: r5 (ebp)
  DW_CFA_def_cfa: r4 (esp) ofs 4

000010b0 00000020 000010b4 FDE cie=00000000 pc=001095f8..00109909
  DW_CFA_advance_loc: 5 to 001095fd
  DW_CFA_def_cfa_offset: 8
  DW_CFA_offset: r5 (ebp) at cfa-8
  DW_CFA_advance_loc: 2 to 001095ff
  DW_CFA_def_cfa_register: r5 (ebp)
  DW_CFA_advance_loc: 7 to 00109606
  DW_CFA_offset: r3 (ebx) at cfa-12
  DW_CFA_advance_loc2: 770 to 00109908
  DW_CFA_restore: r5 (ebp)
  DW_CFA_restore: r3 (ebx)
  DW_CFA_def_cfa: r4 (esp) ofs 4

000010d4 00000020 000010d8 FDE cie=00000000 pc=00109909..00109a26
  DW_CFA_advance_loc: 5 to 0010990e
  DW_CFA_def_cfa_offset: 8
  DW_CFA_offset: r5 (ebp) at cfa-8
  DW_CFA_advance_loc: 2 to 00109910
  DW_CFA_def_cfa_register: r5 (ebp)
  DW_CFA_advance_loc: 4 to 00109914
  DW_CFA_offset: r3 (ebx) at cfa-12
  DW_CFA_advance_loc2: 273 to 00109a25
  DW_CFA_restore: r5 (ebp)
  DW_CFA_restore: r3 (ebx)
  DW_CFA_def_cfa: r4 (esp) ofs 4

000010f8 0000001c 000010fc FDE cie=00000000 pc=00109a26..00109a82
  DW_CFA_advance_loc: 5 to 00109a2b
  DW_CFA_def_cfa_offset: 8
  DW_CFA_offset: r5 (ebp) at cfa-8
  DW_CFA_advance_loc: 2 to 00109a2d
  DW_CFA_def_cfa_register: r5 (ebp)
  DW_CFA_advance_loc1: 84 to 00109a81
  DW_CFA_restore: r5 (ebp)
  DW_CFA_def_cfa: r4 (esp) ofs 4
  DW_CFA_nop

00001118 0000001c 0000111c FDE cie=00000000 pc=00109a82..00109abc
  DW_CFA_advance_loc: 5 to 00109a87
  DW_CFA_def_cfa_offset: 8
  DW_CFA_offset: r5 (ebp) at cfa-8
  DW_CFA_advance_loc: 2 to 00109a89
  DW_CFA_def_cfa_register: r5 (ebp)
  DW_CFA_advance_loc: 50 to 00109abb
  DW_CFA_restore: r5 (ebp)
  DW_CFA_def_cfa: r4 (esp) ofs 4
  DW_CFA_nop
  DW_CFA_nop

00001138 0000001c 0000113c FDE cie=00000000 pc=00109abc..00109cf7
  DW_CFA_advance_loc: 5 to 00109ac1
  DW_CFA_def_cfa_offset: 8
  DW_CFA_offset: r5 (ebp) at cfa-8
  DW_CFA_advance_loc: 2 to 00109ac3
  DW_CFA_def_cfa_register: r5 (ebp)
  DW_CFA_advance_loc2: 563 to 00109cf6
  DW_CFA_restore: r5 (ebp)
  DW_CFA_def_cfa: r4 (esp) ofs 4

00001158 0000001c 0000115c FDE cie=00000000 pc=00109cf7..00109d0f
  DW_CFA_advance_loc: 1 to 00109cf8
  DW_CFA_def_cfa_offset: 8
  DW_CFA_offset: r5 (ebp) at cfa-8
  DW_CFA_advance_loc: 2 to 00109cfa
  DW_CFA_def_cfa_register: r5 (ebp)
  DW_CFA_advance_loc: 20 to 00109d0e
  DW_CFA_restore: r5 (ebp)
  DW_CFA_def_cfa: r4 (esp) ofs 4
  DW_CFA_nop
  DW_CFA_nop

00001178 0000001c 0000117c FDE cie=00000000 pc=00109d0f..00109d2b
  DW_CFA_advance_loc: 1 to 00109d10
  DW_CFA_def_cfa_offset: 8
  DW_CFA_offset: r5 (ebp) at cfa-8
  DW_CFA_advance_loc: 2 to 00109d12
  DW_CFA_def_cfa_register: r5 (ebp)
  DW_CFA_advance_loc: 24 to 00109d2a
  DW_CFA_restore: r5 (ebp)
  DW_CFA_def_cfa: r4 (esp) ofs 4
  DW_CFA_nop
  DW_CFA_nop

00001198 00000020 0000119c FDE cie=00000000 pc=00109d2b..00109db0
  DW_CFA_advance_loc: 5 to 00109d30
  DW_CFA_def_cfa_offset: 8
  DW_CFA_offset: r5 (ebp) at cfa-8
  DW_CFA_advance_loc: 2 to 00109d32
  DW_CFA_def_cfa_register: r5 (ebp)
  DW_CFA_advance_loc: 4 to 00109d36
  DW_CFA_offset: r3 (ebx) at cfa-12
  DW_CFA_advance_loc1: 121 to 00109daf
  DW_CFA_restore: r5 (ebp)
  DW_CFA_restore: r3 (ebx)
  DW_CFA_def_cfa: r4 (esp) ofs 4
  DW_CFA_nop

000011bc 0000001c 000011c0 FDE cie=00000000 pc=00109db0..00109de7
  DW_CFA_advance_loc: 5 to 00109db5
  DW_CFA_def_cfa_offset: 8
  DW_CFA_offset: r5 (ebp) at cfa-8
  DW_CFA_advance_loc: 2 to 00109db7
  DW_CFA_def_cfa_register: r5 (ebp)
  DW_CFA_advance_loc: 47 to 00109de6
  DW_CFA_restore: r5 (ebp)
  DW_CFA_def_cfa: r4 (esp) ofs 4
  DW_CFA_nop
  DW_CFA_nop

000011dc 0000001c 000011e0 FDE cie=00000000 pc=00109de7..00109e21
  DW_CFA_advance_loc: 5 to 00109dec
  DW_CFA_def_cfa_offset: 8
  DW_CFA_offset: r5 (ebp) at cfa-8
  DW_CFA_advance_loc: 2 to 00109dee
  DW_CFA_def_cfa_register: r5 (ebp)
  DW_CFA_advance_loc: 50 to 00109e20
  DW_CFA_restore: r5 (ebp)
  DW_CFA_def_cfa: r4 (esp) ofs 4
  DW_CFA_nop
  DW_CFA_nop

000011fc 0000001c 00001200 FDE cie=00000000 pc=00109e21..00109e5b
  DW_CFA_advance_loc: 5 to 00109e26
  DW_CFA_def_cfa_offset: 8
  DW_CFA_offset: r5 (ebp) at cfa-8
  DW_CFA_advance_loc: 2 to 00109e28
  DW_CFA_def_cfa_register: r5 (ebp)
  DW_CFA_advance_loc: 50 to 00109e5a
  DW_CFA_restore: r5 (ebp)
  DW_CFA_def_cfa: r4 (esp) ofs 4
  DW_CFA_nop
  DW_CFA_nop

0000121c 0000001c 00001220 FDE cie=00000000 pc=00109e5b..00109e95
  DW_CFA_advance_loc: 5 to 00109e60
  DW_CFA_def_cfa_offset: 8
  DW_CFA_offset: r5 (ebp) at cfa-8
  DW_CFA_advance_loc: 2 to 00109e62
  DW_CFA_def_cfa_register: r5 (ebp)
  DW_CFA_advance_loc: 50 to 00109e94
  DW_CFA_restore: r5 (ebp)
  DW_CFA_def_cfa: r4 (esp) ofs 4
  DW_CFA_nop
  DW_CFA_nop

0000123c 0000001c 00001240 FDE cie=00000000 pc=00109e95..00109ecf
  DW_CFA_advance_loc: 5 to 00109e9a
  DW_CFA_def_cfa_offset: 8
  DW_CFA_offset: r5 (ebp) at cfa-8
  DW_CFA_advance_loc: 2 to 00109e9c
  DW_CFA_def_cfa_register: r5 (ebp)
  DW_CFA_advance_loc: 50 to 00109ece
  DW_CFA_restore: r5 (ebp)
  DW_CFA_def_cfa: r4 (esp) ofs 4
  DW_CFA_nop
  DW_CFA_nop

0000125c 0000001c 00001260 FDE cie=00000000 pc=00109ecf..00109f06
  DW_CFA_advance_loc: 5 to 00109ed4
  DW_CFA_def_cfa_offset: 8
  DW_CFA_offset: r5 (ebp) at cfa-8
  DW_CFA_advance_loc: 2 to 00109ed6
  DW_CFA_def_cfa_register: r5 (ebp)
  DW_CFA_advance_loc: 47 to 00109f05
  DW_CFA_restore: r5 (ebp)
  DW_CFA_def_cfa: r4 (esp) ofs 4
  DW_CFA_nop
  DW_CFA_nop

0000127c 0000001c 00001280 FDE cie=00000000 pc=00109f06..00109f40
  DW_CFA_advance_loc: 5 to 00109f0b
  DW_CFA_def_cfa_offset: 8
  DW_CFA_offset: r5 (ebp) at cfa-8
  DW_CFA_advance_loc: 2 to 00109f0d
  DW_CFA_def_cfa_register: r5 (ebp)
  DW_CFA_advance_loc: 50 to 00109f3f
  DW_CFA_restore: r5 (ebp)
  DW_CFA_def_cfa: r4 (esp) ofs 4
  DW_CFA_nop
  DW_CFA_nop

0000129c 0000001c 000012a0 FDE cie=00000000 pc=00109f40..00109f73
  DW_CFA_advance_loc: 5 to 00109f45
  DW_CFA_def_cfa_offset: 8
  DW_CFA_offset: r5 (ebp) at cfa-8
  DW_CFA_advance_loc: 2 to 00109f47
  DW_CFA_def_cfa_register: r5 (ebp)
  DW_CFA_advance_loc: 43 to 00109f72
  DW_CFA_restore: r5 (ebp)
  DW_CFA_def_cfa: r4 (esp) ofs 4
  DW_CFA_nop
  DW_CFA_nop

000012bc 0000001c 000012c0 FDE cie=00000000 pc=00109f73..00109fa6
  DW_CFA_advance_loc: 5 to 00109f78
  DW_CFA_def_cfa_offset: 8
  DW_CFA_offset: r5 (ebp) at cfa-8
  DW_CFA_advance_loc: 2 to 00109f7a
  DW_CFA_def_cfa_register: r5 (ebp)
  DW_CFA_advance_loc: 43 to 00109fa5
  DW_CFA_restore: r5 (ebp)
  DW_CFA_def_cfa: r4 (esp) ofs 4
  DW_CFA_nop
  DW_CFA_nop

000012dc 0000001c 000012e0 FDE cie=00000000 pc=00109fa6..00109fd9
  DW_CFA_advance_loc: 5 to 00109fab
  DW_CFA_def_cfa_offset: 8
  DW_CFA_offset: r5 (ebp) at cfa-8
  DW_CFA_advance_loc: 2 to 00109fad
  DW_CFA_def_cfa_register: r5 (ebp)
  DW_CFA_advance_loc: 43 to 00109fd8
  DW_CFA_restore: r5 (ebp)
  DW_CFA_def_cfa: r4 (esp) ofs 4
  DW_CFA_nop
  DW_CFA_nop

000012fc 0000001c 00001300 FDE cie=00000000 pc=00109fd9..0010a00c
  DW_CFA_advance_loc: 5 to 00109fde
  DW_CFA_def_cfa_offset: 8
  DW_CFA_offset: r5 (ebp) at cfa-8
  DW_CFA_advance_loc: 2 to 00109fe0
  DW_CFA_def_cfa_register: r5 (ebp)
  DW_CFA_advance_loc: 43 to 0010a00b
  DW_CFA_restore: r5 (ebp)
  DW_CFA_def_cfa: r4 (esp) ofs 4
  DW_CFA_nop
  DW_CFA_nop

0000131c 0000001c 00001320 FDE cie=00000000 pc=0010a00c..0010a03f
  DW_CFA_advance_loc: 5 to 0010a011
  DW_CFA_def_cfa_offset: 8
  DW_CFA_offset: r5 (ebp) at cfa-8
  DW_CFA_advance_loc: 2 to 0010a013
  DW_CFA_def_cfa_register: r5 (ebp)
  DW_CFA_advance_loc: 43 to 0010a03e
  DW_CFA_restore: r5 (ebp)
  DW_CFA_def_cfa: r4 (esp) ofs 4
  DW_CFA_nop
  DW_CFA_nop

0000133c 0000001c 00001340 FDE cie=00000000 pc=0010a03f..0010a072
  DW_CFA_advance_loc: 5 to 0010a044
  DW_CFA_def_cfa_offset: 8
  DW_CFA_offset: r5 (ebp) at cfa-8
  DW_CFA_advance_loc: 2 to 0010a046
  DW_CFA_def_cfa_register: r5 (ebp)
  DW_CFA_advance_loc: 43 to 0010a071
  DW_CFA_restore: r5 (ebp)
  DW_CFA_def_cfa: r4 (esp) ofs 4
  DW_CFA_nop
  DW_CFA_nop

0000135c 0000001c 00001360 FDE cie=00000000 pc=0010a072..0010a080
  DW_CFA_advance_loc: 5 to 0010a077
  DW_CFA_def_cfa_offset: 8
  DW_CFA_offset: r5 (ebp) at cfa-8
  DW_CFA_advance_loc: 2 to 0010a079
  DW_CFA_def_cfa_register: r5 (ebp)
  DW_CFA_advance_loc: 6 to 0010a07f
  DW_CFA_restore: r5 (ebp)
  DW_CFA_def_cfa: r4 (esp) ofs 4
  DW_CFA_nop
  DW_CFA_nop

0000137c 0000001c 00001380 FDE cie=00000000 pc=0010a080..0010a09a
  DW_CFA_advance_loc: 5 to 0010a085
  DW_CFA_def_cfa_offset: 8
  DW_CFA_offset: r5 (ebp) at cfa-8
  DW_CFA_advance_loc: 2 to 0010a087
  DW_CFA_def_cfa_register: r5 (ebp)
  DW_CFA_advance_loc: 18 to 0010a099
  DW_CFA_restore: r5 (ebp)
  DW_CFA_def_cfa: r4 (esp) ofs 4
  DW_CFA_nop
  DW_CFA_nop

0000139c 0000001c 000013a0 FDE cie=00000000 pc=0010a09a..0010a1bf
  DW_CFA_advance_loc: 5 to 0010a09f
  DW_CFA_def_cfa_offset: 8
  DW_CFA_offset: r5 (ebp) at cfa-8
  DW_CFA_advance_loc: 2 to 0010a0a1
  DW_CFA_def_cfa_register: r5 (ebp)
  DW_CFA_advance_loc2: 285 to 0010a1be
  DW_CFA_restore: r5 (ebp)
  DW_CFA_def_cfa: r4 (esp) ofs 4

000013bc 0000001c 000013c0 FDE cie=00000000 pc=0010a1bf..0010a287
  DW_CFA_advance_loc: 5 to 0010a1c4
  DW_CFA_def_cfa_offset: 8
  DW_CFA_offset: r5 (ebp) at cfa-8
  DW_CFA_advance_loc: 2 to 0010a1c6
  DW_CFA_def_cfa_register: r5 (ebp)
  DW_CFA_advance_loc1: 192 to 0010a286
  DW_CFA_restore: r5 (ebp)
  DW_CFA_def_cfa: r4 (esp) ofs 4
  DW_CFA_nop

000013dc 0000001c 000013e0 FDE cie=00000000 pc=0010a287..0010a2c2
  DW_CFA_advance_loc: 5 to 0010a28c
  DW_CFA_def_cfa_offset: 8
  DW_CFA_offset: r5 (ebp) at cfa-8
  DW_CFA_advance_loc: 2 to 0010a28e
  DW_CFA_def_cfa_register: r5 (ebp)
  DW_CFA_advance_loc: 51 to 0010a2c1
  DW_CFA_restore: r5 (ebp)
  DW_CFA_def_cfa: r4 (esp) ofs 4
  DW_CFA_nop
  DW_CFA_nop

000013fc 0000001c 00001400 FDE cie=00000000 pc=0010a2c2..0010a30f
  DW_CFA_advance_loc: 5 to 0010a2c7
  DW_CFA_def_cfa_offset: 8
  DW_CFA_offset: r5 (ebp) at cfa-8
  DW_CFA_advance_loc: 2 to 0010a2c9
  DW_CFA_def_cfa_register: r5 (ebp)
  DW_CFA_advance_loc1: 69 to 0010a30e
  DW_CFA_restore: r5 (ebp)
  DW_CFA_def_cfa: r4 (esp) ofs 4
  DW_CFA_nop

0000141c 0000001c 00001420 FDE cie=00000000 pc=0010a30f..0010a31e
  DW_CFA_advance_loc: 5 to 0010a314
  DW_CFA_def_cfa_offset: 8
  DW_CFA_offset: r5 (ebp) at cfa-8
  DW_CFA_advance_loc: 2 to 0010a316
  DW_CFA_def_cfa_register: r5 (ebp)
  DW_CFA_advance_loc: 7 to 0010a31d
  DW_CFA_restore: r5 (ebp)
  DW_CFA_def_cfa: r4 (esp) ofs 4
  DW_CFA_nop
  DW_CFA_nop

0000143c 0000001c 00001440 FDE cie=00000000 pc=0010a31e..0010a356
  DW_CFA_advance_loc: 5 to 0010a323
  DW_CFA_def_cfa_offset: 8
  DW_CFA_offset: r5 (ebp) at cfa-8
  DW_CFA_advance_loc: 2 to 0010a325
  DW_CFA_def_cfa_register: r5 (ebp)
  DW_CFA_advance_loc: 48 to 0010a355
  DW_CFA_restore: r5 (ebp)
  DW_CFA_def_cfa: r4 (esp) ofs 4
  DW_CFA_nop
  DW_CFA_nop

0000145c 0000001c 00001460 FDE cie=00000000 pc=0010a356..0010a376
  DW_CFA_advance_loc: 5 to 0010a35b
  DW_CFA_def_cfa_offset: 8
  DW_CFA_offset: r5 (ebp) at cfa-8
  DW_CFA_advance_loc: 2 to 0010a35d
  DW_CFA_def_cfa_register: r5 (ebp)
  DW_CFA_advance_loc: 24 to 0010a375
  DW_CFA_restore: r5 (ebp)
  DW_CFA_def_cfa: r4 (esp) ofs 4
  DW_CFA_nop
  DW_CFA_nop

0000147c 0000001c 00001480 FDE cie=00000000 pc=0010a376..0010a396
  DW_CFA_advance_loc: 5 to 0010a37b
  DW_CFA_def_cfa_offset: 8
  DW_CFA_offset: r5 (ebp) at cfa-8
  DW_CFA_advance_loc: 2 to 0010a37d
  DW_CFA_def_cfa_register: r5 (ebp)
  DW_CFA_advance_loc: 24 to 0010a395
  DW_CFA_restore: r5 (ebp)
  DW_CFA_def_cfa: r4 (esp) ofs 4
  DW_CFA_nop
  DW_CFA_nop

0000149c 0000001c 000014a0 FDE cie=00000000 pc=0010a396..0010a408
  DW_CFA_advance_loc: 5 to 0010a39b
  DW_CFA_def_cfa_offset: 8
  DW_CFA_offset: r5 (ebp) at cfa-8
  DW_CFA_advance_loc: 2 to 0010a39d
  DW_CFA_def_cfa_register: r5 (ebp)
  DW_CFA_advance_loc1: 106 to 0010a407
  DW_CFA_restore: r5 (ebp)
  DW_CFA_def_cfa: r4 (esp) ofs 4
  DW_CFA_nop

000014bc 0000001c 000014c0 FDE cie=00000000 pc=0010a408..0010a459
  DW_CFA_advance_loc: 5 to 0010a40d
  DW_CFA_def_cfa_offset: 8
  DW_CFA_offset: r5 (ebp) at cfa-8
  DW_CFA_advance_loc: 2 to 0010a40f
  DW_CFA_def_cfa_register: r5 (ebp)
  DW_CFA_advance_loc1: 73 to 0010a458
  DW_CFA_restore: r5 (ebp)
  DW_CFA_def_cfa: r4 (esp) ofs 4
  DW_CFA_nop

000014dc 0000001c 000014e0 FDE cie=00000000 pc=0010a459..0010a478
  DW_CFA_advance_loc: 5 to 0010a45e
  DW_CFA_def_cfa_offset: 8
  DW_CFA_offset: r5 (ebp) at cfa-8
  DW_CFA_advance_loc: 2 to 0010a460
  DW_CFA_def_cfa_register: r5 (ebp)
  DW_CFA_advance_loc: 23 to 0010a477
  DW_CFA_restore: r5 (ebp)
  DW_CFA_def_cfa: r4 (esp) ofs 4
  DW_CFA_nop
  DW_CFA_nop

000014fc 0000002c 00001500 FDE cie=00000000 pc=0010a478..0010a5d6
  DW_CFA_advance_loc: 5 to 0010a47d
  DW_CFA_def_cfa_offset: 8
  DW_CFA_offset: r5 (ebp) at cfa-8
  DW_CFA_advance_loc: 2 to 0010a47f
  DW_CFA_def_cfa_register: r5 (ebp)
  DW_CFA_advance_loc: 6 to 0010a485
  DW_CFA_offset: r7 (edi) at cfa-12
  DW_CFA_offset: r6 (esi) at cfa-16
  DW_CFA_offset: r3 (ebx) at cfa-20
  DW_CFA_advance_loc2: 333 to 0010a5d2
  DW_CFA_restore: r3 (ebx)
  DW_CFA_advance_loc: 1 to 0010a5d3
  DW_CFA_restore: r6 (esi)
  DW_CFA_advance_loc: 1 to 0010a5d4
  DW_CFA_restore: r7 (edi)
  DW_CFA_advance_loc: 1 to 0010a5d5
  DW_CFA_restore: r5 (ebp)
  DW_CFA_def_cfa: r4 (esp) ofs 4
  DW_CFA_nop
  DW_CFA_nop
  DW_CFA_nop

0000152c 0000001c 00001530 FDE cie=00000000 pc=0010a5d6..0010a6b0
  DW_CFA_advance_loc: 5 to 0010a5db
  DW_CFA_def_cfa_offset: 8
  DW_CFA_offset: r5 (ebp) at cfa-8
  DW_CFA_advance_loc: 2 to 0010a5dd
  DW_CFA_def_cfa_register: r5 (ebp)
  DW_CFA_advance_loc1: 210 to 0010a6af
  DW_CFA_restore: r5 (ebp)
  DW_CFA_def_cfa: r4 (esp) ofs 4
  DW_CFA_nop

0000154c 0000001c 00001550 FDE cie=00000000 pc=0010a6b0..0010a6cf
  DW_CFA_advance_loc: 5 to 0010a6b5
  DW_CFA_def_cfa_offset: 8
  DW_CFA_offset: r5 (ebp) at cfa-8
  DW_CFA_advance_loc: 2 to 0010a6b7
  DW_CFA_def_cfa_register: r5 (ebp)
  DW_CFA_advance_loc: 23 to 0010a6ce
  DW_CFA_restore: r5 (ebp)
  DW_CFA_def_cfa: r4 (esp) ofs 4
  DW_CFA_nop
  DW_CFA_nop

0000156c 0000001c 00001570 FDE cie=00000000 pc=0010a6cf..0010a6f0
  DW_CFA_advance_loc: 1 to 0010a6d0
  DW_CFA_def_cfa_offset: 8
  DW_CFA_offset: r5 (ebp) at cfa-8
  DW_CFA_advance_loc: 2 to 0010a6d2
  DW_CFA_def_cfa_register: r5 (ebp)
  DW_CFA_advance_loc: 29 to 0010a6ef
  DW_CFA_restore: r5 (ebp)
  DW_CFA_def_cfa: r4 (esp) ofs 4
  DW_CFA_nop
  DW_CFA_nop

0000158c 0000001c 00001590 FDE cie=00000000 pc=0010a6f0..0010a707
  DW_CFA_advance_loc: 5 to 0010a6f5
  DW_CFA_def_cfa_offset: 8
  DW_CFA_offset: r5 (ebp) at cfa-8
  DW_CFA_advance_loc: 2 to 0010a6f7
  DW_CFA_def_cfa_register: r5 (ebp)
  DW_CFA_advance_loc: 15 to 0010a706
  DW_CFA_restore: r5 (ebp)
  DW_CFA_def_cfa: r4 (esp) ofs 4
  DW_CFA_nop
  DW_CFA_nop

000015ac 0000001c 000015b0 FDE cie=00000000 pc=0010a707..0010a76f
  DW_CFA_advance_loc: 5 to 0010a70c
  DW_CFA_def_cfa_offset: 8
  DW_CFA_offset: r5 (ebp) at cfa-8
  DW_CFA_advance_loc: 2 to 0010a70e
  DW_CFA_def_cfa_register: r5 (ebp)
  DW_CFA_advance_loc1: 96 to 0010a76e
  DW_CFA_restore: r5 (ebp)
  DW_CFA_def_cfa: r4 (esp) ofs 4
  DW_CFA_nop

000015cc 0000001c 000015d0 FDE cie=00000000 pc=0010a76f..0010a792
  DW_CFA_advance_loc: 5 to 0010a774
  DW_CFA_def_cfa_offset: 8
  DW_CFA_offset: r5 (ebp) at cfa-8
  DW_CFA_advance_loc: 2 to 0010a776
  DW_CFA_def_cfa_register: r5 (ebp)
  DW_CFA_advance_loc: 27 to 0010a791
  DW_CFA_restore: r5 (ebp)
  DW_CFA_def_cfa: r4 (esp) ofs 4
  DW_CFA_nop
  DW_CFA_nop

000015ec 0000001c 000015f0 FDE cie=00000000 pc=0010a792..0010a8f6
  DW_CFA_advance_loc: 5 to 0010a797
  DW_CFA_def_cfa_offset: 8
  DW_CFA_offset: r5 (ebp) at cfa-8
  DW_CFA_advance_loc: 2 to 0010a799
  DW_CFA_def_cfa_register: r5 (ebp)
  DW_CFA_advance_loc2: 348 to 0010a8f5
  DW_CFA_restore: r5 (ebp)
  DW_CFA_def_cfa: r4 (esp) ofs 4

0000160c 0000001c 00001610 FDE cie=00000000 pc=0010a8f6..0010a913
  DW_CFA_advance_loc: 1 to 0010a8f7
  DW_CFA_def_cfa_offset: 8
  DW_CFA_offset: r5 (ebp) at cfa-8
  DW_CFA_advance_loc: 2 to 0010a8f9
  DW_CFA_def_cfa_register: r5 (ebp)
  DW_CFA_advance_loc: 25 to 0010a912
  DW_CFA_restore: r5 (ebp)
  DW_CFA_def_cfa: r4 (esp) ofs 4
  DW_CFA_nop
  DW_CFA_nop

0000162c 0000001c 00001630 FDE cie=00000000 pc=0010a913..0010a952
  DW_CFA_advance_loc: 5 to 0010a918
  DW_CFA_def_cfa_offset: 8
  DW_CFA_offset: r5 (ebp) at cfa-8
  DW_CFA_advance_loc: 2 to 0010a91a
  DW_CFA_def_cfa_register: r5 (ebp)
  DW_CFA_advance_loc: 55 to 0010a951
  DW_CFA_restore: r5 (ebp)
  DW_CFA_def_cfa: r4 (esp) ofs 4
  DW_CFA_nop
  DW_CFA_nop

0000164c 0000001c 00001650 FDE cie=00000000 pc=0010a952..0010a991
  DW_CFA_advance_loc: 5 to 0010a957
  DW_CFA_def_cfa_offset: 8
  DW_CFA_offset: r5 (ebp) at cfa-8
  DW_CFA_advance_loc: 2 to 0010a959
  DW_CFA_def_cfa_register: r5 (ebp)
  DW_CFA_advance_loc: 55 to 0010a990
  DW_CFA_restore: r5 (ebp)
  DW_CFA_def_cfa: r4 (esp) ofs 4
  DW_CFA_nop
  DW_CFA_nop

0000166c 0000001c 00001670 FDE cie=00000000 pc=0010a991..0010aa59
  DW_CFA_advance_loc: 5 to 0010a996
  DW_CFA_def_cfa_offset: 8
  DW_CFA_offset: r5 (ebp) at cfa-8
  DW_CFA_advance_loc: 2 to 0010a998
  DW_CFA_def_cfa_register: r5 (ebp)
  DW_CFA_advance_loc1: 192 to 0010aa58
  DW_CFA_restore: r5 (ebp)
  DW_CFA_def_cfa: r4 (esp) ofs 4
  DW_CFA_nop

0000168c 0000001c 00001690 FDE cie=00000000 pc=0010aa59..0010aa6b
  DW_CFA_advance_loc: 5 to 0010aa5e
  DW_CFA_def_cfa_offset: 8
  DW_CFA_offset: r5 (ebp) at cfa-8
  DW_CFA_advance_loc: 2 to 0010aa60
  DW_CFA_def_cfa_register: r5 (ebp)
  DW_CFA_advance_loc: 10 to 0010aa6a
  DW_CFA_restore: r5 (ebp)
  DW_CFA_def_cfa: r4 (esp) ofs 4
  DW_CFA_nop
  DW_CFA_nop

000016ac 0000001c 000016b0 FDE cie=00000000 pc=0010aa6b..0010aa7d
  DW_CFA_advance_loc: 5 to 0010aa70
  DW_CFA_def_cfa_offset: 8
  DW_CFA_offset: r5 (ebp) at cfa-8
  DW_CFA_advance_loc: 2 to 0010aa72
  DW_CFA_def_cfa_register: r5 (ebp)
  DW_CFA_advance_loc: 10 to 0010aa7c
  DW_CFA_restore: r5 (ebp)
  DW_CFA_def_cfa: r4 (esp) ofs 4
  DW_CFA_nop
  DW_CFA_nop

000016cc 0000001c 000016d0 FDE cie=00000000 pc=0010aa7d..0010aa8f
  DW_CFA_advance_loc: 5 to 0010aa82
  DW_CFA_def_cfa_offset: 8
  DW_CFA_offset: r5 (ebp) at cfa-8
  DW_CFA_advance_loc: 2 to 0010aa84
  DW_CFA_def_cfa_register: r5 (ebp)
  DW_CFA_advance_loc: 10 to 0010aa8e
  DW_CFA_restore: r5 (ebp)
  DW_CFA_def_cfa: r4 (esp) ofs 4
  DW_CFA_nop
  DW_CFA_nop

000016ec 0000001c 000016f0 FDE cie=00000000 pc=0010aa8f..0010aabd
  DW_CFA_advance_loc: 5 to 0010aa94
  DW_CFA_def_cfa_offset: 8
  DW_CFA_offset: r5 (ebp) at cfa-8
  DW_CFA_advance_loc: 2 to 0010aa96
  DW_CFA_def_cfa_register: r5 (ebp)
  DW_CFA_advance_loc: 38 to 0010aabc
  DW_CFA_restore: r5 (ebp)
  DW_CFA_def_cfa: r4 (esp) ofs 4
  DW_CFA_nop
  DW_CFA_nop

0000170c 0000001c 00001710 FDE cie=00000000 pc=0010aabd..0010aae7
  DW_CFA_advance_loc: 5 to 0010aac2
  DW_CFA_def_cfa_offset: 8
  DW_CFA_offset: r5 (ebp) at cfa-8
  DW_CFA_advance_loc: 2 to 0010aac4
  DW_CFA_def_cfa_register: r5 (ebp)
  DW_CFA_advance_loc: 34 to 0010aae6
  DW_CFA_restore: r5 (ebp)
  DW_CFA_def_cfa: r4 (esp) ofs 4
  DW_CFA_nop
  DW_CFA_nop

0000172c 0000001c 00001730 FDE cie=00000000 pc=0010aae7..0010ab06
  DW_CFA_advance_loc: 5 to 0010aaec
  DW_CFA_def_cfa_offset: 8
  DW_CFA_offset: r5 (ebp) at cfa-8
  DW_CFA_advance_loc: 2 to 0010aaee
  DW_CFA_def_cfa_register: r5 (ebp)
  DW_CFA_advance_loc: 23 to 0010ab05
  DW_CFA_restore: r5 (ebp)
  DW_CFA_def_cfa: r4 (esp) ofs 4
  DW_CFA_nop
  DW_CFA_nop

0000174c 0000001c 00001750 FDE cie=00000000 pc=0010ab06..0010ab6f
  DW_CFA_advance_loc: 5 to 0010ab0b
  DW_CFA_def_cfa_offset: 8
  DW_CFA_offset: r5 (ebp) at cfa-8
  DW_CFA_advance_loc: 2 to 0010ab0d
  DW_CFA_def_cfa_register: r5 (ebp)
  DW_CFA_advance_loc1: 97 to 0010ab6e
  DW_CFA_restore: r5 (ebp)
  DW_CFA_def_cfa: r4 (esp) ofs 4
  DW_CFA_nop

0000176c 0000001c 00001770 FDE cie=00000000 pc=0010ab6f..0010abe0
  DW_CFA_advance_loc: 5 to 0010ab74
  DW_CFA_def_cfa_offset: 8
  DW_CFA_offset: r5 (ebp) at cfa-8
  DW_CFA_advance_loc: 2 to 0010ab76
  DW_CFA_def_cfa_register: r5 (ebp)
  DW_CFA_advance_loc1: 105 to 0010abdf
  DW_CFA_restore: r5 (ebp)
  DW_CFA_def_cfa: r4 (esp) ofs 4
  DW_CFA_nop

0000178c 0000001c 00001790 FDE cie=00000000 pc=0010abe0..0010ac34
  DW_CFA_advance_loc: 5 to 0010abe5
  DW_CFA_def_cfa_offset: 8
  DW_CFA_offset: r5 (ebp) at cfa-8
  DW_CFA_advance_loc: 2 to 0010abe7
  DW_CFA_def_cfa_register: r5 (ebp)
  DW_CFA_advance_loc1: 76 to 0010ac33
  DW_CFA_restore: r5 (ebp)
  DW_CFA_def_cfa: r4 (esp) ofs 4
  DW_CFA_nop

000017ac 0000001c 000017b0 FDE cie=00000000 pc=0010ac34..0010ac43
  DW_CFA_advance_loc: 5 to 0010ac39
  DW_CFA_def_cfa_offset: 8
  DW_CFA_offset: r5 (ebp) at cfa-8
  DW_CFA_advance_loc: 2 to 0010ac3b
  DW_CFA_def_cfa_register: r5 (ebp)
  DW_CFA_advance_loc: 7 to 0010ac42
  DW_CFA_restore: r5 (ebp)
  DW_CFA_def_cfa: r4 (esp) ofs 4
  DW_CFA_nop
  DW_CFA_nop

000017cc 0000001c 000017d0 FDE cie=00000000 pc=0010ac43..0010ad48
  DW_CFA_advance_loc: 5 to 0010ac48
  DW_CFA_def_cfa_offset: 8
  DW_CFA_offset: r5 (ebp) at cfa-8
  DW_CFA_advance_loc: 2 to 0010ac4a
  DW_CFA_def_cfa_register: r5 (ebp)
  DW_CFA_advance_loc1: 253 to 0010ad47
  DW_CFA_restore: r5 (ebp)
  DW_CFA_def_cfa: r4 (esp) ofs 4
  DW_CFA_nop

000017ec 0000001c 000017f0 FDE cie=00000000 pc=0010ad48..0010ae3a
  DW_CFA_advance_loc: 5 to 0010ad4d
  DW_CFA_def_cfa_offset: 8
  DW_CFA_offset: r5 (ebp) at cfa-8
  DW_CFA_advance_loc: 2 to 0010ad4f
  DW_CFA_def_cfa_register: r5 (ebp)
  DW_CFA_advance_loc1: 234 to 0010ae39
  DW_CFA_restore: r5 (ebp)
  DW_CFA_def_cfa: r4 (esp) ofs 4
  DW_CFA_nop

0000180c 0000001c 00001810 FDE cie=00000000 pc=0010ae3a..0010aef0
  DW_CFA_advance_loc: 5 to 0010ae3f
  DW_CFA_def_cfa_offset: 8
  DW_CFA_offset: r5 (ebp) at cfa-8
  DW_CFA_advance_loc: 2 to 0010ae41
  DW_CFA_def_cfa_register: r5 (ebp)
  DW_CFA_advance_loc1: 174 to 0010aeef
  DW_CFA_restore: r5 (ebp)
  DW_CFA_def_cfa: r4 (esp) ofs 4
  DW_CFA_nop

0000182c 0000001c 00001830 FDE cie=00000000 pc=0010aef0..0010af20
  DW_CFA_advance_loc: 5 to 0010aef5
  DW_CFA_def_cfa_offset: 8
  DW_CFA_offset: r5 (ebp) at cfa-8
  DW_CFA_advance_loc: 2 to 0010aef7
  DW_CFA_def_cfa_register: r5 (ebp)
  DW_CFA_advance_loc: 40 to 0010af1f
  DW_CFA_restore: r5 (ebp)
  DW_CFA_def_cfa: r4 (esp) ofs 4
  DW_CFA_nop
  DW_CFA_nop

0000184c 0000001c 00001850 FDE cie=00000000 pc=0010af20..0010afb8
  DW_CFA_advance_loc: 5 to 0010af25
  DW_CFA_def_cfa_offset: 8
  DW_CFA_offset: r5 (ebp) at cfa-8
  DW_CFA_advance_loc: 2 to 0010af27
  DW_CFA_def_cfa_register: r5 (ebp)
  DW_CFA_advance_loc1: 144 to 0010afb7
  DW_CFA_restore: r5 (ebp)
  DW_CFA_def_cfa: r4 (esp) ofs 4
  DW_CFA_nop

0000186c 0000001c 00001870 FDE cie=00000000 pc=0010afb8..0010affb
  DW_CFA_advance_loc: 5 to 0010afbd
  DW_CFA_def_cfa_offset: 8
  DW_CFA_offset: r5 (ebp) at cfa-8
  DW_CFA_advance_loc: 2 to 0010afbf
  DW_CFA_def_cfa_register: r5 (ebp)
  DW_CFA_advance_loc: 59 to 0010affa
  DW_CFA_restore: r5 (ebp)
  DW_CFA_def_cfa: r4 (esp) ofs 4
  DW_CFA_nop
  DW_CFA_nop

0000188c 00000018 00001890 FDE cie=00000000 pc=0010affb..0010b070
  DW_CFA_advance_loc: 5 to 0010b000
  DW_CFA_def_cfa_offset: 8
  DW_CFA_offset: r5 (ebp) at cfa-8
  DW_CFA_advance_loc: 2 to 0010b002
  DW_CFA_def_cfa_register: r5 (ebp)
  DW_CFA_nop
  DW_CFA_nop
  DW_CFA_nop

000018a8 0000001c 000018ac FDE cie=00000000 pc=0010b070..0010b08d
  DW_CFA_advance_loc: 5 to 0010b075
  DW_CFA_def_cfa_offset: 8
  DW_CFA_offset: r5 (ebp) at cfa-8
  DW_CFA_advance_loc: 2 to 0010b077
  DW_CFA_def_cfa_register: r5 (ebp)
  DW_CFA_advance_loc: 21 to 0010b08c
  DW_CFA_restore: r5 (ebp)
  DW_CFA_def_cfa: r4 (esp) ofs 4
  DW_CFA_nop
  DW_CFA_nop

000018c8 0000001c 000018cc FDE cie=00000000 pc=0010b08d..0010b260
  DW_CFA_advance_loc: 5 to 0010b092
  DW_CFA_def_cfa_offset: 8
  DW_CFA_offset: r5 (ebp) at cfa-8
  DW_CFA_advance_loc: 2 to 0010b094
  DW_CFA_def_cfa_register: r5 (ebp)
  DW_CFA_advance_loc2: 459 to 0010b25f
  DW_CFA_restore: r5 (ebp)
  DW_CFA_def_cfa: r4 (esp) ofs 4

000018e8 0000001c 000018ec FDE cie=00000000 pc=0010b260..0010b279
  DW_CFA_advance_loc: 5 to 0010b265
  DW_CFA_def_cfa_offset: 8
  DW_CFA_offset: r5 (ebp) at cfa-8
  DW_CFA_advance_loc: 2 to 0010b267
  DW_CFA_def_cfa_register: r5 (ebp)
  DW_CFA_advance_loc: 17 to 0010b278
  DW_CFA_restore: r5 (ebp)
  DW_CFA_def_cfa: r4 (esp) ofs 4
  DW_CFA_nop
  DW_CFA_nop

00001908 0000001c 0000190c FDE cie=00000000 pc=0010b27a..0010b29c
  DW_CFA_advance_loc: 5 to 0010b27f
  DW_CFA_def_cfa_offset: 8
  DW_CFA_offset: r5 (ebp) at cfa-8
  DW_CFA_advance_loc: 2 to 0010b281
  DW_CFA_def_cfa_register: r5 (ebp)
  DW_CFA_advance_loc: 24 to 0010b299
  DW_CFA_restore: r5 (ebp)
  DW_CFA_def_cfa: r4 (esp) ofs 4
  DW_CFA_nop
  DW_CFA_nop

00001928 0000001c 0000192c FDE cie=00000000 pc=0010b29c..0010b2b0
  DW_CFA_advance_loc: 5 to 0010b2a1
  DW_CFA_def_cfa_offset: 8
  DW_CFA_offset: r5 (ebp) at cfa-8
  DW_CFA_advance_loc: 2 to 0010b2a3
  DW_CFA_def_cfa_register: r5 (ebp)
  DW_CFA_advance_loc: 12 to 0010b2af
  DW_CFA_restore: r5 (ebp)
  DW_CFA_def_cfa: r4 (esp) ofs 4
  DW_CFA_nop
  DW_CFA_nop

00001948 0000001c 0000194c FDE cie=00000000 pc=0010b2b0..0010b2d7
  DW_CFA_advance_loc: 5 to 0010b2b5
  DW_CFA_def_cfa_offset: 8
  DW_CFA_offset: r5 (ebp) at cfa-8
  DW_CFA_advance_loc: 2 to 0010b2b7
  DW_CFA_def_cfa_register: r5 (ebp)
  DW_CFA_advance_loc: 31 to 0010b2d6
  DW_CFA_restore: r5 (ebp)
  DW_CFA_def_cfa: r4 (esp) ofs 4
  DW_CFA_nop
  DW_CFA_nop

00001968 0000001c 0000196c FDE cie=00000000 pc=0010b2d8..0010b31a
  DW_CFA_advance_loc: 5 to 0010b2dd
  DW_CFA_def_cfa_offset: 8
  DW_CFA_offset: r5 (ebp) at cfa-8
  DW_CFA_advance_loc: 2 to 0010b2df
  DW_CFA_def_cfa_register: r5 (ebp)
  DW_CFA_advance_loc: 58 to 0010b319
  DW_CFA_restore: r5 (ebp)
  DW_CFA_def_cfa: r4 (esp) ofs 4
  DW_CFA_nop
  DW_CFA_nop

00001988 0000001c 0000198c FDE cie=00000000 pc=0010b31a..0010b418
  DW_CFA_advance_loc: 5 to 0010b31f
  DW_CFA_def_cfa_offset: 8
  DW_CFA_offset: r5 (ebp) at cfa-8
  DW_CFA_advance_loc: 2 to 0010b321
  DW_CFA_def_cfa_register: r5 (ebp)
  DW_CFA_advance_loc1: 244 to 0010b415
  DW_CFA_restore: r5 (ebp)
  DW_CFA_def_cfa: r4 (esp) ofs 4
  DW_CFA_nop

000019a8 0000001c 000019ac FDE cie=00000000 pc=0010b418..0010b4ce
  DW_CFA_advance_loc: 5 to 0010b41d
  DW_CFA_def_cfa_offset: 8
  DW_CFA_offset: r5 (ebp) at cfa-8
  DW_CFA_advance_loc: 2 to 0010b41f
  DW_CFA_def_cfa_register: r5 (ebp)
  DW_CFA_advance_loc1: 172 to 0010b4cb
  DW_CFA_restore: r5 (ebp)
  DW_CFA_def_cfa: r4 (esp) ofs 4
  DW_CFA_nop

000019c8 0000001c 000019cc FDE cie=00000000 pc=0010b4ce..0010b4dd
  DW_CFA_advance_loc: 5 to 0010b4d3
  DW_CFA_def_cfa_offset: 8
  DW_CFA_offset: r5 (ebp) at cfa-8
  DW_CFA_advance_loc: 2 to 0010b4d5
  DW_CFA_def_cfa_register: r5 (ebp)
  DW_CFA_advance_loc: 7 to 0010b4dc
  DW_CFA_restore: r5 (ebp)
  DW_CFA_def_cfa: r4 (esp) ofs 4
  DW_CFA_nop
  DW_CFA_nop

000019e8 0000001c 000019ec FDE cie=00000000 pc=0010b4de..0010b596
  DW_CFA_advance_loc: 5 to 0010b4e3
  DW_CFA_def_cfa_offset: 8
  DW_CFA_offset: r5 (ebp) at cfa-8
  DW_CFA_advance_loc: 2 to 0010b4e5
  DW_CFA_def_cfa_register: r5 (ebp)
  DW_CFA_advance_loc1: 176 to 0010b595
  DW_CFA_restore: r5 (ebp)
  DW_CFA_def_cfa: r4 (esp) ofs 4
  DW_CFA_nop

00001a08 0000001c 00001a0c FDE cie=00000000 pc=0010b596..0010b5f1
  DW_CFA_advance_loc: 5 to 0010b59b
  DW_CFA_def_cfa_offset: 8
  DW_CFA_offset: r5 (ebp) at cfa-8
  DW_CFA_advance_loc: 2 to 0010b59d
  DW_CFA_def_cfa_register: r5 (ebp)
  DW_CFA_advance_loc1: 83 to 0010b5f0
  DW_CFA_restore: r5 (ebp)
  DW_CFA_def_cfa: r4 (esp) ofs 4
  DW_CFA_nop

00001a28 0000001c 00001a2c FDE cie=00000000 pc=0010b5f2..0010b600
  DW_CFA_advance_loc: 5 to 0010b5f7
  DW_CFA_def_cfa_offset: 8
  DW_CFA_offset: r5 (ebp) at cfa-8
  DW_CFA_advance_loc: 2 to 0010b5f9
  DW_CFA_def_cfa_register: r5 (ebp)
  DW_CFA_advance_loc: 6 to 0010b5ff
  DW_CFA_restore: r5 (ebp)
  DW_CFA_def_cfa: r4 (esp) ofs 4
  DW_CFA_nop
  DW_CFA_nop

00001a48 0000001c 00001a4c FDE cie=00000000 pc=0010eb56..0010eba3
  DW_CFA_advance_loc: 5 to 0010eb5b
  DW_CFA_def_cfa_offset: 8
  DW_CFA_offset: r5 (ebp) at cfa-8
  DW_CFA_advance_loc: 2 to 0010eb5d
  DW_CFA_def_cfa_register: r5 (ebp)
  DW_CFA_advance_loc1: 69 to 0010eba2
  DW_CFA_restore: r5 (ebp)
  DW_CFA_def_cfa: r4 (esp) ofs 4
  DW_CFA_nop

00001a68 0000001c 00001a6c FDE cie=00000000 pc=0010eba4..0010ebc8
  DW_CFA_advance_loc: 5 to 0010eba9
  DW_CFA_def_cfa_offset: 8
  DW_CFA_offset: r5 (ebp) at cfa-8
  DW_CFA_advance_loc: 2 to 0010ebab
  DW_CFA_def_cfa_register: r5 (ebp)
  DW_CFA_advance_loc: 28 to 0010ebc7
  DW_CFA_restore: r5 (ebp)
  DW_CFA_def_cfa: r4 (esp) ofs 4
  DW_CFA_nop
  DW_CFA_nop

00001a88 00000020 00001a8c FDE cie=00000000 pc=0010ebc8..0010ec3b
  DW_CFA_advance_loc: 5 to 0010ebcd
  DW_CFA_def_cfa_offset: 8
  DW_CFA_offset: r5 (ebp) at cfa-8
  DW_CFA_advance_loc: 2 to 0010ebcf
  DW_CFA_def_cfa_register: r5 (ebp)
  DW_CFA_advance_loc: 4 to 0010ebd3
  DW_CFA_offset: r3 (ebx) at cfa-12
  DW_CFA_advance_loc1: 103 to 0010ec3a
  DW_CFA_restore: r5 (ebp)
  DW_CFA_restore: r3 (ebx)
  DW_CFA_def_cfa: r4 (esp) ofs 4
  DW_CFA_nop

00001aac 0000001c 00001ab0 FDE cie=00000000 pc=0010ec3c..0010ec50
  DW_CFA_advance_loc: 5 to 0010ec41
  DW_CFA_def_cfa_offset: 8
  DW_CFA_offset: r5 (ebp) at cfa-8
  DW_CFA_advance_loc: 2 to 0010ec43
  DW_CFA_def_cfa_register: r5 (ebp)
  DW_CFA_advance_loc: 12 to 0010ec4f
  DW_CFA_restore: r5 (ebp)
  DW_CFA_def_cfa: r4 (esp) ofs 4
  DW_CFA_nop
  DW_CFA_nop

00001acc 0000001c 00001ad0 FDE cie=00000000 pc=0010b600..0010b638
  DW_CFA_advance_loc: 5 to 0010b605
  DW_CFA_def_cfa_offset: 8
  DW_CFA_offset: r5 (ebp) at cfa-8
  DW_CFA_advance_loc: 2 to 0010b607
  DW_CFA_def_cfa_register: r5 (ebp)
  DW_CFA_advance_loc: 48 to 0010b637
  DW_CFA_restore: r5 (ebp)
  DW_CFA_def_cfa: r4 (esp) ofs 4
  DW_CFA_nop
  DW_CFA_nop

00001aec 0000001c 00001af0 FDE cie=00000000 pc=0010b638..0010b6d9
  DW_CFA_advance_loc: 5 to 0010b63d
  DW_CFA_def_cfa_offset: 8
  DW_CFA_offset: r5 (ebp) at cfa-8
  DW_CFA_advance_loc: 2 to 0010b63f
  DW_CFA_def_cfa_register: r5 (ebp)
  DW_CFA_advance_loc1: 153 to 0010b6d8
  DW_CFA_restore: r5 (ebp)
  DW_CFA_def_cfa: r4 (esp) ofs 4
  DW_CFA_nop

00001b0c 0000001c 00001b10 FDE cie=00000000 pc=0010b6da..0010b704
  DW_CFA_advance_loc: 5 to 0010b6df
  DW_CFA_def_cfa_offset: 8
  DW_CFA_offset: r5 (ebp) at cfa-8
  DW_CFA_advance_loc: 2 to 0010b6e1
  DW_CFA_def_cfa_register: r5 (ebp)
  DW_CFA_advance_loc: 34 to 0010b703
  DW_CFA_restore: r5 (ebp)
  DW_CFA_def_cfa: r4 (esp) ofs 4
  DW_CFA_nop
  DW_CFA_nop

00001b2c 0000001c 00001b30 FDE cie=00000000 pc=0010b704..0010b801
  DW_CFA_advance_loc: 5 to 0010b709
  DW_CFA_def_cfa_offset: 8
  DW_CFA_offset: r5 (ebp) at cfa-8
  DW_CFA_advance_loc: 2 to 0010b70b
  DW_CFA_def_cfa_register: r5 (ebp)
  DW_CFA_advance_loc1: 243 to 0010b7fe
  DW_CFA_restore: r5 (ebp)
  DW_CFA_def_cfa: r4 (esp) ofs 4
  DW_CFA_nop

00001b4c 0000001c 00001b50 FDE cie=00000000 pc=0010b802..0010b930
  DW_CFA_advance_loc: 5 to 0010b807
  DW_CFA_def_cfa_offset: 8
  DW_CFA_offset: r5 (ebp) at cfa-8
  DW_CFA_advance_loc: 2 to 0010b809
  DW_CFA_def_cfa_register: r5 (ebp)
  DW_CFA_advance_loc2: 294 to 0010b92f
  DW_CFA_restore: r5 (ebp)
  DW_CFA_def_cfa: r4 (esp) ofs 4

00001b6c 0000001c 00001b70 FDE cie=00000000 pc=0010b930..0010b9d9
  DW_CFA_advance_loc: 5 to 0010b935
  DW_CFA_def_cfa_offset: 8
  DW_CFA_offset: r5 (ebp) at cfa-8
  DW_CFA_advance_loc: 2 to 0010b937
  DW_CFA_def_cfa_register: r5 (ebp)
  DW_CFA_advance_loc1: 161 to 0010b9d8
  DW_CFA_restore: r5 (ebp)
  DW_CFA_def_cfa: r4 (esp) ofs 4
  DW_CFA_nop

00001b8c 0000001c 00001b90 FDE cie=00000000 pc=0010b9d9..0010ba1c
  DW_CFA_advance_loc: 5 to 0010b9de
  DW_CFA_def_cfa_offset: 8
  DW_CFA_offset: r5 (ebp) at cfa-8
  DW_CFA_advance_loc: 2 to 0010b9e0
  DW_CFA_def_cfa_register: r5 (ebp)
  DW_CFA_advance_loc: 59 to 0010ba1b
  DW_CFA_restore: r5 (ebp)
  DW_CFA_def_cfa: r4 (esp) ofs 4
  DW_CFA_nop
  DW_CFA_nop

00001bac 0000001c 00001bb0 FDE cie=00000000 pc=0010ba1c..0010ba57
  DW_CFA_advance_loc: 5 to 0010ba21
  DW_CFA_def_cfa_offset: 8
  DW_CFA_offset: r5 (ebp) at cfa-8
  DW_CFA_advance_loc: 2 to 0010ba23
  DW_CFA_def_cfa_register: r5 (ebp)
  DW_CFA_advance_loc: 51 to 0010ba56
  DW_CFA_restore: r5 (ebp)
  DW_CFA_def_cfa: r4 (esp) ofs 4
  DW_CFA_nop
  DW_CFA_nop

00001bcc 0000001c 00001bd0 FDE cie=00000000 pc=0010ba57..0010bc12
  DW_CFA_advance_loc: 5 to 0010ba5c
  DW_CFA_def_cfa_offset: 8
  DW_CFA_offset: r5 (ebp) at cfa-8
  DW_CFA_advance_loc: 2 to 0010ba5e
  DW_CFA_def_cfa_register: r5 (ebp)
  DW_CFA_advance_loc2: 433 to 0010bc0f
  DW_CFA_restore: r5 (ebp)
  DW_CFA_def_cfa: r4 (esp) ofs 4

00001bec 0000001c 00001bf0 FDE cie=00000000 pc=0010bc12..0010bd3c
  DW_CFA_advance_loc: 5 to 0010bc17
  DW_CFA_def_cfa_offset: 8
  DW_CFA_offset: r5 (ebp) at cfa-8
  DW_CFA_advance_loc: 2 to 0010bc19
  DW_CFA_def_cfa_register: r5 (ebp)
  DW_CFA_advance_loc2: 288 to 0010bd39
  DW_CFA_restore: r5 (ebp)
  DW_CFA_def_cfa: r4 (esp) ofs 4

00001c0c 0000001c 00001c10 FDE cie=00000000 pc=0010bd3c..0010bd88
  DW_CFA_advance_loc: 5 to 0010bd41
  DW_CFA_def_cfa_offset: 8
  DW_CFA_offset: r5 (ebp) at cfa-8
  DW_CFA_advance_loc: 2 to 0010bd43
  DW_CFA_def_cfa_register: r5 (ebp)
  DW_CFA_advance_loc1: 66 to 0010bd85
  DW_CFA_restore: r5 (ebp)
  DW_CFA_def_cfa: r4 (esp) ofs 4
  DW_CFA_nop

00001c2c 00000020 00001c30 FDE cie=00000000 pc=0010bd88..0010bec6
  DW_CFA_advance_loc: 5 to 0010bd8d
  DW_CFA_def_cfa_offset: 8
  DW_CFA_offset: r5 (ebp) at cfa-8
  DW_CFA_advance_loc: 2 to 0010bd8f
  DW_CFA_def_cfa_register: r5 (ebp)
  DW_CFA_advance_loc: 4 to 0010bd93
  DW_CFA_offset: r3 (ebx) at cfa-12
  DW_CFA_advance_loc2: 304 to 0010bec3
  DW_CFA_restore: r5 (ebp)
  DW_CFA_restore: r3 (ebx)
  DW_CFA_def_cfa: r4 (esp) ofs 4

00001c50 0000001c 00001c54 FDE cie=00000000 pc=0010bec6..0010bedc
  DW_CFA_advance_loc: 5 to 0010becb
  DW_CFA_def_cfa_offset: 8
  DW_CFA_offset: r5 (ebp) at cfa-8
  DW_CFA_advance_loc: 2 to 0010becd
  DW_CFA_def_cfa_register: r5 (ebp)
  DW_CFA_advance_loc: 14 to 0010bedb
  DW_CFA_restore: r5 (ebp)
  DW_CFA_def_cfa: r4 (esp) ofs 4
  DW_CFA_nop
  DW_CFA_nop

00001c70 0000001c 00001c74 FDE cie=00000000 pc=0010bedc..0010c01b
  DW_CFA_advance_loc: 5 to 0010bee1
  DW_CFA_def_cfa_offset: 8
  DW_CFA_offset: r5 (ebp) at cfa-8
  DW_CFA_advance_loc: 2 to 0010bee3
  DW_CFA_def_cfa_register: r5 (ebp)
  DW_CFA_advance_loc2: 311 to 0010c01a
  DW_CFA_restore: r5 (ebp)
  DW_CFA_def_cfa: r4 (esp) ofs 4

00001c90 00000020 00001c94 FDE cie=00000000 pc=0010c01c..0010c1d6
  DW_CFA_advance_loc: 5 to 0010c021
  DW_CFA_def_cfa_offset: 8
  DW_CFA_offset: r5 (ebp) at cfa-8
  DW_CFA_advance_loc: 2 to 0010c023
  DW_CFA_def_cfa_register: r5 (ebp)
  DW_CFA_advance_loc: 7 to 0010c02a
  DW_CFA_offset: r3 (ebx) at cfa-12
  DW_CFA_advance_loc2: 427 to 0010c1d5
  DW_CFA_restore: r5 (ebp)
  DW_CFA_restore: r3 (ebx)
  DW_CFA_def_cfa: r4 (esp) ofs 4

00001cb4 0000001c 00001cb8 FDE cie=00000000 pc=0010ec50..0010ecad
  DW_CFA_advance_loc: 5 to 0010ec55
  DW_CFA_def_cfa_offset: 8
  DW_CFA_offset: r5 (ebp) at cfa-8
  DW_CFA_advance_loc: 2 to 0010ec57
  DW_CFA_def_cfa_register: r5 (ebp)
  DW_CFA_advance_loc1: 85 to 0010ecac
  DW_CFA_restore: r5 (ebp)
  DW_CFA_def_cfa: r4 (esp) ofs 4
  DW_CFA_nop

00001cd4 0000001c 00001cd8 FDE cie=00000000 pc=0010ecae..0010ecd2
  DW_CFA_advance_loc: 5 to 0010ecb3
  DW_CFA_def_cfa_offset: 8
  DW_CFA_offset: r5 (ebp) at cfa-8
  DW_CFA_advance_loc: 2 to 0010ecb5
  DW_CFA_def_cfa_register: r5 (ebp)
  DW_CFA_advance_loc: 28 to 0010ecd1
  DW_CFA_restore: r5 (ebp)
  DW_CFA_def_cfa: r4 (esp) ofs 4
  DW_CFA_nop
  DW_CFA_nop

00001cf4 0000001c 00001cf8 FDE cie=00000000 pc=0010ecd2..0010ece0
  DW_CFA_advance_loc: 5 to 0010ecd7
  DW_CFA_def_cfa_offset: 8
  DW_CFA_offset: r5 (ebp) at cfa-8
  DW_CFA_advance_loc: 2 to 0010ecd9
  DW_CFA_def_cfa_register: r5 (ebp)
  DW_CFA_advance_loc: 6 to 0010ecdf
  DW_CFA_restore: r5 (ebp)
  DW_CFA_def_cfa: r4 (esp) ofs 4
  DW_CFA_nop
  DW_CFA_nop

00001d14 0000001c 00001d18 FDE cie=00000000 pc=0010ece0..0010ecff
  DW_CFA_advance_loc: 5 to 0010ece5
  DW_CFA_def_cfa_offset: 8
  DW_CFA_offset: r5 (ebp) at cfa-8
  DW_CFA_advance_loc: 2 to 0010ece7
  DW_CFA_def_cfa_register: r5 (ebp)
  DW_CFA_advance_loc: 23 to 0010ecfe
  DW_CFA_restore: r5 (ebp)
  DW_CFA_def_cfa: r4 (esp) ofs 4
  DW_CFA_nop
  DW_CFA_nop

00001d34 0000001c 00001d38 FDE cie=00000000 pc=0010ed00..0010ed0e
  DW_CFA_advance_loc: 5 to 0010ed05
  DW_CFA_def_cfa_offset: 8
  DW_CFA_offset: r5 (ebp) at cfa-8
  DW_CFA_advance_loc: 2 to 0010ed07
  DW_CFA_def_cfa_register: r5 (ebp)
  DW_CFA_advance_loc: 6 to 0010ed0d
  DW_CFA_restore: r5 (ebp)
  DW_CFA_def_cfa: r4 (esp) ofs 4
  DW_CFA_nop
  DW_CFA_nop

00001d54 0000001c 00001d58 FDE cie=00000000 pc=0010ed0e..0010ed27
  DW_CFA_advance_loc: 5 to 0010ed13
  DW_CFA_def_cfa_offset: 8
  DW_CFA_offset: r5 (ebp) at cfa-8
  DW_CFA_advance_loc: 2 to 0010ed15
  DW_CFA_def_cfa_register: r5 (ebp)
  DW_CFA_advance_loc: 17 to 0010ed26
  DW_CFA_restore: r5 (ebp)
  DW_CFA_def_cfa: r4 (esp) ofs 4
  DW_CFA_nop
  DW_CFA_nop

00001d74 0000001c 00001d78 FDE cie=00000000 pc=0010ed27..0010ed40
  DW_CFA_advance_loc: 5 to 0010ed2c
  DW_CFA_def_cfa_offset: 8
  DW_CFA_offset: r5 (ebp) at cfa-8
  DW_CFA_advance_loc: 2 to 0010ed2e
  DW_CFA_def_cfa_register: r5 (ebp)
  DW_CFA_advance_loc: 17 to 0010ed3f
  DW_CFA_restore: r5 (ebp)
  DW_CFA_def_cfa: r4 (esp) ofs 4
  DW_CFA_nop
  DW_CFA_nop

00001d94 0000001c 00001d98 FDE cie=00000000 pc=0010ed40..0010ed8e
  DW_CFA_advance_loc: 5 to 0010ed45
  DW_CFA_def_cfa_offset: 8
  DW_CFA_offset: r5 (ebp) at cfa-8
  DW_CFA_advance_loc: 2 to 0010ed47
  DW_CFA_def_cfa_register: r5 (ebp)
  DW_CFA_advance_loc1: 70 to 0010ed8d
  DW_CFA_restore: r5 (ebp)
  DW_CFA_def_cfa: r4 (esp) ofs 4
  DW_CFA_nop

00001db4 0000001c 00001db8 FDE cie=00000000 pc=0010ed8e..0010edb2
  DW_CFA_advance_loc: 5 to 0010ed93
  DW_CFA_def_cfa_offset: 8
  DW_CFA_offset: r5 (ebp) at cfa-8
  DW_CFA_advance_loc: 2 to 0010ed95
  DW_CFA_def_cfa_register: r5 (ebp)
  DW_CFA_advance_loc: 28 to 0010edb1
  DW_CFA_restore: r5 (ebp)
  DW_CFA_def_cfa: r4 (esp) ofs 4
  DW_CFA_nop
  DW_CFA_nop

00001dd4 00000020 00001dd8 FDE cie=00000000 pc=0010edb2..0010ee34
  DW_CFA_advance_loc: 5 to 0010edb7
  DW_CFA_def_cfa_offset: 8
  DW_CFA_offset: r5 (ebp) at cfa-8
  DW_CFA_advance_loc: 2 to 0010edb9
  DW_CFA_def_cfa_register: r5 (ebp)
  DW_CFA_advance_loc: 4 to 0010edbd
  DW_CFA_offset: r3 (ebx) at cfa-12
  DW_CFA_advance_loc1: 118 to 0010ee33
  DW_CFA_restore: r5 (ebp)
  DW_CFA_restore: r3 (ebx)
  DW_CFA_def_cfa: r4 (esp) ofs 4
  DW_CFA_nop

00001df8 0000001c 00001dfc FDE cie=00000000 pc=0010ee34..0010ee42
  DW_CFA_advance_loc: 5 to 0010ee39
  DW_CFA_def_cfa_offset: 8
  DW_CFA_offset: r5 (ebp) at cfa-8
  DW_CFA_advance_loc: 2 to 0010ee3b
  DW_CFA_def_cfa_register: r5 (ebp)
  DW_CFA_advance_loc: 6 to 0010ee41
  DW_CFA_restore: r5 (ebp)
  DW_CFA_def_cfa: r4 (esp) ofs 4
  DW_CFA_nop
  DW_CFA_nop

00001e18 0000001c 00001e1c FDE cie=00000000 pc=0010ee42..0010ee5b
  DW_CFA_advance_loc: 5 to 0010ee47
  DW_CFA_def_cfa_offset: 8
  DW_CFA_offset: r5 (ebp) at cfa-8
  DW_CFA_advance_loc: 2 to 0010ee49
  DW_CFA_def_cfa_register: r5 (ebp)
  DW_CFA_advance_loc: 17 to 0010ee5a
  DW_CFA_restore: r5 (ebp)
  DW_CFA_def_cfa: r4 (esp) ofs 4
  DW_CFA_nop
  DW_CFA_nop

00001e38 00000020 00001e3c FDE cie=00000000 pc=0010ee5c..0010eee4
  DW_CFA_advance_loc: 5 to 0010ee61
  DW_CFA_def_cfa_offset: 8
  DW_CFA_offset: r5 (ebp) at cfa-8
  DW_CFA_advance_loc: 2 to 0010ee63
  DW_CFA_def_cfa_register: r5 (ebp)
  DW_CFA_advance_loc: 4 to 0010ee67
  DW_CFA_offset: r3 (ebx) at cfa-12
  DW_CFA_advance_loc1: 124 to 0010eee3
  DW_CFA_restore: r5 (ebp)
  DW_CFA_restore: r3 (ebx)
  DW_CFA_def_cfa: r4 (esp) ofs 4
  DW_CFA_nop

00001e5c 0000001c 00001e60 FDE cie=00000000 pc=0010c1d6..0010c1f7
  DW_CFA_advance_loc: 1 to 0010c1d7
  DW_CFA_def_cfa_offset: 8
  DW_CFA_offset: r5 (ebp) at cfa-8
  DW_CFA_advance_loc: 2 to 0010c1d9
  DW_CFA_def_cfa_register: r5 (ebp)
  DW_CFA_advance_loc: 29 to 0010c1f6
  DW_CFA_restore: r5 (ebp)
  DW_CFA_def_cfa: r4 (esp) ofs 4
  DW_CFA_nop
  DW_CFA_nop

00001e7c 0000001c 00001e80 FDE cie=00000000 pc=0010c1f7..0010c214
  DW_CFA_advance_loc: 1 to 0010c1f8
  DW_CFA_def_cfa_offset: 8
  DW_CFA_offset: r5 (ebp) at cfa-8
  DW_CFA_advance_loc: 2 to 0010c1fa
  DW_CFA_def_cfa_register: r5 (ebp)
  DW_CFA_advance_loc: 25 to 0010c213
  DW_CFA_restore: r5 (ebp)
  DW_CFA_def_cfa: r4 (esp) ofs 4
  DW_CFA_nop
  DW_CFA_nop

00001e9c 0000001c 00001ea0 FDE cie=00000000 pc=0010c214..0010c235
  DW_CFA_advance_loc: 1 to 0010c215
  DW_CFA_def_cfa_offset: 8
  DW_CFA_offset: r5 (ebp) at cfa-8
  DW_CFA_advance_loc: 2 to 0010c217
  DW_CFA_def_cfa_register: r5 (ebp)
  DW_CFA_advance_loc: 29 to 0010c234
  DW_CFA_restore: r5 (ebp)
  DW_CFA_def_cfa: r4 (esp) ofs 4
  DW_CFA_nop
  DW_CFA_nop

00001ebc 0000001c 00001ec0 FDE cie=00000000 pc=0010c235..0010c254
  DW_CFA_advance_loc: 1 to 0010c236
  DW_CFA_def_cfa_offset: 8
  DW_CFA_offset: r5 (ebp) at cfa-8
  DW_CFA_advance_loc: 2 to 0010c238
  DW_CFA_def_cfa_register: r5 (ebp)
  DW_CFA_advance_loc: 27 to 0010c253
  DW_CFA_restore: r5 (ebp)
  DW_CFA_def_cfa: r4 (esp) ofs 4
  DW_CFA_nop
  DW_CFA_nop

00001edc 0000001c 00001ee0 FDE cie=00000000 pc=0010c254..0010c26c
  DW_CFA_advance_loc: 1 to 0010c255
  DW_CFA_def_cfa_offset: 8
  DW_CFA_offset: r5 (ebp) at cfa-8
  DW_CFA_advance_loc: 2 to 0010c257
  DW_CFA_def_cfa_register: r5 (ebp)
  DW_CFA_advance_loc: 20 to 0010c26b
  DW_CFA_restore: r5 (ebp)
  DW_CFA_def_cfa: r4 (esp) ofs 4
  DW_CFA_nop
  DW_CFA_nop

00001efc 0000001c 00001f00 FDE cie=00000000 pc=0010c26c..0010c288
  DW_CFA_advance_loc: 1 to 0010c26d
  DW_CFA_def_cfa_offset: 8
  DW_CFA_offset: r5 (ebp) at cfa-8
  DW_CFA_advance_loc: 2 to 0010c26f
  DW_CFA_def_cfa_register: r5 (ebp)
  DW_CFA_advance_loc: 24 to 0010c287
  DW_CFA_restore: r5 (ebp)
  DW_CFA_def_cfa: r4 (esp) ofs 4
  DW_CFA_nop
  DW_CFA_nop

00001f1c 0000001c 00001f20 FDE cie=00000000 pc=0010c288..0010c30c
  DW_CFA_advance_loc: 5 to 0010c28d
  DW_CFA_def_cfa_offset: 8
  DW_CFA_offset: r5 (ebp) at cfa-8
  DW_CFA_advance_loc: 2 to 0010c28f
  DW_CFA_def_cfa_register: r5 (ebp)
  DW_CFA_advance_loc1: 124 to 0010c30b
  DW_CFA_restore: r5 (ebp)
  DW_CFA_def_cfa: r4 (esp) ofs 4
  DW_CFA_nop

00001f3c 0000001c 00001f40 FDE cie=00000000 pc=0010c30c..0010c337
  DW_CFA_advance_loc: 5 to 0010c311
  DW_CFA_def_cfa_offset: 8
  DW_CFA_offset: r5 (ebp) at cfa-8
  DW_CFA_advance_loc: 2 to 0010c313
  DW_CFA_def_cfa_register: r5 (ebp)
  DW_CFA_advance_loc: 35 to 0010c336
  DW_CFA_restore: r5 (ebp)
  DW_CFA_def_cfa: r4 (esp) ofs 4
  DW_CFA_nop
  DW_CFA_nop

00001f5c 0000001c 00001f60 FDE cie=00000000 pc=0010c337..0010c3aa
  DW_CFA_advance_loc: 5 to 0010c33c
  DW_CFA_def_cfa_offset: 8
  DW_CFA_offset: r5 (ebp) at cfa-8
  DW_CFA_advance_loc: 2 to 0010c33e
  DW_CFA_def_cfa_register: r5 (ebp)
  DW_CFA_advance_loc1: 107 to 0010c3a9
  DW_CFA_restore: r5 (ebp)
  DW_CFA_def_cfa: r4 (esp) ofs 4
  DW_CFA_nop

00001f7c 0000001c 00001f80 FDE cie=00000000 pc=0010c3aa..0010c4dd
  DW_CFA_advance_loc: 5 to 0010c3af
  DW_CFA_def_cfa_offset: 8
  DW_CFA_offset: r5 (ebp) at cfa-8
  DW_CFA_advance_loc: 2 to 0010c3b1
  DW_CFA_def_cfa_register: r5 (ebp)
  DW_CFA_advance_loc2: 297 to 0010c4da
  DW_CFA_restore: r5 (ebp)
  DW_CFA_def_cfa: r4 (esp) ofs 4

00001f9c 0000001c 00001fa0 FDE cie=00000000 pc=0010c4dd..0010c533
  DW_CFA_advance_loc: 5 to 0010c4e2
  DW_CFA_def_cfa_offset: 8
  DW_CFA_offset: r5 (ebp) at cfa-8
  DW_CFA_advance_loc: 2 to 0010c4e4
  DW_CFA_def_cfa_register: r5 (ebp)
  DW_CFA_advance_loc1: 78 to 0010c532
  DW_CFA_restore: r5 (ebp)
  DW_CFA_def_cfa: r4 (esp) ofs 4
  DW_CFA_nop

00001fbc 0000001c 00001fc0 FDE cie=00000000 pc=0010c533..0010c597
  DW_CFA_advance_loc: 5 to 0010c538
  DW_CFA_def_cfa_offset: 8
  DW_CFA_offset: r5 (ebp) at cfa-8
  DW_CFA_advance_loc: 2 to 0010c53a
  DW_CFA_def_cfa_register: r5 (ebp)
  DW_CFA_advance_loc1: 92 to 0010c596
  DW_CFA_restore: r5 (ebp)
  DW_CFA_def_cfa: r4 (esp) ofs 4
  DW_CFA_nop

00001fdc 0000001c 00001fe0 FDE cie=00000000 pc=0010c597..0010c6a4
  DW_CFA_advance_loc: 5 to 0010c59c
  DW_CFA_def_cfa_offset: 8
  DW_CFA_offset: r5 (ebp) at cfa-8
  DW_CFA_advance_loc: 2 to 0010c59e
  DW_CFA_def_cfa_register: r5 (ebp)
  DW_CFA_advance_loc2: 261 to 0010c6a3
  DW_CFA_restore: r5 (ebp)
  DW_CFA_def_cfa: r4 (esp) ofs 4

00001ffc 0000001c 00002000 FDE cie=00000000 pc=0010c6a4..0010d387
  DW_CFA_advance_loc: 5 to 0010c6a9
  DW_CFA_def_cfa_offset: 8
  DW_CFA_offset: r5 (ebp) at cfa-8
  DW_CFA_advance_loc: 2 to 0010c6ab
  DW_CFA_def_cfa_register: r5 (ebp)
  DW_CFA_advance_loc2: 3291 to 0010d386
  DW_CFA_restore: r5 (ebp)
  DW_CFA_def_cfa: r4 (esp) ofs 4

0000201c 0000001c 00002020 FDE cie=00000000 pc=0010d387..0010d417
  DW_CFA_advance_loc: 5 to 0010d38c
  DW_CFA_def_cfa_offset: 8
  DW_CFA_offset: r5 (ebp) at cfa-8
  DW_CFA_advance_loc: 2 to 0010d38e
  DW_CFA_def_cfa_register: r5 (ebp)
  DW_CFA_advance_loc1: 136 to 0010d416
  DW_CFA_restore: r5 (ebp)
  DW_CFA_def_cfa: r4 (esp) ofs 4
  DW_CFA_nop

0000203c 0000001c 00002040 FDE cie=00000000 pc=0010d417..0010d596
  DW_CFA_advance_loc: 5 to 0010d41c
  DW_CFA_def_cfa_offset: 8
  DW_CFA_offset: r5 (ebp) at cfa-8
  DW_CFA_advance_loc: 2 to 0010d41e
  DW_CFA_def_cfa_register: r5 (ebp)
  DW_CFA_advance_loc2: 375 to 0010d595
  DW_CFA_restore: r5 (ebp)
  DW_CFA_def_cfa: r4 (esp) ofs 4

0000205c 0000001c 00002060 FDE cie=00000000 pc=0010d596..0010d5d9
  DW_CFA_advance_loc: 5 to 0010d59b
  DW_CFA_def_cfa_offset: 8
  DW_CFA_offset: r5 (ebp) at cfa-8
  DW_CFA_advance_loc: 2 to 0010d59d
  DW_CFA_def_cfa_register: r5 (ebp)
  DW_CFA_advance_loc: 59 to 0010d5d8
  DW_CFA_restore: r5 (ebp)
  DW_CFA_def_cfa: r4 (esp) ofs 4
  DW_CFA_nop
  DW_CFA_nop

0000207c 0000001c 00002080 FDE cie=00000000 pc=0010d5d9..0010d61c
  DW_CFA_advance_loc: 5 to 0010d5de
  DW_CFA_def_cfa_offset: 8
  DW_CFA_offset: r5 (ebp) at cfa-8
  DW_CFA_advance_loc: 2 to 0010d5e0
  DW_CFA_def_cfa_register: r5 (ebp)
  DW_CFA_advance_loc: 59 to 0010d61b
  DW_CFA_restore: r5 (ebp)
  DW_CFA_def_cfa: r4 (esp) ofs 4
  DW_CFA_nop
  DW_CFA_nop

0000209c 0000001c 000020a0 FDE cie=00000000 pc=0010d61c..0010d654
  DW_CFA_advance_loc: 5 to 0010d621
  DW_CFA_def_cfa_offset: 8
  DW_CFA_offset: r5 (ebp) at cfa-8
  DW_CFA_advance_loc: 2 to 0010d623
  DW_CFA_def_cfa_register: r5 (ebp)
  DW_CFA_advance_loc: 48 to 0010d653
  DW_CFA_restore: r5 (ebp)
  DW_CFA_def_cfa: r4 (esp) ofs 4
  DW_CFA_nop
  DW_CFA_nop

000020bc 0000001c 000020c0 FDE cie=00000000 pc=0010d654..0010d784
  DW_CFA_advance_loc: 5 to 0010d659
  DW_CFA_def_cfa_offset: 8
  DW_CFA_offset: r5 (ebp) at cfa-8
  DW_CFA_advance_loc: 2 to 0010d65b
  DW_CFA_def_cfa_register: r5 (ebp)
  DW_CFA_advance_loc2: 296 to 0010d783
  DW_CFA_restore: r5 (ebp)
  DW_CFA_def_cfa: r4 (esp) ofs 4

000020dc 0000001c 000020e0 FDE cie=00000000 pc=0010d784..0010d7d5
  DW_CFA_advance_loc: 5 to 0010d789
  DW_CFA_def_cfa_offset: 8
  DW_CFA_offset: r5 (ebp) at cfa-8
  DW_CFA_advance_loc: 2 to 0010d78b
  DW_CFA_def_cfa_register: r5 (ebp)
  DW_CFA_advance_loc1: 73 to 0010d7d4
  DW_CFA_restore: r5 (ebp)
  DW_CFA_def_cfa: r4 (esp) ofs 4
  DW_CFA_nop

000020fc 0000001c 00002100 FDE cie=00000000 pc=0010d7d5..0010d875
  DW_CFA_advance_loc: 5 to 0010d7da
  DW_CFA_def_cfa_offset: 8
  DW_CFA_offset: r5 (ebp) at cfa-8
  DW_CFA_advance_loc: 2 to 0010d7dc
  DW_CFA_def_cfa_register: r5 (ebp)
  DW_CFA_advance_loc1: 152 to 0010d874
  DW_CFA_restore: r5 (ebp)
  DW_CFA_def_cfa: r4 (esp) ofs 4
  DW_CFA_nop

0000211c 0000001c 00002120 FDE cie=00000000 pc=0010d875..0010d883
  DW_CFA_advance_loc: 5 to 0010d87a
  DW_CFA_def_cfa_offset: 8
  DW_CFA_offset: r5 (ebp) at cfa-8
  DW_CFA_advance_loc: 2 to 0010d87c
  DW_CFA_def_cfa_register: r5 (ebp)
  DW_CFA_advance_loc: 6 to 0010d882
  DW_CFA_restore: r5 (ebp)
  DW_CFA_def_cfa: r4 (esp) ofs 4
  DW_CFA_nop
  DW_CFA_nop

0000213c 0000001c 00002140 FDE cie=00000000 pc=0010d883..0010d8a5
  DW_CFA_advance_loc: 5 to 0010d888
  DW_CFA_def_cfa_offset: 8
  DW_CFA_offset: r5 (ebp) at cfa-8
  DW_CFA_advance_loc: 2 to 0010d88a
  DW_CFA_def_cfa_register: r5 (ebp)
  DW_CFA_advance_loc: 26 to 0010d8a4
  DW_CFA_restore: r5 (ebp)
  DW_CFA_def_cfa: r4 (esp) ofs 4
  DW_CFA_nop
  DW_CFA_nop

0000215c 0000001c 00002160 FDE cie=00000000 pc=0010d8a5..0010d8f7
  DW_CFA_advance_loc: 5 to 0010d8aa
  DW_CFA_def_cfa_offset: 8
  DW_CFA_offset: r5 (ebp) at cfa-8
  DW_CFA_advance_loc: 2 to 0010d8ac
  DW_CFA_def_cfa_register: r5 (ebp)
  DW_CFA_advance_loc1: 74 to 0010d8f6
  DW_CFA_restore: r5 (ebp)
  DW_CFA_def_cfa: r4 (esp) ofs 4
  DW_CFA_nop

0000217c 00000020 00002180 FDE cie=00000000 pc=0010d8f7..0010d96e
  DW_CFA_advance_loc: 5 to 0010d8fc
  DW_CFA_def_cfa_offset: 8
  DW_CFA_offset: r5 (ebp) at cfa-8
  DW_CFA_advance_loc: 2 to 0010d8fe
  DW_CFA_def_cfa_register: r5 (ebp)
  DW_CFA_advance_loc: 4 to 0010d902
  DW_CFA_offset: r3 (ebx) at cfa-12
  DW_CFA_advance_loc1: 107 to 0010d96d
  DW_CFA_restore: r5 (ebp)
  DW_CFA_restore: r3 (ebx)
  DW_CFA_def_cfa: r4 (esp) ofs 4
  DW_CFA_nop

000021a0 0000001c 000021a4 FDE cie=00000000 pc=0010d96e..0010da13
  DW_CFA_advance_loc: 5 to 0010d973
  DW_CFA_def_cfa_offset: 8
  DW_CFA_offset: r5 (ebp) at cfa-8
  DW_CFA_advance_loc: 2 to 0010d975
  DW_CFA_def_cfa_register: r5 (ebp)
  DW_CFA_advance_loc1: 157 to 0010da12
  DW_CFA_restore: r5 (ebp)
  DW_CFA_def_cfa: r4 (esp) ofs 4
  DW_CFA_nop

000021c0 0000001c 000021c4 FDE cie=00000000 pc=0010da13..0010da8f
  DW_CFA_advance_loc: 5 to 0010da18
  DW_CFA_def_cfa_offset: 8
  DW_CFA_offset: r5 (ebp) at cfa-8
  DW_CFA_advance_loc: 2 to 0010da1a
  DW_CFA_def_cfa_register: r5 (ebp)
  DW_CFA_advance_loc1: 116 to 0010da8e
  DW_CFA_restore: r5 (ebp)
  DW_CFA_def_cfa: r4 (esp) ofs 4
  DW_CFA_nop

000021e0 0000001c 000021e4 FDE cie=00000000 pc=0010da8f..0010dad8
  DW_CFA_advance_loc: 5 to 0010da94
  DW_CFA_def_cfa_offset: 8
  DW_CFA_offset: r5 (ebp) at cfa-8
  DW_CFA_advance_loc: 2 to 0010da96
  DW_CFA_def_cfa_register: r5 (ebp)
  DW_CFA_advance_loc1: 65 to 0010dad7
  DW_CFA_restore: r5 (ebp)
  DW_CFA_def_cfa: r4 (esp) ofs 4
  DW_CFA_nop

00002200 0000001c 00002204 FDE cie=00000000 pc=0010dad8..0010db40
  DW_CFA_advance_loc: 5 to 0010dadd
  DW_CFA_def_cfa_offset: 8
  DW_CFA_offset: r5 (ebp) at cfa-8
  DW_CFA_advance_loc: 2 to 0010dadf
  DW_CFA_def_cfa_register: r5 (ebp)
  DW_CFA_advance_loc1: 96 to 0010db3f
  DW_CFA_restore: r5 (ebp)
  DW_CFA_def_cfa: r4 (esp) ofs 4
  DW_CFA_nop

00002220 0000001c 00002224 FDE cie=00000000 pc=0010db40..0010dba8
  DW_CFA_advance_loc: 5 to 0010db45
  DW_CFA_def_cfa_offset: 8
  DW_CFA_offset: r5 (ebp) at cfa-8
  DW_CFA_advance_loc: 2 to 0010db47
  DW_CFA_def_cfa_register: r5 (ebp)
  DW_CFA_advance_loc1: 96 to 0010dba7
  DW_CFA_restore: r5 (ebp)
  DW_CFA_def_cfa: r4 (esp) ofs 4
  DW_CFA_nop

00002240 0000001c 00002244 FDE cie=00000000 pc=0010dba8..0010dbe8
  DW_CFA_advance_loc: 5 to 0010dbad
  DW_CFA_def_cfa_offset: 8
  DW_CFA_offset: r5 (ebp) at cfa-8
  DW_CFA_advance_loc: 2 to 0010dbaf
  DW_CFA_def_cfa_register: r5 (ebp)
  DW_CFA_advance_loc: 56 to 0010dbe7
  DW_CFA_restore: r5 (ebp)
  DW_CFA_def_cfa: r4 (esp) ofs 4
  DW_CFA_nop
  DW_CFA_nop

00002260 0000001c 00002264 FDE cie=00000000 pc=0010dbe8..0010dc2e
  DW_CFA_advance_loc: 5 to 0010dbed
  DW_CFA_def_cfa_offset: 8
  DW_CFA_offset: r5 (ebp) at cfa-8
  DW_CFA_advance_loc: 2 to 0010dbef
  DW_CFA_def_cfa_register: r5 (ebp)
  DW_CFA_advance_loc: 62 to 0010dc2d
  DW_CFA_restore: r5 (ebp)
  DW_CFA_def_cfa: r4 (esp) ofs 4
  DW_CFA_nop
  DW_CFA_nop

00002280 0000001c 00002284 FDE cie=00000000 pc=0010dc2e..0010dcd4
  DW_CFA_advance_loc: 5 to 0010dc33
  DW_CFA_def_cfa_offset: 8
  DW_CFA_offset: r5 (ebp) at cfa-8
  DW_CFA_advance_loc: 2 to 0010dc35
  DW_CFA_def_cfa_register: r5 (ebp)
  DW_CFA_advance_loc1: 158 to 0010dcd3
  DW_CFA_restore: r5 (ebp)
  DW_CFA_def_cfa: r4 (esp) ofs 4
  DW_CFA_nop

000022a0 0000001c 000022a4 FDE cie=00000000 pc=0010dcd4..0010dd47
  DW_CFA_advance_loc: 5 to 0010dcd9
  DW_CFA_def_cfa_offset: 8
  DW_CFA_offset: r5 (ebp) at cfa-8
  DW_CFA_advance_loc: 2 to 0010dcdb
  DW_CFA_def_cfa_register: r5 (ebp)
  DW_CFA_advance_loc1: 107 to 0010dd46
  DW_CFA_restore: r5 (ebp)
  DW_CFA_def_cfa: r4 (esp) ofs 4
  DW_CFA_nop

000022c0 0000001c 000022c4 FDE cie=00000000 pc=0010dd47..0010dddf
  DW_CFA_advance_loc: 5 to 0010dd4c
  DW_CFA_def_cfa_offset: 8
  DW_CFA_offset: r5 (ebp) at cfa-8
  DW_CFA_advance_loc: 2 to 0010dd4e
  DW_CFA_def_cfa_register: r5 (ebp)
  DW_CFA_advance_loc1: 144 to 0010ddde
  DW_CFA_restore: r5 (ebp)
  DW_CFA_def_cfa: r4 (esp) ofs 4
  DW_CFA_nop

000022e0 0000001c 000022e4 FDE cie=00000000 pc=0010dddf..0010de27
  DW_CFA_advance_loc: 5 to 0010dde4
  DW_CFA_def_cfa_offset: 8
  DW_CFA_offset: r5 (ebp) at cfa-8
  DW_CFA_advance_loc: 2 to 0010dde6
  DW_CFA_def_cfa_register: r5 (ebp)
  DW_CFA_advance_loc1: 64 to 0010de26
  DW_CFA_restore: r5 (ebp)
  DW_CFA_def_cfa: r4 (esp) ofs 4
  DW_CFA_nop

00002300 0000001c 00002304 FDE cie=00000000 pc=0010de27..0010de49
  DW_CFA_advance_loc: 5 to 0010de2c
  DW_CFA_def_cfa_offset: 8
  DW_CFA_offset: r5 (ebp) at cfa-8
  DW_CFA_advance_loc: 2 to 0010de2e
  DW_CFA_def_cfa_register: r5 (ebp)
  DW_CFA_advance_loc: 26 to 0010de48
  DW_CFA_restore: r5 (ebp)
  DW_CFA_def_cfa: r4 (esp) ofs 4
  DW_CFA_nop
  DW_CFA_nop

00002320 0000001c 00002324 FDE cie=00000000 pc=0010de49..0010de8e
  DW_CFA_advance_loc: 5 to 0010de4e
  DW_CFA_def_cfa_offset: 8
  DW_CFA_offset: r5 (ebp) at cfa-8
  DW_CFA_advance_loc: 2 to 0010de50
  DW_CFA_def_cfa_register: r5 (ebp)
  DW_CFA_advance_loc: 61 to 0010de8d
  DW_CFA_restore: r5 (ebp)
  DW_CFA_def_cfa: r4 (esp) ofs 4
  DW_CFA_nop
  DW_CFA_nop

00002340 0000001c 00002344 FDE cie=00000000 pc=0010de8e..0010dee5
  DW_CFA_advance_loc: 5 to 0010de93
  DW_CFA_def_cfa_offset: 8
  DW_CFA_offset: r5 (ebp) at cfa-8
  DW_CFA_advance_loc: 2 to 0010de95
  DW_CFA_def_cfa_register: r5 (ebp)
  DW_CFA_advance_loc1: 79 to 0010dee4
  DW_CFA_restore: r5 (ebp)
  DW_CFA_def_cfa: r4 (esp) ofs 4
  DW_CFA_nop

00002360 0000001c 00002364 FDE cie=00000000 pc=0010dee5..0010df3a
  DW_CFA_advance_loc: 5 to 0010deea
  DW_CFA_def_cfa_offset: 8
  DW_CFA_offset: r5 (ebp) at cfa-8
  DW_CFA_advance_loc: 2 to 0010deec
  DW_CFA_def_cfa_register: r5 (ebp)
  DW_CFA_advance_loc1: 77 to 0010df39
  DW_CFA_restore: r5 (ebp)
  DW_CFA_def_cfa: r4 (esp) ofs 4
  DW_CFA_nop

00002380 0000001c 00002384 FDE cie=00000000 pc=0010df3a..0010dfe0
  DW_CFA_advance_loc: 5 to 0010df3f
  DW_CFA_def_cfa_offset: 8
  DW_CFA_offset: r5 (ebp) at cfa-8
  DW_CFA_advance_loc: 2 to 0010df41
  DW_CFA_def_cfa_register: r5 (ebp)
  DW_CFA_advance_loc1: 158 to 0010dfdf
  DW_CFA_restore: r5 (ebp)
  DW_CFA_def_cfa: r4 (esp) ofs 4
  DW_CFA_nop

000023a0 0000001c 000023a4 FDE cie=00000000 pc=0010dfe0..0010e19e
  DW_CFA_advance_loc: 5 to 0010dfe5
  DW_CFA_def_cfa_offset: 8
  DW_CFA_offset: r5 (ebp) at cfa-8
  DW_CFA_advance_loc: 2 to 0010dfe7
  DW_CFA_def_cfa_register: r5 (ebp)
  DW_CFA_advance_loc2: 438 to 0010e19d
  DW_CFA_restore: r5 (ebp)
  DW_CFA_def_cfa: r4 (esp) ofs 4

000023c0 0000001c 000023c4 FDE cie=00000000 pc=0010e19e..0010e2d3
  DW_CFA_advance_loc: 5 to 0010e1a3
  DW_CFA_def_cfa_offset: 8
  DW_CFA_offset: r5 (ebp) at cfa-8
  DW_CFA_advance_loc: 2 to 0010e1a5
  DW_CFA_def_cfa_register: r5 (ebp)
  DW_CFA_advance_loc2: 301 to 0010e2d2
  DW_CFA_restore: r5 (ebp)
  DW_CFA_def_cfa: r4 (esp) ofs 4

000023e0 0000001c 000023e4 FDE cie=00000000 pc=0010e2d3..0010e2f4
  DW_CFA_advance_loc: 5 to 0010e2d8
  DW_CFA_def_cfa_offset: 8
  DW_CFA_offset: r5 (ebp) at cfa-8
  DW_CFA_advance_loc: 2 to 0010e2da
  DW_CFA_def_cfa_register: r5 (ebp)
  DW_CFA_advance_loc: 25 to 0010e2f3
  DW_CFA_restore: r5 (ebp)
  DW_CFA_def_cfa: r4 (esp) ofs 4
  DW_CFA_nop
  DW_CFA_nop

00002400 0000001c 00002404 FDE cie=00000000 pc=0010e2f4..0010e320
  DW_CFA_advance_loc: 5 to 0010e2f9
  DW_CFA_def_cfa_offset: 8
  DW_CFA_offset: r5 (ebp) at cfa-8
  DW_CFA_advance_loc: 2 to 0010e2fb
  DW_CFA_def_cfa_register: r5 (ebp)
  DW_CFA_advance_loc: 36 to 0010e31f
  DW_CFA_restore: r5 (ebp)
  DW_CFA_def_cfa: r4 (esp) ofs 4
  DW_CFA_nop
  DW_CFA_nop

00002420 0000001c 00002424 FDE cie=00000000 pc=0010e320..0010e837
  DW_CFA_advance_loc: 5 to 0010e325
  DW_CFA_def_cfa_offset: 8
  DW_CFA_offset: r5 (ebp) at cfa-8
  DW_CFA_advance_loc: 2 to 0010e327
  DW_CFA_def_cfa_register: r5 (ebp)
  DW_CFA_advance_loc2: 1295 to 0010e836
  DW_CFA_restore: r5 (ebp)
  DW_CFA_def_cfa: r4 (esp) ofs 4

00002440 00000020 00002444 FDE cie=00000000 pc=0010e837..0010ea78
  DW_CFA_advance_loc: 5 to 0010e83c
  DW_CFA_def_cfa_offset: 8
  DW_CFA_offset: r5 (ebp) at cfa-8
  DW_CFA_advance_loc: 2 to 0010e83e
  DW_CFA_def_cfa_register: r5 (ebp)
  DW_CFA_advance_loc: 4 to 0010e842
  DW_CFA_offset: r3 (ebx) at cfa-12
  DW_CFA_advance_loc2: 565 to 0010ea77
  DW_CFA_restore: r5 (ebp)
  DW_CFA_restore: r3 (ebx)
  DW_CFA_def_cfa: r4 (esp) ofs 4

00002464 0000001c 00002468 FDE cie=00000000 pc=0010ea78..0010eaab
  DW_CFA_advance_loc: 5 to 0010ea7d
  DW_CFA_def_cfa_offset: 8
  DW_CFA_offset: r5 (ebp) at cfa-8
  DW_CFA_advance_loc: 2 to 0010ea7f
  DW_CFA_def_cfa_register: r5 (ebp)
  DW_CFA_advance_loc: 43 to 0010eaaa
  DW_CFA_restore: r5 (ebp)
  DW_CFA_def_cfa: r4 (esp) ofs 4
  DW_CFA_nop
  DW_CFA_nop

00002484 0000001c 00002488 FDE cie=00000000 pc=0010eaab..0010eacd
  DW_CFA_advance_loc: 5 to 0010eab0
  DW_CFA_def_cfa_offset: 8
  DW_CFA_offset: r5 (ebp) at cfa-8
  DW_CFA_advance_loc: 2 to 0010eab2
  DW_CFA_def_cfa_register: r5 (ebp)
  DW_CFA_advance_loc: 26 to 0010eacc
  DW_CFA_restore: r5 (ebp)
  DW_CFA_def_cfa: r4 (esp) ofs 4
  DW_CFA_nop
  DW_CFA_nop

000024a4 0000001c 000024a8 FDE cie=00000000 pc=0010eacd..0010eaec
  DW_CFA_advance_loc: 5 to 0010ead2
  DW_CFA_def_cfa_offset: 8
  DW_CFA_offset: r5 (ebp) at cfa-8
  DW_CFA_advance_loc: 2 to 0010ead4
  DW_CFA_def_cfa_register: r5 (ebp)
  DW_CFA_advance_loc: 23 to 0010eaeb
  DW_CFA_restore: r5 (ebp)
  DW_CFA_def_cfa: r4 (esp) ofs 4
  DW_CFA_nop
  DW_CFA_nop

000024c4 0000001c 000024c8 FDE cie=00000000 pc=0010eaec..0010eb06
  DW_CFA_advance_loc: 5 to 0010eaf1
  DW_CFA_def_cfa_offset: 8
  DW_CFA_offset: r5 (ebp) at cfa-8
  DW_CFA_advance_loc: 2 to 0010eaf3
  DW_CFA_def_cfa_register: r5 (ebp)
  DW_CFA_advance_loc: 18 to 0010eb05
  DW_CFA_restore: r5 (ebp)
  DW_CFA_def_cfa: r4 (esp) ofs 4
  DW_CFA_nop
  DW_CFA_nop

000024e4 0000001c 000024e8 FDE cie=00000000 pc=0010eb06..0010eb20
  DW_CFA_advance_loc: 5 to 0010eb0b
  DW_CFA_def_cfa_offset: 8
  DW_CFA_offset: r5 (ebp) at cfa-8
  DW_CFA_advance_loc: 2 to 0010eb0d
  DW_CFA_def_cfa_register: r5 (ebp)
  DW_CFA_advance_loc: 18 to 0010eb1f
  DW_CFA_restore: r5 (ebp)
  DW_CFA_def_cfa: r4 (esp) ofs 4
  DW_CFA_nop
  DW_CFA_nop

00002504 0000001c 00002508 FDE cie=00000000 pc=0010eb20..0010eb3b
  DW_CFA_advance_loc: 5 to 0010eb25
  DW_CFA_def_cfa_offset: 8
  DW_CFA_offset: r5 (ebp) at cfa-8
  DW_CFA_advance_loc: 2 to 0010eb27
  DW_CFA_def_cfa_register: r5 (ebp)
  DW_CFA_advance_loc: 19 to 0010eb3a
  DW_CFA_restore: r5 (ebp)
  DW_CFA_def_cfa: r4 (esp) ofs 4
  DW_CFA_nop
  DW_CFA_nop

00002524 0000001c 00002528 FDE cie=00000000 pc=0010eb3b..0010eb56
  DW_CFA_advance_loc: 5 to 0010eb40
  DW_CFA_def_cfa_offset: 8
  DW_CFA_offset: r5 (ebp) at cfa-8
  DW_CFA_advance_loc: 2 to 0010eb42
  DW_CFA_def_cfa_register: r5 (ebp)
  DW_CFA_advance_loc: 19 to 0010eb55
  DW_CFA_restore: r5 (ebp)
  DW_CFA_def_cfa: r4 (esp) ofs 4
  DW_CFA_nop
  DW_CFA_nop

Contents of the .debug_info section (loaded from iso/boot/kernel.bin):

  Compilation Unit @ offset 0x0:
   Length:        0xb4d (32-bit)
   Version:       4
   Abbrev Offset: 0x0
   Pointer Size:  4
 <0><b>: Abbrev Number: 1 (DW_TAG_compile_unit)
    <c>   DW_AT_producer    : (indirect string, offset: 0x308): GNU C17 9.4.0 -m32 -mtune=generic -march=i686 -g -fno-pie -ffreestanding -fasynchronous-unwind-tables -fstack-clash-protection -fcf-protection
    <10>   DW_AT_language    : 12	(ANSI C99)
    <11>   DW_AT_name        : (indirect string, offset: 0x1bf): src/kernel/vmem.c
    <15>   DW_AT_comp_dir    : (indirect string, offset: 0x162): /home/iliashdz/Desktop/Projects/apostrof
    <19>   DW_AT_low_pc      : 0x104c33
    <1d>   DW_AT_high_pc     : 0xa91
    <21>   DW_AT_stmt_list   : 0x0
 <1><25>: Abbrev Number: 2 (DW_TAG_base_type)
    <26>   DW_AT_byte_size   : 1
    <27>   DW_AT_encoding    : 6	(signed char)
    <28>   DW_AT_name        : (indirect string, offset: 0x1ef): char
 <1><2c>: Abbrev Number: 2 (DW_TAG_base_type)
    <2d>   DW_AT_byte_size   : 2
    <2e>   DW_AT_encoding    : 5	(signed)
    <2f>   DW_AT_name        : (indirect string, offset: 0x6f): short int
 <1><33>: Abbrev Number: 3 (DW_TAG_base_type)
    <34>   DW_AT_byte_size   : 4
    <35>   DW_AT_encoding    : 5	(signed)
    <36>   DW_AT_name        : int
 <1><3a>: Abbrev Number: 2 (DW_TAG_base_type)
    <3b>   DW_AT_byte_size   : 8
    <3c>   DW_AT_encoding    : 5	(signed)
    <3d>   DW_AT_name        : (indirect string, offset: 0x128): long long int
 <1><41>: Abbrev Number: 4 (DW_TAG_typedef)
    <42>   DW_AT_name        : u8
    <45>   DW_AT_decl_file   : 2
    <46>   DW_AT_decl_line   : 10
    <47>   DW_AT_decl_column : 28
    <48>   DW_AT_type        : <0x4c>
 <1><4c>: Abbrev Number: 2 (DW_TAG_base_type)
    <4d>   DW_AT_byte_size   : 1
    <4e>   DW_AT_encoding    : 8	(unsigned char)
    <4f>   DW_AT_name        : (indirect string, offset: 0x1e6): unsigned char
 <1><53>: Abbrev Number: 4 (DW_TAG_typedef)
    <54>   DW_AT_name        : u16
    <58>   DW_AT_decl_file   : 2
    <59>   DW_AT_decl_line   : 11
    <5a>   DW_AT_decl_column : 28
    <5b>   DW_AT_type        : <0x5f>
 <1><5f>: Abbrev Number: 2 (DW_TAG_base_type)
    <60>   DW_AT_byte_size   : 2
    <61>   DW_AT_encoding    : 7	(unsigned)
    <62>   DW_AT_name        : (indirect string, offset: 0x286): short unsigned int
 <1><66>: Abbrev Number: 4 (DW_TAG_typedef)
    <67>   DW_AT_name        : u32
    <6b>   DW_AT_decl_file   : 2
    <6c>   DW_AT_decl_line   : 12
    <6d>   DW_AT_decl_column : 28
    <6e>   DW_AT_type        : <0x72>
 <1><72>: Abbrev Number: 2 (DW_TAG_base_type)
    <73>   DW_AT_byte_size   : 4
    <74>   DW_AT_encoding    : 7	(unsigned)
    <75>   DW_AT_name        : (indirect string, offset: 0x205): unsigned int
 <1><79>: Abbrev Number: 2 (DW_TAG_base_type)
    <7a>   DW_AT_byte_size   : 8
    <7b>   DW_AT_encoding    : 7	(unsigned)
    <7c>   DW_AT_name        : (indirect string, offset: 0x1fb): long long unsigned int
 <1><80>: Abbrev Number: 2 (DW_TAG_base_type)
    <81>   DW_AT_byte_size   : 4
    <82>   DW_AT_encoding    : 4	(float)
    <83>   DW_AT_name        : (indirect string, offset: 0x114): float
 <1><87>: Abbrev Number: 2 (DW_TAG_base_type)
    <88>   DW_AT_byte_size   : 8
    <89>   DW_AT_encoding    : 4	(float)
    <8a>   DW_AT_name        : (indirect string, offset: 0x3a4): double
 <1><8e>: Abbrev Number: 5 (DW_TAG_structure_type)
    <8f>   DW_AT_name        : (indirect string, offset: 0x158): vmem_page
    <93>   DW_AT_byte_size   : 4
    <94>   DW_AT_decl_file   : 3
    <95>   DW_AT_decl_line   : 20
    <96>   DW_AT_decl_column : 16
    <97>   DW_AT_sibling     : <0x15c>
 <2><9b>: Abbrev Number: 6 (DW_TAG_member)
    <9c>   DW_AT_name        : (indirect string, offset: 0x917): present
    <a0>   DW_AT_decl_file   : 3
    <a1>   DW_AT_decl_line   : 21
    <a2>   DW_AT_decl_column : 9
    <a3>   DW_AT_type        : <0x66>
    <a7>   DW_AT_byte_size   : 4
    <a8>   DW_AT_bit_size    : 1
    <a9>   DW_AT_bit_offset  : 31
    <aa>   DW_AT_data_member_location: 0
 <2><ab>: Abbrev Number: 6 (DW_TAG_member)
    <ac>   DW_AT_name        : (indirect string, offset: 0x0): writable
    <b0>   DW_AT_decl_file   : 3
    <b1>   DW_AT_decl_line   : 22
    <b2>   DW_AT_decl_column : 9
    <b3>   DW_AT_type        : <0x66>
    <b7>   DW_AT_byte_size   : 4
    <b8>   DW_AT_bit_size    : 1
    <b9>   DW_AT_bit_offset  : 30
    <ba>   DW_AT_data_member_location: 0
 <2><bb>: Abbrev Number: 6 (DW_TAG_member)
    <bc>   DW_AT_name        : (indirect string, offset: 0x281): user
    <c0>   DW_AT_decl_file   : 3
    <c1>   DW_AT_decl_line   : 23
    <c2>   DW_AT_decl_column : 9
    <c3>   DW_AT_type        : <0x66>
    <c7>   DW_AT_byte_size   : 4
    <c8>   DW_AT_bit_size    : 1
    <c9>   DW_AT_bit_offset  : 29
    <ca>   DW_AT_data_member_location: 0
 <2><cb>: Abbrev Number: 7 (DW_TAG_member)
    <cc>   DW_AT_name        : pwt
    <d0>   DW_AT_decl_file   : 3
    <d1>   DW_AT_decl_line   : 24
    <d2>   DW_AT_decl_column : 9
    <d3>   DW_AT_type        : <0x66>
    <d7>   DW_AT_byte_size   : 4
    <d8>   DW_AT_bit_size    : 1
    <d9>   DW_AT_bit_offset  : 28
    <da>   DW_AT_data_member_location: 0
 <2><db>: Abbrev Number: 7 (DW_TAG_member)
    <dc>   DW_AT_name        : pcd
    <e0>   DW_AT_decl_file   : 3
    <e1>   DW_AT_decl_line   : 25
    <e2>   DW_AT_decl_column : 9
    <e3>   DW_AT_type        : <0x66>
    <e7>   DW_AT_byte_size   : 4
    <e8>   DW_AT_bit_size    : 1
    <e9>   DW_AT_bit_offset  : 27
    <ea>   DW_AT_data_member_location: 0
 <2><eb>: Abbrev Number: 6 (DW_TAG_member)
    <ec>   DW_AT_name        : (indirect string, offset: 0xab): accessed
    <f0>   DW_AT_decl_file   : 3
    <f1>   DW_AT_decl_line   : 26
    <f2>   DW_AT_decl_column : 9
    <f3>   DW_AT_type        : <0x66>
    <f7>   DW_AT_byte_size   : 4
    <f8>   DW_AT_bit_size    : 1
    <f9>   DW_AT_bit_offset  : 26
    <fa>   DW_AT_data_member_location: 0
 <2><fb>: Abbrev Number: 6 (DW_TAG_member)
    <fc>   DW_AT_name        : (indirect string, offset: 0x233): dirty
    <100>   DW_AT_decl_file   : 3
    <101>   DW_AT_decl_line   : 27
    <102>   DW_AT_decl_column : 9
    <103>   DW_AT_type        : <0x66>
    <107>   DW_AT_byte_size   : 4
    <108>   DW_AT_bit_size    : 1
    <109>   DW_AT_bit_offset  : 25
    <10a>   DW_AT_data_member_location: 0
 <2><10b>: Abbrev Number: 6 (DW_TAG_member)
    <10c>   DW_AT_name        : (indirect string, offset: 0x2a8): four_mb
    <110>   DW_AT_decl_file   : 3
    <111>   DW_AT_decl_line   : 28
    <112>   DW_AT_decl_column : 9
    <113>   DW_AT_type        : <0x66>
    <117>   DW_AT_byte_size   : 4
    <118>   DW_AT_bit_size    : 1
    <119>   DW_AT_bit_offset  : 24
    <11a>   DW_AT_data_member_location: 0
 <2><11b>: Abbrev Number: 6 (DW_TAG_member)
    <11c>   DW_AT_name        : (indirect string, offset: 0x2df): cpu_global
    <120>   DW_AT_decl_file   : 3
    <121>   DW_AT_decl_line   : 29
    <122>   DW_AT_decl_column : 9
    <123>   DW_AT_type        : <0x66>
    <127>   DW_AT_byte_size   : 4
    <128>   DW_AT_bit_size    : 1
    <129>   DW_AT_bit_offset  : 23
    <12a>   DW_AT_data_member_location: 0
 <2><12b>: Abbrev Number: 6 (DW_TAG_member)
    <12c>   DW_AT_name        : (indirect string, offset: 0x2ba): lv4_global
    <130>   DW_AT_decl_file   : 3
    <131>   DW_AT_decl_line   : 30
    <132>   DW_AT_decl_column : 9
    <133>   DW_AT_type        : <0x66>
    <137>   DW_AT_byte_size   : 4
    <138>   DW_AT_bit_size    : 1
    <139>   DW_AT_bit_offset  : 22
    <13a>   DW_AT_data_member_location: 0
 <2><13b>: Abbrev Number: 6 (DW_TAG_member)
    <13c>   DW_AT_name        : (indirect string, offset: 0x43d): reserved
    <140>   DW_AT_decl_file   : 3
    <141>   DW_AT_decl_line   : 31
    <142>   DW_AT_decl_column : 9
    <143>   DW_AT_type        : <0x66>
    <147>   DW_AT_byte_size   : 4
    <148>   DW_AT_bit_size    : 2
    <149>   DW_AT_bit_offset  : 20
    <14a>   DW_AT_data_member_location: 0
 <2><14b>: Abbrev Number: 6 (DW_TAG_member)
    <14c>   DW_AT_name        : (indirect string, offset: 0x1ae): frame
    <150>   DW_AT_decl_file   : 3
    <151>   DW_AT_decl_line   : 32
    <152>   DW_AT_decl_column : 9
    <153>   DW_AT_type        : <0x66>
    <157>   DW_AT_byte_size   : 4
    <158>   DW_AT_bit_size    : 20
    <159>   DW_AT_bit_offset  : 0
    <15a>   DW_AT_data_member_location: 0
 <2><15b>: Abbrev Number: 0
 <1><15c>: Abbrev Number: 8 (DW_TAG_typedef)
    <15d>   DW_AT_name        : (indirect string, offset: 0x158): vmem_page
    <161>   DW_AT_decl_file   : 3
    <162>   DW_AT_decl_line   : 33
    <163>   DW_AT_decl_column : 3
    <164>   DW_AT_type        : <0x8e>
 <1><168>: Abbrev Number: 5 (DW_TAG_structure_type)
    <169>   DW_AT_name        : (indirect string, offset: 0x52): vmem_table_entry
    <16d>   DW_AT_byte_size   : 4
    <16e>   DW_AT_decl_file   : 3
    <16f>   DW_AT_decl_line   : 35
    <170>   DW_AT_decl_column : 16
    <171>   DW_AT_sibling     : <0x226>
 <2><175>: Abbrev Number: 6 (DW_TAG_member)
    <176>   DW_AT_name        : (indirect string, offset: 0x917): present
    <17a>   DW_AT_decl_file   : 3
    <17b>   DW_AT_decl_line   : 36
    <17c>   DW_AT_decl_column : 9
    <17d>   DW_AT_type        : <0x66>
    <181>   DW_AT_byte_size   : 4
    <182>   DW_AT_bit_size    : 1
    <183>   DW_AT_bit_offset  : 31
    <184>   DW_AT_data_member_location: 0
 <2><185>: Abbrev Number: 6 (DW_TAG_member)
    <186>   DW_AT_name        : (indirect string, offset: 0x0): writable
    <18a>   DW_AT_decl_file   : 3
    <18b>   DW_AT_decl_line   : 37
    <18c>   DW_AT_decl_column : 9
    <18d>   DW_AT_type        : <0x66>
    <191>   DW_AT_byte_size   : 4
    <192>   DW_AT_bit_size    : 1
    <193>   DW_AT_bit_offset  : 30
    <194>   DW_AT_data_member_location: 0
 <2><195>: Abbrev Number: 6 (DW_TAG_member)
    <196>   DW_AT_name        : (indirect string, offset: 0x281): user
    <19a>   DW_AT_decl_file   : 3
    <19b>   DW_AT_decl_line   : 38
    <19c>   DW_AT_decl_column : 9
    <19d>   DW_AT_type        : <0x66>
    <1a1>   DW_AT_byte_size   : 4
    <1a2>   DW_AT_bit_size    : 1
    <1a3>   DW_AT_bit_offset  : 29
    <1a4>   DW_AT_data_member_location: 0
 <2><1a5>: Abbrev Number: 7 (DW_TAG_member)
    <1a6>   DW_AT_name        : pwt
    <1aa>   DW_AT_decl_file   : 3
    <1ab>   DW_AT_decl_line   : 39
    <1ac>   DW_AT_decl_column : 9
    <1ad>   DW_AT_type        : <0x66>
    <1b1>   DW_AT_byte_size   : 4
    <1b2>   DW_AT_bit_size    : 1
    <1b3>   DW_AT_bit_offset  : 28
    <1b4>   DW_AT_data_member_location: 0
 <2><1b5>: Abbrev Number: 7 (DW_TAG_member)
    <1b6>   DW_AT_name        : pcd
    <1ba>   DW_AT_decl_file   : 3
    <1bb>   DW_AT_decl_line   : 40
    <1bc>   DW_AT_decl_column : 9
    <1bd>   DW_AT_type        : <0x66>
    <1c1>   DW_AT_byte_size   : 4
    <1c2>   DW_AT_bit_size    : 1
    <1c3>   DW_AT_bit_offset  : 27
    <1c4>   DW_AT_data_member_location: 0
 <2><1c5>: Abbrev Number: 6 (DW_TAG_member)
    <1c6>   DW_AT_name        : (indirect string, offset: 0xab): accessed
    <1ca>   DW_AT_decl_file   : 3
    <1cb>   DW_AT_decl_line   : 41
    <1cc>   DW_AT_decl_column : 9
    <1cd>   DW_AT_type        : <0x66>
    <1d1>   DW_AT_byte_size   : 4
    <1d2>   DW_AT_bit_size    : 1
    <1d3>   DW_AT_bit_offset  : 26
    <1d4>   DW_AT_data_member_location: 0
 <2><1d5>: Abbrev Number: 6 (DW_TAG_member)
    <1d6>   DW_AT_name        : (indirect string, offset: 0x3ec): intelresv
    <1da>   DW_AT_decl_file   : 3
    <1db>   DW_AT_decl_line   : 42
    <1dc>   DW_AT_decl_column : 9
    <1dd>   DW_AT_type        : <0x66>
    <1e1>   DW_AT_byte_size   : 4
    <1e2>   DW_AT_bit_size    : 1
    <1e3>   DW_AT_bit_offset  : 25
    <1e4>   DW_AT_data_member_location: 0
 <2><1e5>: Abbrev Number: 6 (DW_TAG_member)
    <1e6>   DW_AT_name        : (indirect string, offset: 0x2a8): four_mb
    <1ea>   DW_AT_decl_file   : 3
    <1eb>   DW_AT_decl_line   : 43
    <1ec>   DW_AT_decl_column : 9
    <1ed>   DW_AT_type        : <0x66>
    <1f1>   DW_AT_byte_size   : 4
    <1f2>   DW_AT_bit_size    : 1
    <1f3>   DW_AT_bit_offset  : 24
    <1f4>   DW_AT_data_member_location: 0
 <2><1f5>: Abbrev Number: 6 (DW_TAG_member)
    <1f6>   DW_AT_name        : (indirect string, offset: 0x2be): global
    <1fa>   DW_AT_decl_file   : 3
    <1fb>   DW_AT_decl_line   : 44
    <1fc>   DW_AT_decl_column : 9
    <1fd>   DW_AT_type        : <0x66>
    <201>   DW_AT_byte_size   : 4
    <202>   DW_AT_bit_size    : 1
    <203>   DW_AT_bit_offset  : 23
    <204>   DW_AT_data_member_location: 0
 <2><205>: Abbrev Number: 6 (DW_TAG_member)
    <206>   DW_AT_name        : (indirect string, offset: 0x43d): reserved
    <20a>   DW_AT_decl_file   : 3
    <20b>   DW_AT_decl_line   : 45
    <20c>   DW_AT_decl_column : 9
    <20d>   DW_AT_type        : <0x66>
    <211>   DW_AT_byte_size   : 4
    <212>   DW_AT_bit_size    : 3
    <213>   DW_AT_bit_offset  : 20
    <214>   DW_AT_data_member_location: 0
 <2><215>: Abbrev Number: 6 (DW_TAG_member)
    <216>   DW_AT_name        : (indirect string, offset: 0x1ae): frame
    <21a>   DW_AT_decl_file   : 3
    <21b>   DW_AT_decl_line   : 46
    <21c>   DW_AT_decl_column : 9
    <21d>   DW_AT_type        : <0x66>
    <221>   DW_AT_byte_size   : 4
    <222>   DW_AT_bit_size    : 20
    <223>   DW_AT_bit_offset  : 0
    <224>   DW_AT_data_member_location: 0
 <2><225>: Abbrev Number: 0
 <1><226>: Abbrev Number: 8 (DW_TAG_typedef)
    <227>   DW_AT_name        : (indirect string, offset: 0x52): vmem_table_entry
    <22b>   DW_AT_decl_file   : 3
    <22c>   DW_AT_decl_line   : 47
    <22d>   DW_AT_decl_column : 3
    <22e>   DW_AT_type        : <0x168>
 <1><232>: Abbrev Number: 9 (DW_TAG_structure_type)
    <233>   DW_AT_name        : (indirect string, offset: 0x3f6): vmem_table
    <237>   DW_AT_byte_size   : 4096
    <239>   DW_AT_decl_file   : 3
    <23a>   DW_AT_decl_line   : 49
    <23b>   DW_AT_decl_column : 16
    <23c>   DW_AT_sibling     : <0x24e>
 <2><240>: Abbrev Number: 10 (DW_TAG_member)
    <241>   DW_AT_name        : (indirect string, offset: 0x1b9): pages
    <245>   DW_AT_decl_file   : 3
    <246>   DW_AT_decl_line   : 50
    <247>   DW_AT_decl_column : 15
    <248>   DW_AT_type        : <0x24e>
    <24c>   DW_AT_data_member_location: 0
 <2><24d>: Abbrev Number: 0
 <1><24e>: Abbrev Number: 11 (DW_TAG_array_type)
    <24f>   DW_AT_type        : <0x15c>
    <253>   DW_AT_sibling     : <0x25f>
 <2><257>: Abbrev Number: 12 (DW_TAG_subrange_type)
    <258>   DW_AT_type        : <0x72>
    <25c>   DW_AT_upper_bound : 1023
 <2><25e>: Abbrev Number: 0
 <1><25f>: Abbrev Number: 8 (DW_TAG_typedef)
    <260>   DW_AT_name        : (indirect string, offset: 0x3f6): vmem_table
    <264>   DW_AT_decl_file   : 3
    <265>   DW_AT_decl_line   : 51
    <266>   DW_AT_decl_column : 3
    <267>   DW_AT_type        : <0x232>
 <1><26b>: Abbrev Number: 9 (DW_TAG_structure_type)
    <26c>   DW_AT_name        : (indirect string, offset: 0x29): vmem
    <270>   DW_AT_byte_size   : 4096
    <272>   DW_AT_decl_file   : 3
    <273>   DW_AT_decl_line   : 53
    <274>   DW_AT_decl_column : 16
    <275>   DW_AT_sibling     : <0x287>
 <2><279>: Abbrev Number: 10 (DW_TAG_member)
    <27a>   DW_AT_name        : (indirect string, offset: 0x146): tables
    <27e>   DW_AT_decl_file   : 3
    <27f>   DW_AT_decl_line   : 54
    <280>   DW_AT_decl_column : 22
    <281>   DW_AT_type        : <0x287>
    <285>   DW_AT_data_member_location: 0
 <2><286>: Abbrev Number: 0
 <1><287>: Abbrev Number: 11 (DW_TAG_array_type)
    <288>   DW_AT_type        : <0x226>
    <28c>   DW_AT_sibling     : <0x298>
 <2><290>: Abbrev Number: 12 (DW_TAG_subrange_type)
    <291>   DW_AT_type        : <0x72>
    <295>   DW_AT_upper_bound : 1023
 <2><297>: Abbrev Number: 0
 <1><298>: Abbrev Number: 8 (DW_TAG_typedef)
    <299>   DW_AT_name        : (indirect string, offset: 0x29): vmem
    <29d>   DW_AT_decl_file   : 3
    <29e>   DW_AT_decl_line   : 55
    <29f>   DW_AT_decl_column : 3
    <2a0>   DW_AT_type        : <0x26b>
 <1><2a4>: Abbrev Number: 13 (DW_TAG_variable)
    <2a5>   DW_AT_name        : (indirect string, offset: 0x239): kernel_memory
    <2a9>   DW_AT_decl_file   : 3
    <2aa>   DW_AT_decl_line   : 57
    <2ab>   DW_AT_decl_column : 14
    <2ac>   DW_AT_type        : <0x2b0>
    <2b0>   DW_AT_external    : 1
    <2b0>   DW_AT_declaration : 1
 <1><2b0>: Abbrev Number: 14 (DW_TAG_pointer_type)
    <2b1>   DW_AT_byte_size   : 4
    <2b2>   DW_AT_type        : <0x298>
 <1><2b6>: Abbrev Number: 15 (DW_TAG_structure_type)
    <2b7>   DW_AT_name        : fd
    <2ba>   DW_AT_byte_size   : 24
    <2bb>   DW_AT_decl_file   : 4
    <2bc>   DW_AT_decl_line   : 19
    <2bd>   DW_AT_decl_column : 16
    <2be>   DW_AT_sibling     : <0x311>
 <2><2c2>: Abbrev Number: 10 (DW_TAG_member)
    <2c3>   DW_AT_name        : (indirect string, offset: 0x437): magic
    <2c7>   DW_AT_decl_file   : 4
    <2c8>   DW_AT_decl_line   : 20
    <2c9>   DW_AT_decl_column : 9
    <2ca>   DW_AT_type        : <0x66>
    <2ce>   DW_AT_data_member_location: 0
 <2><2cf>: Abbrev Number: 10 (DW_TAG_member)
    <2d0>   DW_AT_name        : (indirect string, offset: 0x984): type
    <2d4>   DW_AT_decl_file   : 4
    <2d5>   DW_AT_decl_line   : 21
    <2d6>   DW_AT_decl_column : 8
    <2d7>   DW_AT_type        : <0x41>
    <2db>   DW_AT_data_member_location: 4
 <2><2dc>: Abbrev Number: 10 (DW_TAG_member)
    <2dd>   DW_AT_name        : (indirect string, offset: 0x2f7): buffer
    <2e1>   DW_AT_decl_file   : 4
    <2e2>   DW_AT_decl_line   : 23
    <2e3>   DW_AT_decl_column : 11
    <2e4>   DW_AT_type        : <0x311>
    <2e8>   DW_AT_data_member_location: 8
 <2><2e9>: Abbrev Number: 10 (DW_TAG_member)
    <2ea>   DW_AT_name        : (indirect string, offset: 0x212): buffer_size
    <2ee>   DW_AT_decl_file   : 4
    <2ef>   DW_AT_decl_line   : 24
    <2f0>   DW_AT_decl_column : 11
    <2f1>   DW_AT_type        : <0x66>
    <2f5>   DW_AT_data_member_location: 12
 <2><2f6>: Abbrev Number: 10 (DW_TAG_member)
    <2f7>   DW_AT_name        : (indirect string, offset: 0x3c): pipe
    <2fb>   DW_AT_decl_file   : 4
    <2fc>   DW_AT_decl_line   : 26
    <2fd>   DW_AT_decl_column : 16
    <2fe>   DW_AT_type        : <0x317>
    <302>   DW_AT_data_member_location: 16
 <2><303>: Abbrev Number: 10 (DW_TAG_member)
    <304>   DW_AT_name        : (indirect string, offset: 0x1f4): cursor
    <308>   DW_AT_decl_file   : 4
    <309>   DW_AT_decl_line   : 28
    <30a>   DW_AT_decl_column : 8
    <30b>   DW_AT_type        : <0x41>
    <30f>   DW_AT_data_member_location: 20
 <2><310>: Abbrev Number: 0
 <1><311>: Abbrev Number: 14 (DW_TAG_pointer_type)
    <312>   DW_AT_byte_size   : 4
    <313>   DW_AT_type        : <0x25>
 <1><317>: Abbrev Number: 14 (DW_TAG_pointer_type)
    <318>   DW_AT_byte_size   : 4
    <319>   DW_AT_type        : <0x2b6>
 <1><31d>: Abbrev Number: 4 (DW_TAG_typedef)
    <31e>   DW_AT_name        : fd
    <321>   DW_AT_decl_file   : 4
    <322>   DW_AT_decl_line   : 29
    <323>   DW_AT_decl_column : 3
    <324>   DW_AT_type        : <0x2b6>
 <1><328>: Abbrev Number: 13 (DW_TAG_variable)
    <329>   DW_AT_name        : (indirect string, offset: 0x63): void_stream
    <32d>   DW_AT_decl_file   : 4
    <32e>   DW_AT_decl_line   : 31
    <32f>   DW_AT_decl_column : 12
    <330>   DW_AT_type        : <0x334>
    <334>   DW_AT_external    : 1
    <334>   DW_AT_declaration : 1
 <1><334>: Abbrev Number: 14 (DW_TAG_pointer_type)
    <335>   DW_AT_byte_size   : 4
    <336>   DW_AT_type        : <0x31d>
 <1><33a>: Abbrev Number: 13 (DW_TAG_variable)
    <33b>   DW_AT_name        : (indirect string, offset: 0x83): cursor_y
    <33f>   DW_AT_decl_file   : 5
    <340>   DW_AT_decl_line   : 29
    <341>   DW_AT_decl_column : 11
    <342>   DW_AT_type        : <0x41>
    <346>   DW_AT_external    : 1
    <346>   DW_AT_declaration : 1
 <1><346>: Abbrev Number: 16 (DW_TAG_variable)
    <347>   DW_AT_name        : (indirect string, offset: 0x25e): vmem_bitmap
    <34b>   DW_AT_decl_file   : 1
    <34c>   DW_AT_decl_line   : 6
    <34d>   DW_AT_decl_column : 5
    <34e>   DW_AT_type        : <0x358>
    <352>   DW_AT_external    : 1
    <352>   DW_AT_location    : 5 byte block: 3 a8 f1 12 0 	(DW_OP_addr: 12f1a8)
 <1><358>: Abbrev Number: 14 (DW_TAG_pointer_type)
    <359>   DW_AT_byte_size   : 4
    <35a>   DW_AT_type        : <0x41>
 <1><35e>: Abbrev Number: 16 (DW_TAG_variable)
    <35f>   DW_AT_name        : (indirect string, offset: 0x18b): vmem_bitmapCount
    <363>   DW_AT_decl_file   : 1
    <364>   DW_AT_decl_line   : 7
    <365>   DW_AT_decl_column : 5
    <366>   DW_AT_type        : <0x66>
    <36a>   DW_AT_external    : 1
    <36a>   DW_AT_location    : 5 byte block: 3 ac f1 12 0 	(DW_OP_addr: 12f1ac)
 <1><370>: Abbrev Number: 16 (DW_TAG_variable)
    <371>   DW_AT_name        : (indirect string, offset: 0x21): current_vmem
    <375>   DW_AT_decl_file   : 1
    <376>   DW_AT_decl_line   : 9
    <377>   DW_AT_decl_column : 7
    <378>   DW_AT_type        : <0x2b0>
    <37c>   DW_AT_external    : 1
    <37c>   DW_AT_location    : 5 byte block: 3 b0 f1 12 0 	(DW_OP_addr: 12f1b0)
 <1><382>: Abbrev Number: 17 (DW_TAG_variable)
    <383>   DW_AT_specification: <0x2a4>
    <387>   DW_AT_decl_file   : 1
    <388>   DW_AT_decl_line   : 10
    <389>   DW_AT_decl_column : 7
    <38a>   DW_AT_location    : 5 byte block: 3 b4 f1 12 0 	(DW_OP_addr: 12f1b4)
 <1><390>: Abbrev Number: 18 (DW_TAG_subprogram)
    <391>   DW_AT_external    : 1
    <391>   DW_AT_name        : (indirect string, offset: 0x2b0): vmem_init
    <395>   DW_AT_decl_file   : 1
    <396>   DW_AT_decl_line   : 271
    <398>   DW_AT_decl_column : 6
    <399>   DW_AT_low_pc      : 0x10564f
    <39d>   DW_AT_high_pc     : 0x75
    <3a1>   DW_AT_frame_base  : 1 byte block: 9c 	(DW_OP_call_frame_cfa)
    <3a3>   DW_AT_GNU_all_tail_call_sites: 1
    <3a3>   DW_AT_sibling     : <0x3c0>
 <2><3a7>: Abbrev Number: 19 (DW_TAG_lexical_block)
    <3a8>   DW_AT_low_pc      : 0x105673
    <3ac>   DW_AT_high_pc     : 0x38
 <3><3b0>: Abbrev Number: 20 (DW_TAG_variable)
    <3b1>   DW_AT_name        : i
    <3b3>   DW_AT_decl_file   : 1
    <3b4>   DW_AT_decl_line   : 276
    <3b6>   DW_AT_decl_column : 14
    <3b7>   DW_AT_type        : <0x66>
    <3bb>   DW_AT_location    : 2 byte block: 91 6c 	(DW_OP_fbreg: -20)
 <3><3be>: Abbrev Number: 0
 <2><3bf>: Abbrev Number: 0
 <1><3c0>: Abbrev Number: 21 (DW_TAG_subprogram)
    <3c1>   DW_AT_external    : 1
    <3c1>   DW_AT_name        : (indirect string, offset: 0x227): vmem_enable
    <3c5>   DW_AT_decl_file   : 1
    <3c6>   DW_AT_decl_line   : 264
    <3c8>   DW_AT_decl_column : 6
    <3c9>   DW_AT_low_pc      : 0x10562f
    <3cd>   DW_AT_high_pc     : 0x20
    <3d1>   DW_AT_frame_base  : 1 byte block: 9c 	(DW_OP_call_frame_cfa)
    <3d3>   DW_AT_GNU_all_call_sites: 1
    <3d3>   DW_AT_sibling     : <0x3e8>
 <2><3d7>: Abbrev Number: 20 (DW_TAG_variable)
    <3d8>   DW_AT_name        : cr0
    <3dc>   DW_AT_decl_file   : 1
    <3dd>   DW_AT_decl_line   : 265
    <3df>   DW_AT_decl_column : 9
    <3e0>   DW_AT_type        : <0x66>
    <3e4>   DW_AT_location    : 2 byte block: 91 74 	(DW_OP_fbreg: -12)
 <2><3e7>: Abbrev Number: 0
 <1><3e8>: Abbrev Number: 22 (DW_TAG_subprogram)
    <3e9>   DW_AT_external    : 1
    <3e9>   DW_AT_name        : (indirect string, offset: 0x3bb): vmem_switchMemory
    <3ed>   DW_AT_decl_file   : 1
    <3ee>   DW_AT_decl_line   : 259
    <3f0>   DW_AT_decl_column : 6
    <3f1>   DW_AT_prototyped  : 1
    <3f1>   DW_AT_low_pc      : 0x105617
    <3f5>   DW_AT_high_pc     : 0x18
    <3f9>   DW_AT_frame_base  : 1 byte block: 9c 	(DW_OP_call_frame_cfa)
    <3fb>   DW_AT_GNU_all_call_sites: 1
    <3fb>   DW_AT_sibling     : <0x410>
 <2><3ff>: Abbrev Number: 23 (DW_TAG_formal_parameter)
    <400>   DW_AT_name        : (indirect string, offset: 0x430): virmem
    <404>   DW_AT_decl_file   : 1
    <405>   DW_AT_decl_line   : 259
    <407>   DW_AT_decl_column : 30
    <408>   DW_AT_type        : <0x2b0>
    <40c>   DW_AT_location    : 2 byte block: 91 0 	(DW_OP_fbreg: 0)
 <2><40f>: Abbrev Number: 0
 <1><410>: Abbrev Number: 24 (DW_TAG_subprogram)
    <411>   DW_AT_external    : 1
    <411>   DW_AT_name        : (indirect string, offset: 0xf6): vmem_freeMemory
    <415>   DW_AT_decl_file   : 1
    <416>   DW_AT_decl_line   : 228
    <417>   DW_AT_decl_column : 6
    <418>   DW_AT_prototyped  : 1
    <418>   DW_AT_low_pc      : 0x1054d2
    <41c>   DW_AT_high_pc     : 0x145
    <420>   DW_AT_frame_base  : 1 byte block: 9c 	(DW_OP_call_frame_cfa)
    <422>   DW_AT_GNU_all_tail_call_sites: 1
    <422>   DW_AT_sibling     : <0x4cf>
 <2><426>: Abbrev Number: 25 (DW_TAG_formal_parameter)
    <427>   DW_AT_name        : (indirect string, offset: 0x430): virmem
    <42b>   DW_AT_decl_file   : 1
    <42c>   DW_AT_decl_line   : 228
    <42d>   DW_AT_decl_column : 28
    <42e>   DW_AT_type        : <0x2b0>
    <432>   DW_AT_location    : 2 byte block: 91 0 	(DW_OP_fbreg: 0)
 <2><435>: Abbrev Number: 26 (DW_TAG_lexical_block)
    <436>   DW_AT_low_pc      : 0x1054e7
    <43a>   DW_AT_high_pc     : 0xd2
    <43e>   DW_AT_sibling     : <0x4b7>
 <3><442>: Abbrev Number: 27 (DW_TAG_variable)
    <443>   DW_AT_name        : p
    <445>   DW_AT_decl_file   : 1
    <446>   DW_AT_decl_line   : 231
    <447>   DW_AT_decl_column : 14
    <448>   DW_AT_type        : <0x66>
    <44c>   DW_AT_location    : 2 byte block: 91 6c 	(DW_OP_fbreg: -20)
 <3><44f>: Abbrev Number: 19 (DW_TAG_lexical_block)
    <450>   DW_AT_low_pc      : 0x1054f3
    <454>   DW_AT_high_pc     : 0xb5
 <4><458>: Abbrev Number: 28 (DW_TAG_variable)
    <459>   DW_AT_name        : (indirect string, offset: 0x2cf): page
    <45d>   DW_AT_decl_file   : 1
    <45e>   DW_AT_decl_line   : 232
    <45f>   DW_AT_decl_column : 13
    <460>   DW_AT_type        : <0x53>
    <464>   DW_AT_location    : 2 byte block: 91 66 	(DW_OP_fbreg: -26)
 <4><467>: Abbrev Number: 28 (DW_TAG_variable)
    <468>   DW_AT_name        : (indirect string, offset: 0x97c): table
    <46c>   DW_AT_decl_file   : 1
    <46d>   DW_AT_decl_line   : 233
    <46e>   DW_AT_decl_column : 13
    <46f>   DW_AT_type        : <0x53>
    <473>   DW_AT_location    : 2 byte block: 91 64 	(DW_OP_fbreg: -28)
 <4><476>: Abbrev Number: 19 (DW_TAG_lexical_block)
    <477>   DW_AT_low_pc      : 0x10552b
    <47b>   DW_AT_high_pc     : 0x7d
 <5><47f>: Abbrev Number: 27 (DW_TAG_variable)
    <480>   DW_AT_name        : t
    <482>   DW_AT_decl_file   : 1
    <483>   DW_AT_decl_line   : 239
    <484>   DW_AT_decl_column : 25
    <485>   DW_AT_type        : <0x4cf>
    <489>   DW_AT_location    : 2 byte block: 91 60 	(DW_OP_fbreg: -32)
 <5><48c>: Abbrev Number: 19 (DW_TAG_lexical_block)
    <48d>   DW_AT_low_pc      : 0x10555b
    <491>   DW_AT_high_pc     : 0x4c
 <6><495>: Abbrev Number: 28 (DW_TAG_variable)
    <496>   DW_AT_name        : (indirect string, offset: 0x1d1): byte
    <49a>   DW_AT_decl_file   : 1
    <49b>   DW_AT_decl_line   : 243
    <49c>   DW_AT_decl_column : 21
    <49d>   DW_AT_type        : <0x66>
    <4a1>   DW_AT_location    : 2 byte block: 91 5c 	(DW_OP_fbreg: -36)
 <6><4a4>: Abbrev Number: 27 (DW_TAG_variable)
    <4a5>   DW_AT_name        : bit
    <4a9>   DW_AT_decl_file   : 1
    <4aa>   DW_AT_decl_line   : 244
    <4ab>   DW_AT_decl_column : 21
    <4ac>   DW_AT_type        : <0x66>
    <4b0>   DW_AT_location    : 2 byte block: 91 58 	(DW_OP_fbreg: -40)
 <6><4b3>: Abbrev Number: 0
 <5><4b4>: Abbrev Number: 0
 <4><4b5>: Abbrev Number: 0
 <3><4b6>: Abbrev Number: 0
 <2><4b7>: Abbrev Number: 19 (DW_TAG_lexical_block)
    <4b8>   DW_AT_low_pc      : 0x1055b9
    <4bc>   DW_AT_high_pc     : 0x48
 <3><4c0>: Abbrev Number: 27 (DW_TAG_variable)
    <4c1>   DW_AT_name        : i
    <4c3>   DW_AT_decl_file   : 1
    <4c4>   DW_AT_decl_line   : 251
    <4c5>   DW_AT_decl_column : 14
    <4c6>   DW_AT_type        : <0x33>
    <4ca>   DW_AT_location    : 2 byte block: 91 68 	(DW_OP_fbreg: -24)
 <3><4cd>: Abbrev Number: 0
 <2><4ce>: Abbrev Number: 0
 <1><4cf>: Abbrev Number: 14 (DW_TAG_pointer_type)
    <4d0>   DW_AT_byte_size   : 4
    <4d1>   DW_AT_type        : <0x25f>
 <1><4d5>: Abbrev Number: 29 (DW_TAG_subprogram)
    <4d6>   DW_AT_external    : 1
    <4d6>   DW_AT_name        : (indirect string, offset: 0x8c): vmem_createTaskMemory
    <4da>   DW_AT_decl_file   : 1
    <4db>   DW_AT_decl_line   : 207
    <4dc>   DW_AT_decl_column : 7
    <4dd>   DW_AT_prototyped  : 1
    <4dd>   DW_AT_type        : <0x2b0>
    <4e1>   DW_AT_low_pc      : 0x1053ec
    <4e5>   DW_AT_high_pc     : 0xe6
    <4e9>   DW_AT_frame_base  : 1 byte block: 9c 	(DW_OP_call_frame_cfa)
    <4eb>   DW_AT_GNU_all_tail_call_sites: 1
    <4eb>   DW_AT_sibling     : <0x58b>
 <2><4ef>: Abbrev Number: 25 (DW_TAG_formal_parameter)
    <4f0>   DW_AT_name        : (indirect string, offset: 0x3d2): code_size
    <4f4>   DW_AT_decl_file   : 1
    <4f5>   DW_AT_decl_line   : 207
    <4f6>   DW_AT_decl_column : 33
    <4f7>   DW_AT_type        : <0x66>
    <4fb>   DW_AT_location    : 2 byte block: 91 0 	(DW_OP_fbreg: 0)
 <2><4fe>: Abbrev Number: 25 (DW_TAG_formal_parameter)
    <4ff>   DW_AT_name        : (indirect string, offset: 0x14d): stack_size
    <503>   DW_AT_decl_file   : 1
    <504>   DW_AT_decl_line   : 207
    <505>   DW_AT_decl_column : 48
    <506>   DW_AT_type        : <0x66>
    <50a>   DW_AT_location    : 2 byte block: 91 4 	(DW_OP_fbreg: 4)
 <2><50d>: Abbrev Number: 28 (DW_TAG_variable)
    <50e>   DW_AT_name        : (indirect string, offset: 0x430): virmem
    <512>   DW_AT_decl_file   : 1
    <513>   DW_AT_decl_line   : 210
    <514>   DW_AT_decl_column : 11
    <515>   DW_AT_type        : <0x2b0>
    <519>   DW_AT_location    : 2 byte block: 91 64 	(DW_OP_fbreg: -28)
 <2><51c>: Abbrev Number: 28 (DW_TAG_variable)
    <51d>   DW_AT_name        : (indirect string, offset: 0x1b4): code_pages
    <521>   DW_AT_decl_file   : 1
    <522>   DW_AT_decl_line   : 213
    <523>   DW_AT_decl_column : 9
    <524>   DW_AT_type        : <0x66>
    <528>   DW_AT_location    : 2 byte block: 91 60 	(DW_OP_fbreg: -32)
 <2><52b>: Abbrev Number: 28 (DW_TAG_variable)
    <52c>   DW_AT_name        : (indirect string, offset: 0x446): stack_pages
    <530>   DW_AT_decl_file   : 1
    <531>   DW_AT_decl_line   : 214
    <532>   DW_AT_decl_column : 9
    <533>   DW_AT_type        : <0x66>
    <537>   DW_AT_location    : 2 byte block: 91 5c 	(DW_OP_fbreg: -36)
 <2><53a>: Abbrev Number: 28 (DW_TAG_variable)
    <53b>   DW_AT_name        : (indirect string, offset: 0x2c5): code_base_page
    <53f>   DW_AT_decl_file   : 1
    <540>   DW_AT_decl_line   : 216
    <541>   DW_AT_decl_column : 9
    <542>   DW_AT_type        : <0x66>
    <546>   DW_AT_location    : 2 byte block: 91 58 	(DW_OP_fbreg: -40)
 <2><549>: Abbrev Number: 28 (DW_TAG_variable)
    <54a>   DW_AT_name        : (indirect string, offset: 0x411): stack_base_page
    <54e>   DW_AT_decl_file   : 1
    <54f>   DW_AT_decl_line   : 217
    <550>   DW_AT_decl_column : 9
    <551>   DW_AT_type        : <0x66>
    <555>   DW_AT_location    : 2 byte block: 91 54 	(DW_OP_fbreg: -44)
 <2><558>: Abbrev Number: 26 (DW_TAG_lexical_block)
    <559>   DW_AT_low_pc      : 0x105469
    <55d>   DW_AT_high_pc     : 0x31
    <561>   DW_AT_sibling     : <0x573>
 <3><565>: Abbrev Number: 27 (DW_TAG_variable)
    <566>   DW_AT_name        : i
    <568>   DW_AT_decl_file   : 1
    <569>   DW_AT_decl_line   : 219
    <56a>   DW_AT_decl_column : 14
    <56b>   DW_AT_type        : <0x33>
    <56f>   DW_AT_location    : 2 byte block: 91 6c 	(DW_OP_fbreg: -20)
 <3><572>: Abbrev Number: 0
 <2><573>: Abbrev Number: 19 (DW_TAG_lexical_block)
    <574>   DW_AT_low_pc      : 0x10549a
    <578>   DW_AT_high_pc     : 0x33
 <3><57c>: Abbrev Number: 27 (DW_TAG_variable)
    <57d>   DW_AT_name        : i
    <57f>   DW_AT_decl_file   : 1
    <580>   DW_AT_decl_line   : 222
    <581>   DW_AT_decl_column : 14
    <582>   DW_AT_type        : <0x33>
    <586>   DW_AT_location    : 2 byte block: 91 68 	(DW_OP_fbreg: -24)
 <3><589>: Abbrev Number: 0
 <2><58a>: Abbrev Number: 0
 <1><58b>: Abbrev Number: 30 (DW_TAG_subprogram)
    <58c>   DW_AT_external    : 1
    <58c>   DW_AT_name        : (indirect string, offset: 0x247): vmem_cloneKernelMemory
    <590>   DW_AT_decl_file   : 1
    <591>   DW_AT_decl_line   : 197
    <592>   DW_AT_decl_column : 7
    <593>   DW_AT_type        : <0x2b0>
    <597>   DW_AT_low_pc      : 0x105399
    <59b>   DW_AT_high_pc     : 0x53
    <59f>   DW_AT_frame_base  : 1 byte block: 9c 	(DW_OP_call_frame_cfa)
    <5a1>   DW_AT_GNU_all_tail_call_sites: 1
    <5a1>   DW_AT_sibling     : <0x5b5>
 <2><5a5>: Abbrev Number: 28 (DW_TAG_variable)
    <5a6>   DW_AT_name        : (indirect string, offset: 0x430): virmem
    <5aa>   DW_AT_decl_file   : 1
    <5ab>   DW_AT_decl_line   : 199
    <5ac>   DW_AT_decl_column : 11
    <5ad>   DW_AT_type        : <0x2b0>
    <5b1>   DW_AT_location    : 2 byte block: 91 6c 	(DW_OP_fbreg: -20)
 <2><5b4>: Abbrev Number: 0
 <1><5b5>: Abbrev Number: 29 (DW_TAG_subprogram)
    <5b6>   DW_AT_external    : 1
    <5b6>   DW_AT_name        : (indirect string, offset: 0x26a): vmem_cloneMemoryDirect
    <5ba>   DW_AT_decl_file   : 1
    <5bb>   DW_AT_decl_line   : 190
    <5bc>   DW_AT_decl_column : 7
    <5bd>   DW_AT_prototyped  : 1
    <5bd>   DW_AT_type        : <0x2b0>
    <5c1>   DW_AT_low_pc      : 0x10536c
    <5c5>   DW_AT_high_pc     : 0x2d
    <5c9>   DW_AT_frame_base  : 1 byte block: 9c 	(DW_OP_call_frame_cfa)
    <5cb>   DW_AT_GNU_all_tail_call_sites: 1
    <5cb>   DW_AT_sibling     : <0x5ee>
 <2><5cf>: Abbrev Number: 31 (DW_TAG_formal_parameter)
    <5d0>   DW_AT_name        : src
    <5d4>   DW_AT_decl_file   : 1
    <5d5>   DW_AT_decl_line   : 190
    <5d6>   DW_AT_decl_column : 36
    <5d7>   DW_AT_type        : <0x2b0>
    <5db>   DW_AT_location    : 2 byte block: 91 0 	(DW_OP_fbreg: 0)
 <2><5de>: Abbrev Number: 28 (DW_TAG_variable)
    <5df>   DW_AT_name        : (indirect string, offset: 0x430): virmem
    <5e3>   DW_AT_decl_file   : 1
    <5e4>   DW_AT_decl_line   : 191
    <5e5>   DW_AT_decl_column : 11
    <5e6>   DW_AT_type        : <0x2b0>
    <5ea>   DW_AT_location    : 2 byte block: 91 6c 	(DW_OP_fbreg: -20)
 <2><5ed>: Abbrev Number: 0
 <1><5ee>: Abbrev Number: 29 (DW_TAG_subprogram)
    <5ef>   DW_AT_external    : 1
    <5ef>   DW_AT_name        : (indirect string, offset: 0xe5): vmem_cloneMemory
    <5f3>   DW_AT_decl_file   : 1
    <5f4>   DW_AT_decl_line   : 181
    <5f5>   DW_AT_decl_column : 7
    <5f6>   DW_AT_prototyped  : 1
    <5f6>   DW_AT_type        : <0x2b0>
    <5fa>   DW_AT_low_pc      : 0x10531c
    <5fe>   DW_AT_high_pc     : 0x50
    <602>   DW_AT_frame_base  : 1 byte block: 9c 	(DW_OP_call_frame_cfa)
    <604>   DW_AT_GNU_all_tail_call_sites: 1
    <604>   DW_AT_sibling     : <0x63e>
 <2><608>: Abbrev Number: 31 (DW_TAG_formal_parameter)
    <609>   DW_AT_name        : src
    <60d>   DW_AT_decl_file   : 1
    <60e>   DW_AT_decl_line   : 181
    <60f>   DW_AT_decl_column : 30
    <610>   DW_AT_type        : <0x2b0>
    <614>   DW_AT_location    : 2 byte block: 91 0 	(DW_OP_fbreg: 0)
 <2><617>: Abbrev Number: 28 (DW_TAG_variable)
    <618>   DW_AT_name        : (indirect string, offset: 0x430): virmem
    <61c>   DW_AT_decl_file   : 1
    <61d>   DW_AT_decl_line   : 182
    <61e>   DW_AT_decl_column : 11
    <61f>   DW_AT_type        : <0x2b0>
    <623>   DW_AT_location    : 2 byte block: 91 68 	(DW_OP_fbreg: -24)
 <2><626>: Abbrev Number: 19 (DW_TAG_lexical_block)
    <627>   DW_AT_low_pc      : 0x10532e
    <62b>   DW_AT_high_pc     : 0x39
 <3><62f>: Abbrev Number: 27 (DW_TAG_variable)
    <630>   DW_AT_name        : i
    <632>   DW_AT_decl_file   : 1
    <633>   DW_AT_decl_line   : 184
    <634>   DW_AT_decl_column : 14
    <635>   DW_AT_type        : <0x33>
    <639>   DW_AT_location    : 2 byte block: 91 6c 	(DW_OP_fbreg: -20)
 <3><63c>: Abbrev Number: 0
 <2><63d>: Abbrev Number: 0
 <1><63e>: Abbrev Number: 29 (DW_TAG_subprogram)
    <63f>   DW_AT_external    : 1
    <63f>   DW_AT_name        : (indirect string, offset: 0x3dc): vmem_cloneTable
    <643>   DW_AT_decl_file   : 1
    <644>   DW_AT_decl_line   : 171
    <645>   DW_AT_decl_column : 13
    <646>   DW_AT_prototyped  : 1
    <646>   DW_AT_type        : <0x4cf>
    <64a>   DW_AT_low_pc      : 0x1052bd
    <64e>   DW_AT_high_pc     : 0x5f
    <652>   DW_AT_frame_base  : 1 byte block: 9c 	(DW_OP_call_frame_cfa)
    <654>   DW_AT_GNU_all_tail_call_sites: 1
    <654>   DW_AT_sibling     : <0x684>
 <2><658>: Abbrev Number: 31 (DW_TAG_formal_parameter)
    <659>   DW_AT_name        : src
    <65d>   DW_AT_decl_file   : 1
    <65e>   DW_AT_decl_line   : 171
    <65f>   DW_AT_decl_column : 35
    <660>   DW_AT_type        : <0x2b0>
    <664>   DW_AT_location    : 2 byte block: 91 0 	(DW_OP_fbreg: 0)
 <2><667>: Abbrev Number: 31 (DW_TAG_formal_parameter)
    <668>   DW_AT_name        : i
    <66a>   DW_AT_decl_file   : 1
    <66b>   DW_AT_decl_line   : 171
    <66c>   DW_AT_decl_column : 44
    <66d>   DW_AT_type        : <0x33>
    <671>   DW_AT_location    : 2 byte block: 91 4 	(DW_OP_fbreg: 4)
 <2><674>: Abbrev Number: 28 (DW_TAG_variable)
    <675>   DW_AT_name        : (indirect string, offset: 0x97c): table
    <679>   DW_AT_decl_file   : 1
    <67a>   DW_AT_decl_line   : 174
    <67b>   DW_AT_decl_column : 17
    <67c>   DW_AT_type        : <0x4cf>
    <680>   DW_AT_location    : 2 byte block: 91 6c 	(DW_OP_fbreg: -20)
 <2><683>: Abbrev Number: 0
 <1><684>: Abbrev Number: 30 (DW_TAG_subprogram)
    <685>   DW_AT_external    : 1
    <685>   DW_AT_name        : (indirect string, offset: 0xc4): vmem_createMemory
    <689>   DW_AT_decl_file   : 1
    <68a>   DW_AT_decl_line   : 163
    <68b>   DW_AT_decl_column : 7
    <68c>   DW_AT_type        : <0x2b0>
    <690>   DW_AT_low_pc      : 0x105279
    <694>   DW_AT_high_pc     : 0x44
    <698>   DW_AT_frame_base  : 1 byte block: 9c 	(DW_OP_call_frame_cfa)
    <69a>   DW_AT_GNU_all_tail_call_sites: 1
    <69a>   DW_AT_sibling     : <0x6ae>
 <2><69e>: Abbrev Number: 28 (DW_TAG_variable)
    <69f>   DW_AT_name        : (indirect string, offset: 0x430): virmem
    <6a3>   DW_AT_decl_file   : 1
    <6a4>   DW_AT_decl_line   : 164
    <6a5>   DW_AT_decl_column : 11
    <6a6>   DW_AT_type        : <0x2b0>
    <6aa>   DW_AT_location    : 2 byte block: 91 6c 	(DW_OP_fbreg: -20)
 <2><6ad>: Abbrev Number: 0
 <1><6ae>: Abbrev Number: 29 (DW_TAG_subprogram)
    <6af>   DW_AT_external    : 1
    <6af>   DW_AT_name        : (indirect string, offset: 0x3ab): vmem_initBitmap
    <6b3>   DW_AT_decl_file   : 1
    <6b4>   DW_AT_decl_line   : 150
    <6b5>   DW_AT_decl_column : 4
    <6b6>   DW_AT_prototyped  : 1
    <6b6>   DW_AT_type        : <0x41>
    <6ba>   DW_AT_low_pc      : 0x10520e
    <6be>   DW_AT_high_pc     : 0x6b
    <6c2>   DW_AT_frame_base  : 1 byte block: 9c 	(DW_OP_call_frame_cfa)
    <6c4>   DW_AT_GNU_all_tail_call_sites: 1
    <6c4>   DW_AT_sibling     : <0x6f6>
 <2><6c8>: Abbrev Number: 25 (DW_TAG_formal_parameter)
    <6c9>   DW_AT_name        : (indirect string, offset: 0x2fe): mem_pages
    <6cd>   DW_AT_decl_file   : 1
    <6ce>   DW_AT_decl_line   : 150
    <6cf>   DW_AT_decl_column : 24
    <6d0>   DW_AT_type        : <0x66>
    <6d4>   DW_AT_location    : 2 byte block: 91 0 	(DW_OP_fbreg: 0)
 <2><6d7>: Abbrev Number: 28 (DW_TAG_variable)
    <6d8>   DW_AT_name        : (indirect string, offset: 0x2d4): user_pages
    <6dc>   DW_AT_decl_file   : 1
    <6dd>   DW_AT_decl_line   : 151
    <6de>   DW_AT_decl_column : 9
    <6df>   DW_AT_type        : <0x66>
    <6e3>   DW_AT_location    : 2 byte block: 91 6c 	(DW_OP_fbreg: -20)
 <2><6e6>: Abbrev Number: 28 (DW_TAG_variable)
    <6e7>   DW_AT_name        : (indirect string, offset: 0x16): bitmapSize
    <6eb>   DW_AT_decl_file   : 1
    <6ec>   DW_AT_decl_line   : 154
    <6ed>   DW_AT_decl_column : 9
    <6ee>   DW_AT_type        : <0x66>
    <6f2>   DW_AT_location    : 2 byte block: 91 68 	(DW_OP_fbreg: -24)
 <2><6f5>: Abbrev Number: 0
 <1><6f6>: Abbrev Number: 29 (DW_TAG_subprogram)
    <6f7>   DW_AT_external    : 1
    <6f7>   DW_AT_name        : (indirect string, offset: 0xd6): vmem_allocPage
    <6fb>   DW_AT_decl_file   : 1
    <6fc>   DW_AT_decl_line   : 141
    <6fd>   DW_AT_decl_column : 4
    <6fe>   DW_AT_prototyped  : 1
    <6fe>   DW_AT_type        : <0x41>
    <702>   DW_AT_low_pc      : 0x1051d4
    <706>   DW_AT_high_pc     : 0x3a
    <70a>   DW_AT_frame_base  : 1 byte block: 9c 	(DW_OP_call_frame_cfa)
    <70c>   DW_AT_GNU_all_tail_call_sites: 1
    <70c>   DW_AT_sibling     : <0x74d>
 <2><710>: Abbrev Number: 25 (DW_TAG_formal_parameter)
    <711>   DW_AT_name        : (indirect string, offset: 0x430): virmem
    <715>   DW_AT_decl_file   : 1
    <716>   DW_AT_decl_line   : 141
    <717>   DW_AT_decl_column : 25
    <718>   DW_AT_type        : <0x2b0>
    <71c>   DW_AT_location    : 2 byte block: 91 0 	(DW_OP_fbreg: 0)
 <2><71f>: Abbrev Number: 25 (DW_TAG_formal_parameter)
    <720>   DW_AT_name        : (indirect string, offset: 0xb4): page_addr
    <724>   DW_AT_decl_file   : 1
    <725>   DW_AT_decl_line   : 141
    <726>   DW_AT_decl_column : 37
    <727>   DW_AT_type        : <0x66>
    <72b>   DW_AT_location    : 2 byte block: 91 4 	(DW_OP_fbreg: 4)
 <2><72e>: Abbrev Number: 25 (DW_TAG_formal_parameter)
    <72f>   DW_AT_name        : (indirect string, offset: 0x3cd): attr
    <733>   DW_AT_decl_file   : 1
    <734>   DW_AT_decl_line   : 141
    <735>   DW_AT_decl_column : 52
    <736>   DW_AT_type        : <0x66>
    <73a>   DW_AT_location    : 2 byte block: 91 8 	(DW_OP_fbreg: 8)
 <2><73d>: Abbrev Number: 28 (DW_TAG_variable)
    <73e>   DW_AT_name        : (indirect string, offset: 0x21e): pys_addr
    <742>   DW_AT_decl_file   : 1
    <743>   DW_AT_decl_line   : 142
    <744>   DW_AT_decl_column : 9
    <745>   DW_AT_type        : <0x66>
    <749>   DW_AT_location    : 2 byte block: 91 6c 	(DW_OP_fbreg: -20)
 <2><74c>: Abbrev Number: 0
 <1><74d>: Abbrev Number: 32 (DW_TAG_subprogram)
    <74e>   DW_AT_external    : 1
    <74e>   DW_AT_name        : (indirect string, offset: 0x421): vmem_freeFrame
    <752>   DW_AT_decl_file   : 1
    <753>   DW_AT_decl_line   : 134
    <754>   DW_AT_decl_column : 6
    <755>   DW_AT_prototyped  : 1
    <755>   DW_AT_low_pc      : 0x10517c
    <759>   DW_AT_high_pc     : 0x58
    <75d>   DW_AT_frame_base  : 1 byte block: 9c 	(DW_OP_call_frame_cfa)
    <75f>   DW_AT_GNU_all_call_sites: 1
    <75f>   DW_AT_sibling     : <0x782>
 <2><763>: Abbrev Number: 25 (DW_TAG_formal_parameter)
    <764>   DW_AT_name        : (indirect string, offset: 0x1ae): frame
    <768>   DW_AT_decl_file   : 1
    <769>   DW_AT_decl_line   : 134
    <76a>   DW_AT_decl_column : 25
    <76b>   DW_AT_type        : <0x66>
    <76f>   DW_AT_location    : 2 byte block: 91 0 	(DW_OP_fbreg: 0)
 <2><772>: Abbrev Number: 28 (DW_TAG_variable)
    <773>   DW_AT_name        : (indirect string, offset: 0x2cf): page
    <777>   DW_AT_decl_file   : 1
    <778>   DW_AT_decl_line   : 135
    <779>   DW_AT_decl_column : 9
    <77a>   DW_AT_type        : <0x66>
    <77e>   DW_AT_location    : 2 byte block: 91 6c 	(DW_OP_fbreg: -20)
 <2><781>: Abbrev Number: 0
 <1><782>: Abbrev Number: 33 (DW_TAG_subprogram)
    <783>   DW_AT_external    : 1
    <783>   DW_AT_name        : (indirect string, offset: 0x136): vmem_allocFrame
    <787>   DW_AT_decl_file   : 1
    <788>   DW_AT_decl_line   : 117
    <789>   DW_AT_decl_column : 5
    <78a>   DW_AT_type        : <0x66>
    <78e>   DW_AT_low_pc      : 0x1050bd
    <792>   DW_AT_high_pc     : 0xbf
    <796>   DW_AT_frame_base  : 1 byte block: 9c 	(DW_OP_call_frame_cfa)
    <798>   DW_AT_GNU_all_call_sites: 1
    <798>   DW_AT_sibling     : <0x7eb>
 <2><79c>: Abbrev Number: 19 (DW_TAG_lexical_block)
    <79d>   DW_AT_low_pc      : 0x1050c8
    <7a1>   DW_AT_high_pc     : 0xa9
 <3><7a5>: Abbrev Number: 27 (DW_TAG_variable)
    <7a6>   DW_AT_name        : i
    <7a8>   DW_AT_decl_file   : 1
    <7a9>   DW_AT_decl_line   : 118
    <7aa>   DW_AT_decl_column : 14
    <7ab>   DW_AT_type        : <0x33>
    <7af>   DW_AT_location    : 2 byte block: 91 70 	(DW_OP_fbreg: -16)
 <3><7b2>: Abbrev Number: 19 (DW_TAG_lexical_block)
    <7b3>   DW_AT_low_pc      : 0x1050d4
    <7b7>   DW_AT_high_pc     : 0x89
 <4><7bb>: Abbrev Number: 28 (DW_TAG_variable)
    <7bc>   DW_AT_name        : (indirect string, offset: 0x1d1): byte
    <7c0>   DW_AT_decl_file   : 1
    <7c1>   DW_AT_decl_line   : 119
    <7c2>   DW_AT_decl_column : 13
    <7c3>   DW_AT_type        : <0x66>
    <7c7>   DW_AT_location    : 2 byte block: 91 6c 	(DW_OP_fbreg: -20)
 <4><7ca>: Abbrev Number: 27 (DW_TAG_variable)
    <7cb>   DW_AT_name        : bit
    <7cf>   DW_AT_decl_file   : 1
    <7d0>   DW_AT_decl_line   : 120
    <7d1>   DW_AT_decl_column : 13
    <7d2>   DW_AT_type        : <0x66>
    <7d6>   DW_AT_location    : 2 byte block: 91 68 	(DW_OP_fbreg: -24)
 <4><7d9>: Abbrev Number: 28 (DW_TAG_variable)
    <7da>   DW_AT_name        : (indirect string, offset: 0xbe): value
    <7de>   DW_AT_decl_file   : 1
    <7df>   DW_AT_decl_line   : 122
    <7e0>   DW_AT_decl_column : 12
    <7e1>   DW_AT_type        : <0x41>
    <7e5>   DW_AT_location    : 2 byte block: 91 67 	(DW_OP_fbreg: -25)
 <4><7e8>: Abbrev Number: 0
 <3><7e9>: Abbrev Number: 0
 <2><7ea>: Abbrev Number: 0
 <1><7eb>: Abbrev Number: 24 (DW_TAG_subprogram)
    <7ec>   DW_AT_external    : 1
    <7ec>   DW_AT_name        : (indirect string, offset: 0x11a): vmem_freePage
    <7f0>   DW_AT_decl_file   : 1
    <7f1>   DW_AT_decl_line   : 98
    <7f2>   DW_AT_decl_column : 6
    <7f3>   DW_AT_prototyped  : 1
    <7f3>   DW_AT_low_pc      : 0x10500e
    <7f7>   DW_AT_high_pc     : 0xaf
    <7fb>   DW_AT_frame_base  : 1 byte block: 9c 	(DW_OP_call_frame_cfa)
    <7fd>   DW_AT_GNU_all_tail_call_sites: 1
    <7fd>   DW_AT_sibling     : <0x872>
 <2><801>: Abbrev Number: 25 (DW_TAG_formal_parameter)
    <802>   DW_AT_name        : (indirect string, offset: 0x430): virmem
    <806>   DW_AT_decl_file   : 1
    <807>   DW_AT_decl_line   : 98
    <808>   DW_AT_decl_column : 26
    <809>   DW_AT_type        : <0x2b0>
    <80d>   DW_AT_location    : 2 byte block: 91 0 	(DW_OP_fbreg: 0)
 <2><810>: Abbrev Number: 25 (DW_TAG_formal_parameter)
    <811>   DW_AT_name        : (indirect string, offset: 0xb4): page_addr
    <815>   DW_AT_decl_file   : 1
    <816>   DW_AT_decl_line   : 98
    <817>   DW_AT_decl_column : 38
    <818>   DW_AT_type        : <0x66>
    <81c>   DW_AT_location    : 2 byte block: 91 4 	(DW_OP_fbreg: 4)
 <2><81f>: Abbrev Number: 28 (DW_TAG_variable)
    <820>   DW_AT_name        : (indirect string, offset: 0xa2): page_idx
    <824>   DW_AT_decl_file   : 1
    <825>   DW_AT_decl_line   : 99
    <826>   DW_AT_decl_column : 9
    <827>   DW_AT_type        : <0x66>
    <82b>   DW_AT_location    : 2 byte block: 91 68 	(DW_OP_fbreg: -24)
 <2><82e>: Abbrev Number: 28 (DW_TAG_variable)
    <82f>   DW_AT_name        : (indirect string, offset: 0x79): table_idx
    <833>   DW_AT_decl_file   : 1
    <834>   DW_AT_decl_line   : 100
    <835>   DW_AT_decl_column : 9
    <836>   DW_AT_type        : <0x66>
    <83a>   DW_AT_location    : 2 byte block: 91 64 	(DW_OP_fbreg: -28)
 <2><83d>: Abbrev Number: 28 (DW_TAG_variable)
    <83e>   DW_AT_name        : (indirect string, offset: 0x97c): table
    <842>   DW_AT_decl_file   : 1
    <843>   DW_AT_decl_line   : 105
    <844>   DW_AT_decl_column : 17
    <845>   DW_AT_type        : <0x4cf>
    <849>   DW_AT_location    : 2 byte block: 91 60 	(DW_OP_fbreg: -32)
 <2><84c>: Abbrev Number: 34 (DW_TAG_subprogram)
    <84d>   DW_AT_external    : 1
    <84d>   DW_AT_name        : (indirect string, offset: 0x421): vmem_freeFrame
    <851>   DW_AT_decl_file   : 1
    <852>   DW_AT_decl_line   : 107
    <853>   DW_AT_decl_column : 5
    <854>   DW_AT_type        : <0x33>
    <858>   DW_AT_declaration : 1
    <858>   DW_AT_sibling     : <0x85e>
 <3><85c>: Abbrev Number: 35 (DW_TAG_unspecified_parameters)
 <3><85d>: Abbrev Number: 0
 <2><85e>: Abbrev Number: 36 (DW_TAG_lexical_block)
    <85f>   DW_AT_ranges      : 0x0
 <3><863>: Abbrev Number: 27 (DW_TAG_variable)
    <864>   DW_AT_name        : i
    <866>   DW_AT_decl_file   : 1
    <867>   DW_AT_decl_line   : 111
    <868>   DW_AT_decl_column : 14
    <869>   DW_AT_type        : <0x33>
    <86d>   DW_AT_location    : 2 byte block: 91 6c 	(DW_OP_fbreg: -20) [without DW_AT_frame_base]
 <3><870>: Abbrev Number: 0
 <2><871>: Abbrev Number: 0
 <1><872>: Abbrev Number: 29 (DW_TAG_subprogram)
    <873>   DW_AT_external    : 1
    <873>   DW_AT_name        : (indirect string, offset: 0x397): vmem_mapPage
    <877>   DW_AT_decl_file   : 1
    <878>   DW_AT_decl_line   : 86
    <879>   DW_AT_decl_column : 4
    <87a>   DW_AT_prototyped  : 1
    <87a>   DW_AT_type        : <0x41>
    <87e>   DW_AT_low_pc      : 0x104f9c
    <882>   DW_AT_high_pc     : 0x72
    <886>   DW_AT_frame_base  : 1 byte block: 9c 	(DW_OP_call_frame_cfa)
    <888>   DW_AT_GNU_all_tail_call_sites: 1
    <888>   DW_AT_sibling     : <0x8f6>
 <2><88c>: Abbrev Number: 25 (DW_TAG_formal_parameter)
    <88d>   DW_AT_name        : (indirect string, offset: 0x430): virmem
    <891>   DW_AT_decl_file   : 1
    <892>   DW_AT_decl_line   : 86
    <893>   DW_AT_decl_column : 23
    <894>   DW_AT_type        : <0x2b0>
    <898>   DW_AT_location    : 2 byte block: 91 0 	(DW_OP_fbreg: 0)
 <2><89b>: Abbrev Number: 25 (DW_TAG_formal_parameter)
    <89c>   DW_AT_name        : (indirect string, offset: 0xb4): page_addr
    <8a0>   DW_AT_decl_file   : 1
    <8a1>   DW_AT_decl_line   : 86
    <8a2>   DW_AT_decl_column : 35
    <8a3>   DW_AT_type        : <0x66>
    <8a7>   DW_AT_location    : 2 byte block: 91 4 	(DW_OP_fbreg: 4)
 <2><8aa>: Abbrev Number: 25 (DW_TAG_formal_parameter)
    <8ab>   DW_AT_name        : (indirect string, offset: 0x21e): pys_addr
    <8af>   DW_AT_decl_file   : 1
    <8b0>   DW_AT_decl_line   : 86
    <8b1>   DW_AT_decl_column : 50
    <8b2>   DW_AT_type        : <0x66>
    <8b6>   DW_AT_location    : 2 byte block: 91 8 	(DW_OP_fbreg: 8)
 <2><8b9>: Abbrev Number: 25 (DW_TAG_formal_parameter)
    <8ba>   DW_AT_name        : (indirect string, offset: 0x3cd): attr
    <8be>   DW_AT_decl_file   : 1
    <8bf>   DW_AT_decl_line   : 86
    <8c0>   DW_AT_decl_column : 64
    <8c1>   DW_AT_type        : <0x66>
    <8c5>   DW_AT_location    : 2 byte block: 91 c 	(DW_OP_fbreg: 12)
 <2><8c8>: Abbrev Number: 28 (DW_TAG_variable)
    <8c9>   DW_AT_name        : (indirect string, offset: 0xa2): page_idx
    <8cd>   DW_AT_decl_file   : 1
    <8ce>   DW_AT_decl_line   : 87
    <8cf>   DW_AT_decl_column : 9
    <8d0>   DW_AT_type        : <0x66>
    <8d4>   DW_AT_location    : 2 byte block: 91 6c 	(DW_OP_fbreg: -20)
 <2><8d7>: Abbrev Number: 28 (DW_TAG_variable)
    <8d8>   DW_AT_name        : (indirect string, offset: 0x79): table_idx
    <8dc>   DW_AT_decl_file   : 1
    <8dd>   DW_AT_decl_line   : 88
    <8de>   DW_AT_decl_column : 9
    <8df>   DW_AT_type        : <0x66>
    <8e3>   DW_AT_location    : 2 byte block: 91 68 	(DW_OP_fbreg: -24)
 <2><8e6>: Abbrev Number: 28 (DW_TAG_variable)
    <8e7>   DW_AT_name        : (indirect string, offset: 0x97c): table
    <8eb>   DW_AT_decl_file   : 1
    <8ec>   DW_AT_decl_line   : 93
    <8ed>   DW_AT_decl_column : 17
    <8ee>   DW_AT_type        : <0x4cf>
    <8f2>   DW_AT_location    : 2 byte block: 91 64 	(DW_OP_fbreg: -28)
 <2><8f5>: Abbrev Number: 0
 <1><8f6>: Abbrev Number: 37 (DW_TAG_subprogram)
    <8f7>   DW_AT_external    : 1
    <8f7>   DW_AT_name        : (indirect string, offset: 0x401): vmem_createPage
    <8fb>   DW_AT_decl_file   : 1
    <8fc>   DW_AT_decl_line   : 74
    <8fd>   DW_AT_decl_column : 4
    <8fe>   DW_AT_prototyped  : 1
    <8fe>   DW_AT_type        : <0x41>
    <902>   DW_AT_low_pc      : 0x104edf
    <906>   DW_AT_high_pc     : 0xbd
    <90a>   DW_AT_frame_base  : 1 byte block: 9c 	(DW_OP_call_frame_cfa)
    <90c>   DW_AT_GNU_all_call_sites: 1
    <90c>   DW_AT_sibling     : <0x94d>
 <2><910>: Abbrev Number: 25 (DW_TAG_formal_parameter)
    <911>   DW_AT_name        : (indirect string, offset: 0x97c): table
    <915>   DW_AT_decl_file   : 1
    <916>   DW_AT_decl_line   : 74
    <917>   DW_AT_decl_column : 32
    <918>   DW_AT_type        : <0x4cf>
    <91c>   DW_AT_location    : 2 byte block: 91 0 	(DW_OP_fbreg: 0)
 <2><91f>: Abbrev Number: 25 (DW_TAG_formal_parameter)
    <920>   DW_AT_name        : (indirect string, offset: 0x2cf): page
    <924>   DW_AT_decl_file   : 1
    <925>   DW_AT_decl_line   : 74
    <926>   DW_AT_decl_column : 43
    <927>   DW_AT_type        : <0x33>
    <92b>   DW_AT_location    : 2 byte block: 91 4 	(DW_OP_fbreg: 4)
 <2><92e>: Abbrev Number: 25 (DW_TAG_formal_parameter)
    <92f>   DW_AT_name        : (indirect string, offset: 0x21e): pys_addr
    <933>   DW_AT_decl_file   : 1
    <934>   DW_AT_decl_line   : 74
    <935>   DW_AT_decl_column : 53
    <936>   DW_AT_type        : <0x66>
    <93a>   DW_AT_location    : 2 byte block: 91 8 	(DW_OP_fbreg: 8)
 <2><93d>: Abbrev Number: 25 (DW_TAG_formal_parameter)
    <93e>   DW_AT_name        : (indirect string, offset: 0x3cd): attr
    <942>   DW_AT_decl_file   : 1
    <943>   DW_AT_decl_line   : 74
    <944>   DW_AT_decl_column : 67
    <945>   DW_AT_type        : <0x66>
    <949>   DW_AT_location    : 2 byte block: 91 c 	(DW_OP_fbreg: 12)
 <2><94c>: Abbrev Number: 0
 <1><94d>: Abbrev Number: 24 (DW_TAG_subprogram)
    <94e>   DW_AT_external    : 1
    <94e>   DW_AT_name        : (indirect string, offset: 0x299): vmem_freeTable
    <952>   DW_AT_decl_file   : 1
    <953>   DW_AT_decl_line   : 65
    <954>   DW_AT_decl_column : 6
    <955>   DW_AT_prototyped  : 1
    <955>   DW_AT_low_pc      : 0x104e92
    <959>   DW_AT_high_pc     : 0x4d
    <95d>   DW_AT_frame_base  : 1 byte block: 9c 	(DW_OP_call_frame_cfa)
    <95f>   DW_AT_GNU_all_tail_call_sites: 1
    <95f>   DW_AT_sibling     : <0x98f>
 <2><963>: Abbrev Number: 25 (DW_TAG_formal_parameter)
    <964>   DW_AT_name        : (indirect string, offset: 0x430): virmem
    <968>   DW_AT_decl_file   : 1
    <969>   DW_AT_decl_line   : 65
    <96a>   DW_AT_decl_column : 27
    <96b>   DW_AT_type        : <0x2b0>
    <96f>   DW_AT_location    : 2 byte block: 91 0 	(DW_OP_fbreg: 0)
 <2><972>: Abbrev Number: 31 (DW_TAG_formal_parameter)
    <973>   DW_AT_name        : i
    <975>   DW_AT_decl_file   : 1
    <976>   DW_AT_decl_line   : 65
    <977>   DW_AT_decl_column : 39
    <978>   DW_AT_type        : <0x33>
    <97c>   DW_AT_location    : 2 byte block: 91 4 	(DW_OP_fbreg: 4)
 <2><97f>: Abbrev Number: 28 (DW_TAG_variable)
    <980>   DW_AT_name        : (indirect string, offset: 0x97c): table
    <984>   DW_AT_decl_file   : 1
    <985>   DW_AT_decl_line   : 68
    <986>   DW_AT_decl_column : 17
    <987>   DW_AT_type        : <0x4cf>
    <98b>   DW_AT_location    : 2 byte block: 91 6c 	(DW_OP_fbreg: -20)
 <2><98e>: Abbrev Number: 0
 <1><98f>: Abbrev Number: 29 (DW_TAG_subprogram)
    <990>   DW_AT_external    : 1
    <990>   DW_AT_name        : (indirect string, offset: 0x41): vmem_createTable
    <994>   DW_AT_decl_file   : 1
    <995>   DW_AT_decl_line   : 55
    <996>   DW_AT_decl_column : 4
    <997>   DW_AT_prototyped  : 1
    <997>   DW_AT_type        : <0x41>
    <99b>   DW_AT_low_pc      : 0x104e34
    <99f>   DW_AT_high_pc     : 0x5e
    <9a3>   DW_AT_frame_base  : 1 byte block: 9c 	(DW_OP_call_frame_cfa)
    <9a5>   DW_AT_GNU_all_tail_call_sites: 1
    <9a5>   DW_AT_sibling     : <0x9d5>
 <2><9a9>: Abbrev Number: 25 (DW_TAG_formal_parameter)
    <9aa>   DW_AT_name        : (indirect string, offset: 0x430): virmem
    <9ae>   DW_AT_decl_file   : 1
    <9af>   DW_AT_decl_line   : 55
    <9b0>   DW_AT_decl_column : 27
    <9b1>   DW_AT_type        : <0x2b0>
    <9b5>   DW_AT_location    : 2 byte block: 91 0 	(DW_OP_fbreg: 0)
 <2><9b8>: Abbrev Number: 31 (DW_TAG_formal_parameter)
    <9b9>   DW_AT_name        : i
    <9bb>   DW_AT_decl_file   : 1
    <9bc>   DW_AT_decl_line   : 55
    <9bd>   DW_AT_decl_column : 39
    <9be>   DW_AT_type        : <0x33>
    <9c2>   DW_AT_location    : 2 byte block: 91 4 	(DW_OP_fbreg: 4)
 <2><9c5>: Abbrev Number: 28 (DW_TAG_variable)
    <9c6>   DW_AT_name        : (indirect string, offset: 0x97c): table
    <9ca>   DW_AT_decl_file   : 1
    <9cb>   DW_AT_decl_line   : 59
    <9cc>   DW_AT_decl_column : 17
    <9cd>   DW_AT_type        : <0x4cf>
    <9d1>   DW_AT_location    : 2 byte block: 91 6c 	(DW_OP_fbreg: -20)
 <2><9d4>: Abbrev Number: 0
 <1><9d5>: Abbrev Number: 37 (DW_TAG_subprogram)
    <9d6>   DW_AT_external    : 1
    <9d6>   DW_AT_name        : (indirect string, offset: 0x106): vmem_setTable
    <9da>   DW_AT_decl_file   : 1
    <9db>   DW_AT_decl_line   : 49
    <9dc>   DW_AT_decl_column : 4
    <9dd>   DW_AT_prototyped  : 1
    <9dd>   DW_AT_type        : <0x41>
    <9e1>   DW_AT_low_pc      : 0x104d49
    <9e5>   DW_AT_high_pc     : 0xeb
    <9e9>   DW_AT_frame_base  : 1 byte block: 9c 	(DW_OP_call_frame_cfa)
    <9eb>   DW_AT_GNU_all_call_sites: 1
    <9eb>   DW_AT_sibling     : <0xa1b>
 <2><9ef>: Abbrev Number: 25 (DW_TAG_formal_parameter)
    <9f0>   DW_AT_name        : (indirect string, offset: 0x430): virmem
    <9f4>   DW_AT_decl_file   : 1
    <9f5>   DW_AT_decl_line   : 49
    <9f6>   DW_AT_decl_column : 24
    <9f7>   DW_AT_type        : <0x2b0>
    <9fb>   DW_AT_location    : 2 byte block: 91 0 	(DW_OP_fbreg: 0)
 <2><9fe>: Abbrev Number: 31 (DW_TAG_formal_parameter)
    <9ff>   DW_AT_name        : i
    <a01>   DW_AT_decl_file   : 1
    <a02>   DW_AT_decl_line   : 49
    <a03>   DW_AT_decl_column : 36
    <a04>   DW_AT_type        : <0x33>
    <a08>   DW_AT_location    : 2 byte block: 91 4 	(DW_OP_fbreg: 4)
 <2><a0b>: Abbrev Number: 25 (DW_TAG_formal_parameter)
    <a0c>   DW_AT_name        : (indirect string, offset: 0x97c): table
    <a10>   DW_AT_decl_file   : 1
    <a11>   DW_AT_decl_line   : 49
    <a12>   DW_AT_decl_column : 51
    <a13>   DW_AT_type        : <0x4cf>
    <a17>   DW_AT_location    : 2 byte block: 91 8 	(DW_OP_fbreg: 8)
 <2><a1a>: Abbrev Number: 0
 <1><a1b>: Abbrev Number: 30 (DW_TAG_subprogram)
    <a1c>   DW_AT_external    : 1
    <a1c>   DW_AT_name        : (indirect string, offset: 0x1d6): vmem_allocTable
    <a20>   DW_AT_decl_file   : 1
    <a21>   DW_AT_decl_line   : 35
    <a22>   DW_AT_decl_column : 13
    <a23>   DW_AT_type        : <0x4cf>
    <a27>   DW_AT_low_pc      : 0x104ce5
    <a2b>   DW_AT_high_pc     : 0x64
    <a2f>   DW_AT_frame_base  : 1 byte block: 9c 	(DW_OP_call_frame_cfa)
    <a31>   DW_AT_GNU_all_tail_call_sites: 1
    <a31>   DW_AT_sibling     : <0xa5c>
 <2><a35>: Abbrev Number: 28 (DW_TAG_variable)
    <a36>   DW_AT_name        : (indirect string, offset: 0x97c): table
    <a3a>   DW_AT_decl_file   : 1
    <a3b>   DW_AT_decl_line   : 36
    <a3c>   DW_AT_decl_column : 17
    <a3d>   DW_AT_type        : <0x4cf>
    <a41>   DW_AT_location    : 2 byte block: 91 68 	(DW_OP_fbreg: -24)
 <2><a44>: Abbrev Number: 19 (DW_TAG_lexical_block)
    <a45>   DW_AT_low_pc      : 0x104d0f
    <a49>   DW_AT_high_pc     : 0x26
 <3><a4d>: Abbrev Number: 27 (DW_TAG_variable)
    <a4e>   DW_AT_name        : i
    <a50>   DW_AT_decl_file   : 1
    <a51>   DW_AT_decl_line   : 39
    <a52>   DW_AT_decl_column : 14
    <a53>   DW_AT_type        : <0x33>
    <a57>   DW_AT_location    : 2 byte block: 91 6c 	(DW_OP_fbreg: -20)
 <3><a5a>: Abbrev Number: 0
 <2><a5b>: Abbrev Number: 0
 <1><a5c>: Abbrev Number: 29 (DW_TAG_subprogram)
    <a5d>   DW_AT_external    : 1
    <a5d>   DW_AT_name        : (indirect string, offset: 0x2ea): vmem_getPage
    <a61>   DW_AT_decl_file   : 1
    <a62>   DW_AT_decl_line   : 24
    <a63>   DW_AT_decl_column : 12
    <a64>   DW_AT_prototyped  : 1
    <a64>   DW_AT_type        : <0xac2>
    <a68>   DW_AT_low_pc      : 0x104c6f
    <a6c>   DW_AT_high_pc     : 0x76
    <a70>   DW_AT_frame_base  : 1 byte block: 9c 	(DW_OP_call_frame_cfa)
    <a72>   DW_AT_GNU_all_tail_call_sites: 1
    <a72>   DW_AT_sibling     : <0xac2>
 <2><a76>: Abbrev Number: 25 (DW_TAG_formal_parameter)
    <a77>   DW_AT_name        : (indirect string, offset: 0x430): virmem
    <a7b>   DW_AT_decl_file   : 1
    <a7c>   DW_AT_decl_line   : 24
    <a7d>   DW_AT_decl_column : 31
    <a7e>   DW_AT_type        : <0x2b0>
    <a82>   DW_AT_location    : 2 byte block: 91 0 	(DW_OP_fbreg: 0)
 <2><a85>: Abbrev Number: 25 (DW_TAG_formal_parameter)
    <a86>   DW_AT_name        : (indirect string, offset: 0xb4): page_addr
    <a8a>   DW_AT_decl_file   : 1
    <a8b>   DW_AT_decl_line   : 24
    <a8c>   DW_AT_decl_column : 43
    <a8d>   DW_AT_type        : <0x66>
    <a91>   DW_AT_location    : 2 byte block: 91 4 	(DW_OP_fbreg: 4)
 <2><a94>: Abbrev Number: 28 (DW_TAG_variable)
    <a95>   DW_AT_name        : (indirect string, offset: 0xa2): page_idx
    <a99>   DW_AT_decl_file   : 1
    <a9a>   DW_AT_decl_line   : 25
    <a9b>   DW_AT_decl_column : 9
    <a9c>   DW_AT_type        : <0x66>
    <aa0>   DW_AT_location    : 2 byte block: 91 74 	(DW_OP_fbreg: -12)
 <2><aa3>: Abbrev Number: 28 (DW_TAG_variable)
    <aa4>   DW_AT_name        : (indirect string, offset: 0x79): table_idx
    <aa8>   DW_AT_decl_file   : 1
    <aa9>   DW_AT_decl_line   : 26
    <aaa>   DW_AT_decl_column : 9
    <aab>   DW_AT_type        : <0x66>
    <aaf>   DW_AT_location    : 2 byte block: 91 70 	(DW_OP_fbreg: -16)
 <2><ab2>: Abbrev Number: 28 (DW_TAG_variable)
    <ab3>   DW_AT_name        : (indirect string, offset: 0x97c): table
    <ab7>   DW_AT_decl_file   : 1
    <ab8>   DW_AT_decl_line   : 31
    <ab9>   DW_AT_decl_column : 17
    <aba>   DW_AT_type        : <0x4cf>
    <abe>   DW_AT_location    : 2 byte block: 91 6c 	(DW_OP_fbreg: -20)
 <2><ac1>: Abbrev Number: 0
 <1><ac2>: Abbrev Number: 14 (DW_TAG_pointer_type)
    <ac3>   DW_AT_byte_size   : 4
    <ac4>   DW_AT_type        : <0x15c>
 <1><ac8>: Abbrev Number: 37 (DW_TAG_subprogram)
    <ac9>   DW_AT_external    : 1
    <ac9>   DW_AT_name        : (indirect string, offset: 0x2e): vmem_getTable
    <acd>   DW_AT_decl_file   : 1
    <ace>   DW_AT_decl_line   : 20
    <acf>   DW_AT_decl_column : 13
    <ad0>   DW_AT_prototyped  : 1
    <ad0>   DW_AT_type        : <0x4cf>
    <ad4>   DW_AT_low_pc      : 0x104c57
    <ad8>   DW_AT_high_pc     : 0x18
    <adc>   DW_AT_frame_base  : 1 byte block: 9c 	(DW_OP_call_frame_cfa)
    <ade>   DW_AT_GNU_all_call_sites: 1
    <ade>   DW_AT_sibling     : <0xb01>
 <2><ae2>: Abbrev Number: 25 (DW_TAG_formal_parameter)
    <ae3>   DW_AT_name        : (indirect string, offset: 0x430): virmem
    <ae7>   DW_AT_decl_file   : 1
    <ae8>   DW_AT_decl_line   : 20
    <ae9>   DW_AT_decl_column : 33
    <aea>   DW_AT_type        : <0x2b0>
    <aee>   DW_AT_location    : 2 byte block: 91 0 	(DW_OP_fbreg: 0)
 <2><af1>: Abbrev Number: 25 (DW_TAG_formal_parameter)
    <af2>   DW_AT_name        : (indirect string, offset: 0x97c): table
    <af6>   DW_AT_decl_file   : 1
    <af7>   DW_AT_decl_line   : 20
    <af8>   DW_AT_decl_column : 45
    <af9>   DW_AT_type        : <0x33>
    <afd>   DW_AT_location    : 2 byte block: 91 4 	(DW_OP_fbreg: 4)
 <2><b00>: Abbrev Number: 0
 <1><b01>: Abbrev Number: 37 (DW_TAG_subprogram)
    <b02>   DW_AT_external    : 1
    <b02>   DW_AT_name        : (indirect string, offset: 0x19c): vmem_tablePresent
    <b06>   DW_AT_decl_file   : 1
    <b07>   DW_AT_decl_line   : 16
    <b08>   DW_AT_decl_column : 4
    <b09>   DW_AT_prototyped  : 1
    <b09>   DW_AT_type        : <0x41>
    <b0d>   DW_AT_low_pc      : 0x104c41
    <b11>   DW_AT_high_pc     : 0x16
    <b15>   DW_AT_frame_base  : 1 byte block: 9c 	(DW_OP_call_frame_cfa)
    <b17>   DW_AT_GNU_all_call_sites: 1
    <b17>   DW_AT_sibling     : <0xb3a>
 <2><b1b>: Abbrev Number: 25 (DW_TAG_formal_parameter)
    <b1c>   DW_AT_name        : (indirect string, offset: 0x430): virmem
    <b20>   DW_AT_decl_file   : 1
    <b21>   DW_AT_decl_line   : 16
    <b22>   DW_AT_decl_column : 28
    <b23>   DW_AT_type        : <0x2b0>
    <b27>   DW_AT_location    : 2 byte block: 91 0 	(DW_OP_fbreg: 0)
 <2><b2a>: Abbrev Number: 25 (DW_TAG_formal_parameter)
    <b2b>   DW_AT_name        : (indirect string, offset: 0x97c): table
    <b2f>   DW_AT_decl_file   : 1
    <b30>   DW_AT_decl_line   : 16
    <b31>   DW_AT_decl_column : 40
    <b32>   DW_AT_type        : <0x33>
    <b36>   DW_AT_location    : 2 byte block: 91 4 	(DW_OP_fbreg: 4)
 <2><b39>: Abbrev Number: 0
 <1><b3a>: Abbrev Number: 38 (DW_TAG_subprogram)
    <b3b>   DW_AT_external    : 1
    <b3b>   DW_AT_name        : (indirect string, offset: 0x9): vmem_current
    <b3f>   DW_AT_decl_file   : 1
    <b40>   DW_AT_decl_line   : 12
    <b41>   DW_AT_decl_column : 7
    <b42>   DW_AT_type        : <0x2b0>
    <b46>   DW_AT_low_pc      : 0x104c33
    <b4a>   DW_AT_high_pc     : 0xe
    <b4e>   DW_AT_frame_base  : 1 byte block: 9c 	(DW_OP_call_frame_cfa)
    <b50>   DW_AT_GNU_all_call_sites: 1
 <1><b50>: Abbrev Number: 0
  Compilation Unit @ offset 0xb51:
   Length:        0x74e (32-bit)
   Version:       4
   Abbrev Offset: 0x2bb
   Pointer Size:  4
 <0><b5c>: Abbrev Number: 1 (DW_TAG_compile_unit)
    <b5d>   DW_AT_producer    : (indirect string, offset: 0x5d9): GNU C++14 9.4.0 -m32 -mtune=generic -march=i686 -g -fno-exceptions -fno-rtti -fno-pie -ffreestanding -fasynchronous-unwind-tables -fstack-clash-protection -fcf-protection
    <b61>   DW_AT_language    : 4	(C++)
    <b62>   DW_AT_name        : (indirect string, offset: 0x4a4): src/kernel/main.cpp
    <b66>   DW_AT_comp_dir    : (indirect string, offset: 0x162): /home/iliashdz/Desktop/Projects/apostrof
    <b6a>   DW_AT_low_pc      : 0x10affb
    <b6e>   DW_AT_high_pc     : 0x265
    <b72>   DW_AT_stmt_list   : 0x4a4
 <1><b76>: Abbrev Number: 2 (DW_TAG_base_type)
    <b77>   DW_AT_byte_size   : 1
    <b78>   DW_AT_encoding    : 6	(signed char)
    <b79>   DW_AT_name        : (indirect string, offset: 0x1ef): char
 <1><b7d>: Abbrev Number: 3 (DW_TAG_const_type)
    <b7e>   DW_AT_type        : <0xb76>
 <1><b82>: Abbrev Number: 2 (DW_TAG_base_type)
    <b83>   DW_AT_byte_size   : 2
    <b84>   DW_AT_encoding    : 5	(signed)
    <b85>   DW_AT_name        : (indirect string, offset: 0x6f): short int
 <1><b89>: Abbrev Number: 4 (DW_TAG_base_type)
    <b8a>   DW_AT_byte_size   : 4
    <b8b>   DW_AT_encoding    : 5	(signed)
    <b8c>   DW_AT_name        : int
 <1><b90>: Abbrev Number: 2 (DW_TAG_base_type)
    <b91>   DW_AT_byte_size   : 8
    <b92>   DW_AT_encoding    : 5	(signed)
    <b93>   DW_AT_name        : (indirect string, offset: 0x128): long long int
 <1><b97>: Abbrev Number: 5 (DW_TAG_typedef)
    <b98>   DW_AT_name        : u8
    <b9b>   DW_AT_decl_file   : 2
    <b9c>   DW_AT_decl_line   : 10
    <b9d>   DW_AT_decl_column : 28
    <b9e>   DW_AT_type        : <0xba2>
 <1><ba2>: Abbrev Number: 2 (DW_TAG_base_type)
    <ba3>   DW_AT_byte_size   : 1
    <ba4>   DW_AT_encoding    : 8	(unsigned char)
    <ba5>   DW_AT_name        : (indirect string, offset: 0x1e6): unsigned char
 <1><ba9>: Abbrev Number: 5 (DW_TAG_typedef)
    <baa>   DW_AT_name        : u16
    <bae>   DW_AT_decl_file   : 2
    <baf>   DW_AT_decl_line   : 11
    <bb0>   DW_AT_decl_column : 28
    <bb1>   DW_AT_type        : <0xbb5>
 <1><bb5>: Abbrev Number: 2 (DW_TAG_base_type)
    <bb6>   DW_AT_byte_size   : 2
    <bb7>   DW_AT_encoding    : 7	(unsigned)
    <bb8>   DW_AT_name        : (indirect string, offset: 0x286): short unsigned int
 <1><bbc>: Abbrev Number: 5 (DW_TAG_typedef)
    <bbd>   DW_AT_name        : u32
    <bc1>   DW_AT_decl_file   : 2
    <bc2>   DW_AT_decl_line   : 12
    <bc3>   DW_AT_decl_column : 28
    <bc4>   DW_AT_type        : <0xbc8>
 <1><bc8>: Abbrev Number: 2 (DW_TAG_base_type)
    <bc9>   DW_AT_byte_size   : 4
    <bca>   DW_AT_encoding    : 7	(unsigned)
    <bcb>   DW_AT_name        : (indirect string, offset: 0x205): unsigned int
 <1><bcf>: Abbrev Number: 2 (DW_TAG_base_type)
    <bd0>   DW_AT_byte_size   : 8
    <bd1>   DW_AT_encoding    : 7	(unsigned)
    <bd2>   DW_AT_name        : (indirect string, offset: 0x1fb): long long unsigned int
 <1><bd6>: Abbrev Number: 2 (DW_TAG_base_type)
    <bd7>   DW_AT_byte_size   : 4
    <bd8>   DW_AT_encoding    : 4	(float)
    <bd9>   DW_AT_name        : (indirect string, offset: 0x114): float
 <1><bdd>: Abbrev Number: 2 (DW_TAG_base_type)
    <bde>   DW_AT_byte_size   : 8
    <bdf>   DW_AT_encoding    : 4	(float)
    <be0>   DW_AT_name        : (indirect string, offset: 0x3a4): double
 <1><be4>: Abbrev Number: 6 (DW_TAG_structure_type)
    <be5>   DW_AT_name        : fd
    <be8>   DW_AT_byte_size   : 24
    <be9>   DW_AT_decl_file   : 3
    <bea>   DW_AT_decl_line   : 19
    <beb>   DW_AT_decl_column : 16
    <bec>   DW_AT_sibling     : <0xc3f>
 <2><bf0>: Abbrev Number: 7 (DW_TAG_member)
    <bf1>   DW_AT_name        : (indirect string, offset: 0x437): magic
    <bf5>   DW_AT_decl_file   : 3
    <bf6>   DW_AT_decl_line   : 20
    <bf7>   DW_AT_decl_column : 9
    <bf8>   DW_AT_type        : <0xbbc>
    <bfc>   DW_AT_data_member_location: 0
 <2><bfd>: Abbrev Number: 7 (DW_TAG_member)
    <bfe>   DW_AT_name        : (indirect string, offset: 0x984): type
    <c02>   DW_AT_decl_file   : 3
    <c03>   DW_AT_decl_line   : 21
    <c04>   DW_AT_decl_column : 8
    <c05>   DW_AT_type        : <0xb97>
    <c09>   DW_AT_data_member_location: 4
 <2><c0a>: Abbrev Number: 7 (DW_TAG_member)
    <c0b>   DW_AT_name        : (indirect string, offset: 0x2f7): buffer
    <c0f>   DW_AT_decl_file   : 3
    <c10>   DW_AT_decl_line   : 23
    <c11>   DW_AT_decl_column : 11
    <c12>   DW_AT_type        : <0xc3f>
    <c16>   DW_AT_data_member_location: 8
 <2><c17>: Abbrev Number: 7 (DW_TAG_member)
    <c18>   DW_AT_name        : (indirect string, offset: 0x212): buffer_size
    <c1c>   DW_AT_decl_file   : 3
    <c1d>   DW_AT_decl_line   : 24
    <c1e>   DW_AT_decl_column : 11
    <c1f>   DW_AT_type        : <0xbbc>
    <c23>   DW_AT_data_member_location: 12
 <2><c24>: Abbrev Number: 7 (DW_TAG_member)
    <c25>   DW_AT_name        : (indirect string, offset: 0x3c): pipe
    <c29>   DW_AT_decl_file   : 3
    <c2a>   DW_AT_decl_line   : 26
    <c2b>   DW_AT_decl_column : 16
    <c2c>   DW_AT_type        : <0xc45>
    <c30>   DW_AT_data_member_location: 16
 <2><c31>: Abbrev Number: 7 (DW_TAG_member)
    <c32>   DW_AT_name        : (indirect string, offset: 0x1f4): cursor
    <c36>   DW_AT_decl_file   : 3
    <c37>   DW_AT_decl_line   : 28
    <c38>   DW_AT_decl_column : 8
    <c39>   DW_AT_type        : <0xb97>
    <c3d>   DW_AT_data_member_location: 20
 <2><c3e>: Abbrev Number: 0
 <1><c3f>: Abbrev Number: 8 (DW_TAG_pointer_type)
    <c40>   DW_AT_byte_size   : 4
    <c41>   DW_AT_type        : <0xb76>
 <1><c45>: Abbrev Number: 8 (DW_TAG_pointer_type)
    <c46>   DW_AT_byte_size   : 4
    <c47>   DW_AT_type        : <0xbe4>
 <1><c4b>: Abbrev Number: 5 (DW_TAG_typedef)
    <c4c>   DW_AT_name        : fd
    <c4f>   DW_AT_decl_file   : 3
    <c50>   DW_AT_decl_line   : 29
    <c51>   DW_AT_decl_column : 3
    <c52>   DW_AT_type        : <0xbe4>
 <1><c56>: Abbrev Number: 9 (DW_TAG_variable)
    <c57>   DW_AT_name        : (indirect string, offset: 0x63): void_stream
    <c5b>   DW_AT_decl_file   : 3
    <c5c>   DW_AT_decl_line   : 31
    <c5d>   DW_AT_decl_column : 12
    <c5e>   DW_AT_type        : <0xc62>
    <c62>   DW_AT_external    : 1
    <c62>   DW_AT_declaration : 1
 <1><c62>: Abbrev Number: 8 (DW_TAG_pointer_type)
    <c63>   DW_AT_byte_size   : 4
    <c64>   DW_AT_type        : <0xc4b>
 <1><c68>: Abbrev Number: 9 (DW_TAG_variable)
    <c69>   DW_AT_name        : (indirect string, offset: 0x83): cursor_y
    <c6d>   DW_AT_decl_file   : 4
    <c6e>   DW_AT_decl_line   : 29
    <c6f>   DW_AT_decl_column : 11
    <c70>   DW_AT_type        : <0xb97>
    <c74>   DW_AT_external    : 1
    <c74>   DW_AT_declaration : 1
 <1><c74>: Abbrev Number: 10 (DW_TAG_structure_type)
    <c75>   DW_AT_byte_size   : 64
    <c76>   DW_AT_decl_file   : 5
    <c77>   DW_AT_decl_line   : 72
    <c78>   DW_AT_decl_column : 16
    <c79>   DW_AT_linkage_name: (indirect string, offset: 0x6d8): 8isr_regs
    <c7d>   DW_AT_sibling     : <0xd4f>
 <2><c81>: Abbrev Number: 11 (DW_TAG_member)
    <c82>   DW_AT_name        : ds
    <c85>   DW_AT_decl_file   : 5
    <c86>   DW_AT_decl_line   : 73
    <c87>   DW_AT_decl_column : 8
    <c88>   DW_AT_type        : <0xbbc>
    <c8c>   DW_AT_data_member_location: 0
 <2><c8d>: Abbrev Number: 11 (DW_TAG_member)
    <c8e>   DW_AT_name        : edi
    <c92>   DW_AT_decl_file   : 5
    <c93>   DW_AT_decl_line   : 74
    <c94>   DW_AT_decl_column : 8
    <c95>   DW_AT_type        : <0xbbc>
    <c99>   DW_AT_data_member_location: 4
 <2><c9a>: Abbrev Number: 11 (DW_TAG_member)
    <c9b>   DW_AT_name        : esi
    <c9f>   DW_AT_decl_file   : 5
    <ca0>   DW_AT_decl_line   : 74
    <ca1>   DW_AT_decl_column : 13
    <ca2>   DW_AT_type        : <0xbbc>
    <ca6>   DW_AT_data_member_location: 8
 <2><ca7>: Abbrev Number: 11 (DW_TAG_member)
    <ca8>   DW_AT_name        : ebp
    <cac>   DW_AT_decl_file   : 5
    <cad>   DW_AT_decl_line   : 74
    <cae>   DW_AT_decl_column : 18
    <caf>   DW_AT_type        : <0xbbc>
    <cb3>   DW_AT_data_member_location: 12
 <2><cb4>: Abbrev Number: 11 (DW_TAG_member)
    <cb5>   DW_AT_name        : esp
    <cb9>   DW_AT_decl_file   : 5
    <cba>   DW_AT_decl_line   : 74
    <cbb>   DW_AT_decl_column : 23
    <cbc>   DW_AT_type        : <0xbbc>
    <cc0>   DW_AT_data_member_location: 16
 <2><cc1>: Abbrev Number: 11 (DW_TAG_member)
    <cc2>   DW_AT_name        : ebx
    <cc6>   DW_AT_decl_file   : 5
    <cc7>   DW_AT_decl_line   : 74
    <cc8>   DW_AT_decl_column : 28
    <cc9>   DW_AT_type        : <0xbbc>
    <ccd>   DW_AT_data_member_location: 20
 <2><cce>: Abbrev Number: 11 (DW_TAG_member)
    <ccf>   DW_AT_name        : edx
    <cd3>   DW_AT_decl_file   : 5
    <cd4>   DW_AT_decl_line   : 74
    <cd5>   DW_AT_decl_column : 33
    <cd6>   DW_AT_type        : <0xbbc>
    <cda>   DW_AT_data_member_location: 24
 <2><cdb>: Abbrev Number: 11 (DW_TAG_member)
    <cdc>   DW_AT_name        : ecx
    <ce0>   DW_AT_decl_file   : 5
    <ce1>   DW_AT_decl_line   : 74
    <ce2>   DW_AT_decl_column : 38
    <ce3>   DW_AT_type        : <0xbbc>
    <ce7>   DW_AT_data_member_location: 28
 <2><ce8>: Abbrev Number: 11 (DW_TAG_member)
    <ce9>   DW_AT_name        : eax
    <ced>   DW_AT_decl_file   : 5
    <cee>   DW_AT_decl_line   : 74
    <cef>   DW_AT_decl_column : 43
    <cf0>   DW_AT_type        : <0xbbc>
    <cf4>   DW_AT_data_member_location: 32
 <2><cf5>: Abbrev Number: 7 (DW_TAG_member)
    <cf6>   DW_AT_name        : (indirect string, offset: 0x565): int_no
    <cfa>   DW_AT_decl_file   : 5
    <cfb>   DW_AT_decl_line   : 75
    <cfc>   DW_AT_decl_column : 8
    <cfd>   DW_AT_type        : <0xbbc>
    <d01>   DW_AT_data_member_location: 36
 <2><d02>: Abbrev Number: 7 (DW_TAG_member)
    <d03>   DW_AT_name        : (indirect string, offset: 0x5b0): err_code
    <d07>   DW_AT_decl_file   : 5
    <d08>   DW_AT_decl_line   : 75
    <d09>   DW_AT_decl_column : 16
    <d0a>   DW_AT_type        : <0xbbc>
    <d0e>   DW_AT_data_member_location: 40
 <2><d0f>: Abbrev Number: 11 (DW_TAG_member)
    <d10>   DW_AT_name        : eip
    <d14>   DW_AT_decl_file   : 5
    <d15>   DW_AT_decl_line   : 76
    <d16>   DW_AT_decl_column : 8
    <d17>   DW_AT_type        : <0xbbc>
    <d1b>   DW_AT_data_member_location: 44
 <2><d1c>: Abbrev Number: 11 (DW_TAG_member)
    <d1d>   DW_AT_name        : cs
    <d20>   DW_AT_decl_file   : 5
    <d21>   DW_AT_decl_line   : 76
    <d22>   DW_AT_decl_column : 13
    <d23>   DW_AT_type        : <0xbbc>
    <d27>   DW_AT_data_member_location: 48
 <2><d28>: Abbrev Number: 7 (DW_TAG_member)
    <d29>   DW_AT_name        : (indirect string, offset: 0x48a): eflags
    <d2d>   DW_AT_decl_file   : 5
    <d2e>   DW_AT_decl_line   : 76
    <d2f>   DW_AT_decl_column : 17
    <d30>   DW_AT_type        : <0xbbc>
    <d34>   DW_AT_data_member_location: 52
 <2><d35>: Abbrev Number: 7 (DW_TAG_member)
    <d36>   DW_AT_name        : (indirect string, offset: 0x515): useresp
    <d3a>   DW_AT_decl_file   : 5
    <d3b>   DW_AT_decl_line   : 76
    <d3c>   DW_AT_decl_column : 25
    <d3d>   DW_AT_type        : <0xbbc>
    <d41>   DW_AT_data_member_location: 56
 <2><d42>: Abbrev Number: 11 (DW_TAG_member)
    <d43>   DW_AT_name        : ss
    <d46>   DW_AT_decl_file   : 5
    <d47>   DW_AT_decl_line   : 76
    <d48>   DW_AT_decl_column : 34
    <d49>   DW_AT_type        : <0xbbc>
    <d4d>   DW_AT_data_member_location: 60
 <2><d4e>: Abbrev Number: 0
 <1><d4f>: Abbrev Number: 12 (DW_TAG_typedef)
    <d50>   DW_AT_name        : (indirect string, offset: 0x6d9): isr_regs
    <d54>   DW_AT_decl_file   : 5
    <d55>   DW_AT_decl_line   : 77
    <d56>   DW_AT_decl_column : 27
    <d57>   DW_AT_type        : <0xc74>
 <1><d5b>: Abbrev Number: 8 (DW_TAG_pointer_type)
    <d5c>   DW_AT_byte_size   : 4
    <d5d>   DW_AT_type        : <0xd4f>
 <1><d61>: Abbrev Number: 10 (DW_TAG_structure_type)
    <d62>   DW_AT_byte_size   : 8
    <d63>   DW_AT_decl_file   : 6
    <d64>   DW_AT_decl_line   : 7
    <d65>   DW_AT_decl_column : 16
    <d66>   DW_AT_linkage_name: (indirect string, offset: 0x6a6): 8idt_gate
    <d6a>   DW_AT_sibling     : <0xdb0>
 <2><d6e>: Abbrev Number: 7 (DW_TAG_member)
    <d6f>   DW_AT_name        : (indirect string, offset: 0x5a8): loffset
    <d73>   DW_AT_decl_file   : 6
    <d74>   DW_AT_decl_line   : 8
    <d75>   DW_AT_decl_column : 9
    <d76>   DW_AT_type        : <0xba9>
    <d7a>   DW_AT_data_member_location: 0
 <2><d7b>: Abbrev Number: 11 (DW_TAG_member)
    <d7c>   DW_AT_name        : sel
    <d80>   DW_AT_decl_file   : 6
    <d81>   DW_AT_decl_line   : 9
    <d82>   DW_AT_decl_column : 9
    <d83>   DW_AT_type        : <0xba9>
    <d87>   DW_AT_data_member_location: 2
 <2><d88>: Abbrev Number: 7 (DW_TAG_member)
    <d89>   DW_AT_name        : (indirect string, offset: 0x5a0): always0
    <d8d>   DW_AT_decl_file   : 6
    <d8e>   DW_AT_decl_line   : 10
    <d8f>   DW_AT_decl_column : 9
    <d90>   DW_AT_type        : <0xb97>
    <d94>   DW_AT_data_member_location: 4
 <2><d95>: Abbrev Number: 7 (DW_TAG_member)
    <d96>   DW_AT_name        : (indirect string, offset: 0xaac): flags
    <d9a>   DW_AT_decl_file   : 6
    <d9b>   DW_AT_decl_line   : 11
    <d9c>   DW_AT_decl_column : 9
    <d9d>   DW_AT_type        : <0xb97>
    <da1>   DW_AT_data_member_location: 5
 <2><da2>: Abbrev Number: 7 (DW_TAG_member)
    <da3>   DW_AT_name        : (indirect string, offset: 0x6c4): hoffset
    <da7>   DW_AT_decl_file   : 6
    <da8>   DW_AT_decl_line   : 12
    <da9>   DW_AT_decl_column : 9
    <daa>   DW_AT_type        : <0xba9>
    <dae>   DW_AT_data_member_location: 6
 <2><daf>: Abbrev Number: 0
 <1><db0>: Abbrev Number: 12 (DW_TAG_typedef)
    <db1>   DW_AT_name        : (indirect string, offset: 0x6a7): idt_gate
    <db5>   DW_AT_decl_file   : 6
    <db6>   DW_AT_decl_line   : 13
    <db7>   DW_AT_decl_column : 27
    <db8>   DW_AT_type        : <0xd61>
 <1><dbc>: Abbrev Number: 10 (DW_TAG_structure_type)
    <dbd>   DW_AT_byte_size   : 6
    <dbe>   DW_AT_decl_file   : 6
    <dbf>   DW_AT_decl_line   : 15
    <dc0>   DW_AT_decl_column : 16
    <dc1>   DW_AT_linkage_name: (indirect string, offset: 0x592): 11idt_pointer
    <dc5>   DW_AT_sibling     : <0xde4>
 <2><dc9>: Abbrev Number: 7 (DW_TAG_member)
    <dca>   DW_AT_name        : (indirect string, offset: 0x457): limit
    <dce>   DW_AT_decl_file   : 6
    <dcf>   DW_AT_decl_line   : 16
    <dd0>   DW_AT_decl_column : 9
    <dd1>   DW_AT_type        : <0xba9>
    <dd5>   DW_AT_data_member_location: 0
 <2><dd6>: Abbrev Number: 7 (DW_TAG_member)
    <dd7>   DW_AT_name        : (indirect string, offset: 0x554): base
    <ddb>   DW_AT_decl_file   : 6
    <ddc>   DW_AT_decl_line   : 17
    <ddd>   DW_AT_decl_column : 9
    <dde>   DW_AT_type        : <0xbbc>
    <de2>   DW_AT_data_member_location: 2
 <2><de3>: Abbrev Number: 0
 <1><de4>: Abbrev Number: 12 (DW_TAG_typedef)
    <de5>   DW_AT_name        : (indirect string, offset: 0x594): idt_pointer
    <de9>   DW_AT_decl_file   : 6
    <dea>   DW_AT_decl_line   : 18
    <deb>   DW_AT_decl_column : 27
    <dec>   DW_AT_type        : <0xdbc>
 <1><df0>: Abbrev Number: 13 (DW_TAG_array_type)
    <df1>   DW_AT_type        : <0xdb0>
    <df5>   DW_AT_sibling     : <0xe00>
 <2><df9>: Abbrev Number: 14 (DW_TAG_subrange_type)
    <dfa>   DW_AT_type        : <0xbc8>
    <dfe>   DW_AT_upper_bound : 255
 <2><dff>: Abbrev Number: 0
 <1><e00>: Abbrev Number: 15 (DW_TAG_variable)
    <e01>   DW_AT_name        : idt
    <e05>   DW_AT_decl_file   : 6
    <e06>   DW_AT_decl_line   : 21
    <e07>   DW_AT_decl_column : 13
    <e08>   DW_AT_type        : <0xdf0>
    <e0c>   DW_AT_external    : 1
    <e0c>   DW_AT_location    : 5 byte block: 3 40 f7 12 0 	(DW_OP_addr: 12f740)
 <1><e12>: Abbrev Number: 16 (DW_TAG_variable)
    <e13>   DW_AT_name        : (indirect string, offset: 0x46f): idt_ptr
    <e17>   DW_AT_decl_file   : 6
    <e18>   DW_AT_decl_line   : 22
    <e19>   DW_AT_decl_column : 13
    <e1a>   DW_AT_type        : <0xde4>
    <e1e>   DW_AT_external    : 1
    <e1e>   DW_AT_location    : 5 byte block: 3 40 ff 12 0 	(DW_OP_addr: 12ff40)
 <1><e24>: Abbrev Number: 17 (DW_TAG_enumeration_type)
    <e25>   DW_AT_encoding    : 7	(unsigned)
    <e26>   DW_AT_byte_size   : 4
    <e27>   DW_AT_type        : <0xbc8>
    <e2b>   DW_AT_decl_file   : 7
    <e2c>   DW_AT_decl_line   : 5
    <e2d>   DW_AT_decl_column : 14
    <e2e>   DW_AT_linkage_name: (indirect string, offset: 0x68c): 10DRIVE_TYPE
    <e32>   DW_AT_sibling     : <0xe43>
 <2><e36>: Abbrev Number: 18 (DW_TAG_enumerator)
    <e37>   DW_AT_name        : (indirect string, offset: 0x576): PARTITION
    <e3b>   DW_AT_const_value : 0
 <2><e3c>: Abbrev Number: 18 (DW_TAG_enumerator)
    <e3d>   DW_AT_name        : (indirect string, offset: 0x56c): DRIVE_IDE
    <e41>   DW_AT_const_value : 1
 <2><e42>: Abbrev Number: 0
 <1><e43>: Abbrev Number: 12 (DW_TAG_typedef)
    <e44>   DW_AT_name        : (indirect string, offset: 0x68e): DRIVE_TYPE
    <e48>   DW_AT_decl_file   : 7
    <e49>   DW_AT_decl_line   : 8
    <e4a>   DW_AT_decl_column : 3
    <e4b>   DW_AT_type        : <0xe24>
 <1><e4f>: Abbrev Number: 10 (DW_TAG_structure_type)
    <e50>   DW_AT_byte_size   : 12
    <e51>   DW_AT_decl_file   : 7
    <e52>   DW_AT_decl_line   : 10
    <e53>   DW_AT_decl_column : 16
    <e54>   DW_AT_linkage_name: (indirect string, offset: 0x69f): 5drive
    <e58>   DW_AT_sibling     : <0xe84>
 <2><e5c>: Abbrev Number: 7 (DW_TAG_member)
    <e5d>   DW_AT_name        : (indirect string, offset: 0x984): type
    <e61>   DW_AT_decl_file   : 7
    <e62>   DW_AT_decl_line   : 11
    <e63>   DW_AT_decl_column : 16
    <e64>   DW_AT_type        : <0xe43>
    <e68>   DW_AT_data_member_location: 0
 <2><e69>: Abbrev Number: 7 (DW_TAG_member)
    <e6a>   DW_AT_name        : (indirect string, offset: 0x559): device_name
    <e6e>   DW_AT_decl_file   : 7
    <e6f>   DW_AT_decl_line   : 13
    <e70>   DW_AT_decl_column : 11
    <e71>   DW_AT_type        : <0xc3f>
    <e75>   DW_AT_data_member_location: 4
 <2><e76>: Abbrev Number: 7 (DW_TAG_member)
    <e77>   DW_AT_name        : (indirect string, offset: 0x47c): size
    <e7b>   DW_AT_decl_file   : 7
    <e7c>   DW_AT_decl_line   : 14
    <e7d>   DW_AT_decl_column : 11
    <e7e>   DW_AT_type        : <0xbbc>
    <e82>   DW_AT_data_member_location: 8
 <2><e83>: Abbrev Number: 0
 <1><e84>: Abbrev Number: 12 (DW_TAG_typedef)
    <e85>   DW_AT_name        : (indirect string, offset: 0x6a0): drive
    <e89>   DW_AT_decl_file   : 7
    <e8a>   DW_AT_decl_line   : 15
    <e8b>   DW_AT_decl_column : 3
    <e8c>   DW_AT_type        : <0xe4f>
 <1><e90>: Abbrev Number: 8 (DW_TAG_pointer_type)
    <e91>   DW_AT_byte_size   : 4
    <e92>   DW_AT_type        : <0xe84>
 <1><e96>: Abbrev Number: 10 (DW_TAG_structure_type)
    <e97>   DW_AT_byte_size   : 28
    <e98>   DW_AT_decl_file   : 8
    <e99>   DW_AT_decl_line   : 6
    <e9a>   DW_AT_decl_column : 16
    <e9b>   DW_AT_linkage_name: (indirect string, offset: 0x6bc): 6apo_fs
    <e9f>   DW_AT_sibling     : <0xeff>
 <2><ea3>: Abbrev Number: 7 (DW_TAG_member)
    <ea4>   DW_AT_name        : (indirect string, offset: 0x491): device
    <ea8>   DW_AT_decl_file   : 8
    <ea9>   DW_AT_decl_line   : 7
    <eaa>   DW_AT_decl_column : 12
    <eab>   DW_AT_type        : <0xe90>
    <eaf>   DW_AT_data_member_location: 0
 <2><eb0>: Abbrev Number: 7 (DW_TAG_member)
    <eb1>   DW_AT_name        : (indirect string, offset: 0x6cc): bitmap_base
    <eb5>   DW_AT_decl_file   : 8
    <eb6>   DW_AT_decl_line   : 9
    <eb7>   DW_AT_decl_column : 9
    <eb8>   DW_AT_type        : <0xbbc>
    <ebc>   DW_AT_data_member_location: 4
 <2><ebd>: Abbrev Number: 7 (DW_TAG_member)
    <ebe>   DW_AT_name        : (indirect string, offset: 0x54e): table_base
    <ec2>   DW_AT_decl_file   : 8
    <ec3>   DW_AT_decl_line   : 10
    <ec4>   DW_AT_decl_column : 9
    <ec5>   DW_AT_type        : <0xbbc>
    <ec9>   DW_AT_data_member_location: 8
 <2><eca>: Abbrev Number: 7 (DW_TAG_member)
    <ecb>   DW_AT_name        : (indirect string, offset: 0x50b): file_base
    <ecf>   DW_AT_decl_file   : 8
    <ed0>   DW_AT_decl_line   : 11
    <ed1>   DW_AT_decl_column : 9
    <ed2>   DW_AT_type        : <0xbbc>
    <ed6>   DW_AT_data_member_location: 12
 <2><ed7>: Abbrev Number: 7 (DW_TAG_member)
    <ed8>   DW_AT_name        : (indirect string, offset: 0x477): desc_size
    <edc>   DW_AT_decl_file   : 8
    <edd>   DW_AT_decl_line   : 12
    <ede>   DW_AT_decl_column : 9
    <edf>   DW_AT_type        : <0xba9>
    <ee3>   DW_AT_data_member_location: 16
 <2><ee4>: Abbrev Number: 7 (DW_TAG_member)
    <ee5>   DW_AT_name        : (indirect string, offset: 0x263): bitmap
    <ee9>   DW_AT_decl_file   : 8
    <eea>   DW_AT_decl_line   : 14
    <eeb>   DW_AT_decl_column : 9
    <eec>   DW_AT_type        : <0xeff>
    <ef0>   DW_AT_data_member_location: 20
 <2><ef1>: Abbrev Number: 7 (DW_TAG_member)
    <ef2>   DW_AT_name        : (indirect string, offset: 0x4da): bitmap_size
    <ef6>   DW_AT_decl_file   : 8
    <ef7>   DW_AT_decl_line   : 15
    <ef8>   DW_AT_decl_column : 9
    <ef9>   DW_AT_type        : <0xbbc>
    <efd>   DW_AT_data_member_location: 24
 <2><efe>: Abbrev Number: 0
 <1><eff>: Abbrev Number: 8 (DW_TAG_pointer_type)
    <f00>   DW_AT_byte_size   : 4
    <f01>   DW_AT_type        : <0xb97>
 <1><f05>: Abbrev Number: 12 (DW_TAG_typedef)
    <f06>   DW_AT_name        : (indirect string, offset: 0x6bd): apo_fs
    <f0a>   DW_AT_decl_file   : 8
    <f0b>   DW_AT_decl_line   : 16
    <f0c>   DW_AT_decl_column : 3
    <f0d>   DW_AT_type        : <0xe96>
 <1><f11>: Abbrev Number: 9 (DW_TAG_variable)
    <f12>   DW_AT_name        : (indirect string, offset: 0x541): current_root
    <f16>   DW_AT_decl_file   : 8
    <f17>   DW_AT_decl_line   : 26
    <f18>   DW_AT_decl_column : 16
    <f19>   DW_AT_type        : <0xf1d>
    <f1d>   DW_AT_external    : 1
    <f1d>   DW_AT_declaration : 1
 <1><f1d>: Abbrev Number: 8 (DW_TAG_pointer_type)
    <f1e>   DW_AT_byte_size   : 4
    <f1f>   DW_AT_type        : <0xf05>
 <1><f23>: Abbrev Number: 19 (DW_TAG_structure_type)
    <f24>   DW_AT_name        : (indirect string, offset: 0x52): vmem_table_entry
    <f28>   DW_AT_byte_size   : 4
    <f29>   DW_AT_decl_file   : 9
    <f2a>   DW_AT_decl_line   : 35
    <f2b>   DW_AT_decl_column : 16
    <f2c>   DW_AT_sibling     : <0xfe1>
 <2><f30>: Abbrev Number: 20 (DW_TAG_member)
    <f31>   DW_AT_name        : (indirect string, offset: 0x917): present
    <f35>   DW_AT_decl_file   : 9
    <f36>   DW_AT_decl_line   : 36
    <f37>   DW_AT_decl_column : 9
    <f38>   DW_AT_type        : <0xbbc>
    <f3c>   DW_AT_byte_size   : 4
    <f3d>   DW_AT_bit_size    : 1
    <f3e>   DW_AT_bit_offset  : 31
    <f3f>   DW_AT_data_member_location: 0
 <2><f40>: Abbrev Number: 20 (DW_TAG_member)
    <f41>   DW_AT_name        : (indirect string, offset: 0x0): writable
    <f45>   DW_AT_decl_file   : 9
    <f46>   DW_AT_decl_line   : 37
    <f47>   DW_AT_decl_column : 9
    <f48>   DW_AT_type        : <0xbbc>
    <f4c>   DW_AT_byte_size   : 4
    <f4d>   DW_AT_bit_size    : 1
    <f4e>   DW_AT_bit_offset  : 30
    <f4f>   DW_AT_data_member_location: 0
 <2><f50>: Abbrev Number: 20 (DW_TAG_member)
    <f51>   DW_AT_name        : (indirect string, offset: 0x281): user
    <f55>   DW_AT_decl_file   : 9
    <f56>   DW_AT_decl_line   : 38
    <f57>   DW_AT_decl_column : 9
    <f58>   DW_AT_type        : <0xbbc>
    <f5c>   DW_AT_byte_size   : 4
    <f5d>   DW_AT_bit_size    : 1
    <f5e>   DW_AT_bit_offset  : 29
    <f5f>   DW_AT_data_member_location: 0
 <2><f60>: Abbrev Number: 21 (DW_TAG_member)
    <f61>   DW_AT_name        : pwt
    <f65>   DW_AT_decl_file   : 9
    <f66>   DW_AT_decl_line   : 39
    <f67>   DW_AT_decl_column : 9
    <f68>   DW_AT_type        : <0xbbc>
    <f6c>   DW_AT_byte_size   : 4
    <f6d>   DW_AT_bit_size    : 1
    <f6e>   DW_AT_bit_offset  : 28
    <f6f>   DW_AT_data_member_location: 0
 <2><f70>: Abbrev Number: 21 (DW_TAG_member)
    <f71>   DW_AT_name        : pcd
    <f75>   DW_AT_decl_file   : 9
    <f76>   DW_AT_decl_line   : 40
    <f77>   DW_AT_decl_column : 9
    <f78>   DW_AT_type        : <0xbbc>
    <f7c>   DW_AT_byte_size   : 4
    <f7d>   DW_AT_bit_size    : 1
    <f7e>   DW_AT_bit_offset  : 27
    <f7f>   DW_AT_data_member_location: 0
 <2><f80>: Abbrev Number: 20 (DW_TAG_member)
    <f81>   DW_AT_name        : (indirect string, offset: 0xab): accessed
    <f85>   DW_AT_decl_file   : 9
    <f86>   DW_AT_decl_line   : 41
    <f87>   DW_AT_decl_column : 9
    <f88>   DW_AT_type        : <0xbbc>
    <f8c>   DW_AT_byte_size   : 4
    <f8d>   DW_AT_bit_size    : 1
    <f8e>   DW_AT_bit_offset  : 26
    <f8f>   DW_AT_data_member_location: 0
 <2><f90>: Abbrev Number: 20 (DW_TAG_member)
    <f91>   DW_AT_name        : (indirect string, offset: 0x3ec): intelresv
    <f95>   DW_AT_decl_file   : 9
    <f96>   DW_AT_decl_line   : 42
    <f97>   DW_AT_decl_column : 9
    <f98>   DW_AT_type        : <0xbbc>
    <f9c>   DW_AT_byte_size   : 4
    <f9d>   DW_AT_bit_size    : 1
    <f9e>   DW_AT_bit_offset  : 25
    <f9f>   DW_AT_data_member_location: 0
 <2><fa0>: Abbrev Number: 20 (DW_TAG_member)
    <fa1>   DW_AT_name        : (indirect string, offset: 0x2a8): four_mb
    <fa5>   DW_AT_decl_file   : 9
    <fa6>   DW_AT_decl_line   : 43
    <fa7>   DW_AT_decl_column : 9
    <fa8>   DW_AT_type        : <0xbbc>
    <fac>   DW_AT_byte_size   : 4
    <fad>   DW_AT_bit_size    : 1
    <fae>   DW_AT_bit_offset  : 24
    <faf>   DW_AT_data_member_location: 0
 <2><fb0>: Abbrev Number: 20 (DW_TAG_member)
    <fb1>   DW_AT_name        : (indirect string, offset: 0x2be): global
    <fb5>   DW_AT_decl_file   : 9
    <fb6>   DW_AT_decl_line   : 44
    <fb7>   DW_AT_decl_column : 9
    <fb8>   DW_AT_type        : <0xbbc>
    <fbc>   DW_AT_byte_size   : 4
    <fbd>   DW_AT_bit_size    : 1
    <fbe>   DW_AT_bit_offset  : 23
    <fbf>   DW_AT_data_member_location: 0
 <2><fc0>: Abbrev Number: 20 (DW_TAG_member)
    <fc1>   DW_AT_name        : (indirect string, offset: 0x43d): reserved
    <fc5>   DW_AT_decl_file   : 9
    <fc6>   DW_AT_decl_line   : 45
    <fc7>   DW_AT_decl_column : 9
    <fc8>   DW_AT_type        : <0xbbc>
    <fcc>   DW_AT_byte_size   : 4
    <fcd>   DW_AT_bit_size    : 3
    <fce>   DW_AT_bit_offset  : 20
    <fcf>   DW_AT_data_member_location: 0
 <2><fd0>: Abbrev Number: 20 (DW_TAG_member)
    <fd1>   DW_AT_name        : (indirect string, offset: 0x1ae): frame
    <fd5>   DW_AT_decl_file   : 9
    <fd6>   DW_AT_decl_line   : 46
    <fd7>   DW_AT_decl_column : 9
    <fd8>   DW_AT_type        : <0xbbc>
    <fdc>   DW_AT_byte_size   : 4
    <fdd>   DW_AT_bit_size    : 20
    <fde>   DW_AT_bit_offset  : 0
    <fdf>   DW_AT_data_member_location: 0
 <2><fe0>: Abbrev Number: 0
 <1><fe1>: Abbrev Number: 12 (DW_TAG_typedef)
    <fe2>   DW_AT_name        : (indirect string, offset: 0x52): vmem_table_entry
    <fe6>   DW_AT_decl_file   : 9
    <fe7>   DW_AT_decl_line   : 47
    <fe8>   DW_AT_decl_column : 3
    <fe9>   DW_AT_type        : <0xf23>
 <1><fed>: Abbrev Number: 22 (DW_TAG_structure_type)
    <fee>   DW_AT_name        : (indirect string, offset: 0x29): vmem
    <ff2>   DW_AT_byte_size   : 4096
    <ff4>   DW_AT_decl_file   : 9
    <ff5>   DW_AT_decl_line   : 53
    <ff6>   DW_AT_decl_column : 16
    <ff7>   DW_AT_sibling     : <0x1009>
 <2><ffb>: Abbrev Number: 7 (DW_TAG_member)
    <ffc>   DW_AT_name        : (indirect string, offset: 0x146): tables
    <1000>   DW_AT_decl_file   : 9
    <1001>   DW_AT_decl_line   : 54
    <1002>   DW_AT_decl_column : 22
    <1003>   DW_AT_type        : <0x1009>
    <1007>   DW_AT_data_member_location: 0
 <2><1008>: Abbrev Number: 0
 <1><1009>: Abbrev Number: 13 (DW_TAG_array_type)
    <100a>   DW_AT_type        : <0xfe1>
    <100e>   DW_AT_sibling     : <0x101a>
 <2><1012>: Abbrev Number: 23 (DW_TAG_subrange_type)
    <1013>   DW_AT_type        : <0xbc8>
    <1017>   DW_AT_upper_bound : 1023
 <2><1019>: Abbrev Number: 0
 <1><101a>: Abbrev Number: 12 (DW_TAG_typedef)
    <101b>   DW_AT_name        : (indirect string, offset: 0x29): vmem
    <101f>   DW_AT_decl_file   : 9
    <1020>   DW_AT_decl_line   : 55
    <1021>   DW_AT_decl_column : 3
    <1022>   DW_AT_type        : <0xfed>
 <1><1026>: Abbrev Number: 9 (DW_TAG_variable)
    <1027>   DW_AT_name        : (indirect string, offset: 0x239): kernel_memory
    <102b>   DW_AT_decl_file   : 9
    <102c>   DW_AT_decl_line   : 57
    <102d>   DW_AT_decl_column : 14
    <102e>   DW_AT_type        : <0x1032>
    <1032>   DW_AT_external    : 1
    <1032>   DW_AT_declaration : 1
 <1><1032>: Abbrev Number: 8 (DW_TAG_pointer_type)
    <1033>   DW_AT_byte_size   : 4
    <1034>   DW_AT_type        : <0x101a>
 <1><1038>: Abbrev Number: 10 (DW_TAG_structure_type)
    <1039>   DW_AT_byte_size   : 12
    <103a>   DW_AT_decl_file   : 10
    <103b>   DW_AT_decl_line   : 16
    <103c>   DW_AT_decl_column : 16
    <103d>   DW_AT_linkage_name: (indirect string, offset: 0x684): 6PARRAY
    <1041>   DW_AT_sibling     : <0x106d>
 <2><1045>: Abbrev Number: 7 (DW_TAG_member)
    <1046>   DW_AT_name        : (indirect string, offset: 0x2f7): buffer
    <104a>   DW_AT_decl_file   : 10
    <104b>   DW_AT_decl_line   : 17
    <104c>   DW_AT_decl_column : 12
    <104d>   DW_AT_type        : <0x106d>
    <1051>   DW_AT_data_member_location: 0
 <2><1052>: Abbrev Number: 7 (DW_TAG_member)
    <1053>   DW_AT_name        : (indirect string, offset: 0x699): count
    <1057>   DW_AT_decl_file   : 10
    <1058>   DW_AT_decl_line   : 19
    <1059>   DW_AT_decl_column : 12
    <105a>   DW_AT_type        : <0xbbc>
    <105e>   DW_AT_data_member_location: 4
 <2><105f>: Abbrev Number: 7 (DW_TAG_member)
    <1060>   DW_AT_name        : (indirect string, offset: 0x47c): size
    <1064>   DW_AT_decl_file   : 10
    <1065>   DW_AT_decl_line   : 20
    <1066>   DW_AT_decl_column : 12
    <1067>   DW_AT_type        : <0xbbc>
    <106b>   DW_AT_data_member_location: 8
 <2><106c>: Abbrev Number: 0
 <1><106d>: Abbrev Number: 8 (DW_TAG_pointer_type)
    <106e>   DW_AT_byte_size   : 4
    <106f>   DW_AT_type        : <0x1073>
 <1><1073>: Abbrev Number: 24 (DW_TAG_pointer_type)
    <1074>   DW_AT_byte_size   : 4
 <1><1075>: Abbrev Number: 12 (DW_TAG_typedef)
    <1076>   DW_AT_name        : (indirect string, offset: 0x685): PARRAY
    <107a>   DW_AT_decl_file   : 10
    <107b>   DW_AT_decl_line   : 21
    <107c>   DW_AT_decl_column : 3
    <107d>   DW_AT_type        : <0x1038>
 <1><1081>: Abbrev Number: 10 (DW_TAG_structure_type)
    <1082>   DW_AT_byte_size   : 16
    <1083>   DW_AT_decl_file   : 10
    <1084>   DW_AT_decl_line   : 23
    <1085>   DW_AT_decl_column : 16
    <1086>   DW_AT_linkage_name: (indirect string, offset: 0x4b8): 5ARRAY
    <108a>   DW_AT_sibling     : <0x10c3>
 <2><108e>: Abbrev Number: 7 (DW_TAG_member)
    <108f>   DW_AT_name        : (indirect string, offset: 0x2f7): buffer
    <1093>   DW_AT_decl_file   : 10
    <1094>   DW_AT_decl_line   : 24
    <1095>   DW_AT_decl_column : 12
    <1096>   DW_AT_type        : <0x106d>
    <109a>   DW_AT_data_member_location: 0
 <2><109b>: Abbrev Number: 7 (DW_TAG_member)
    <109c>   DW_AT_name        : (indirect string, offset: 0x699): count
    <10a0>   DW_AT_decl_file   : 10
    <10a1>   DW_AT_decl_line   : 26
    <10a2>   DW_AT_decl_column : 12
    <10a3>   DW_AT_type        : <0xbbc>
    <10a7>   DW_AT_data_member_location: 4
 <2><10a8>: Abbrev Number: 7 (DW_TAG_member)
    <10a9>   DW_AT_name        : (indirect string, offset: 0x47c): size
    <10ad>   DW_AT_decl_file   : 10
    <10ae>   DW_AT_decl_line   : 27
    <10af>   DW_AT_decl_column : 12
    <10b0>   DW_AT_type        : <0xbbc>
    <10b4>   DW_AT_data_member_location: 8
 <2><10b5>: Abbrev Number: 7 (DW_TAG_member)
    <10b6>   DW_AT_name        : (indirect string, offset: 0x481): capacity
    <10ba>   DW_AT_decl_file   : 10
    <10bb>   DW_AT_decl_line   : 28
    <10bc>   DW_AT_decl_column : 12
    <10bd>   DW_AT_type        : <0xbbc>
    <10c1>   DW_AT_data_member_location: 12
 <2><10c2>: Abbrev Number: 0
 <1><10c3>: Abbrev Number: 12 (DW_TAG_typedef)
    <10c4>   DW_AT_name        : (indirect string, offset: 0x4b9): ARRAY
    <10c8>   DW_AT_decl_file   : 10
    <10c9>   DW_AT_decl_line   : 29
    <10ca>   DW_AT_decl_column : 3
    <10cb>   DW_AT_type        : <0x1081>
 <1><10cf>: Abbrev Number: 19 (DW_TAG_structure_type)
    <10d0>   DW_AT_name        : (indirect string, offset: 0x6b0): task
    <10d4>   DW_AT_byte_size   : 80
    <10d5>   DW_AT_decl_file   : 11
    <10d6>   DW_AT_decl_line   : 18
    <10d7>   DW_AT_decl_column : 16
    <10d8>   DW_AT_sibling     : <0x11a0>
 <2><10dc>: Abbrev Number: 11 (DW_TAG_member)
    <10dd>   DW_AT_name        : pid
    <10e1>   DW_AT_decl_file   : 11
    <10e2>   DW_AT_decl_line   : 19
    <10e3>   DW_AT_decl_column : 12
    <10e4>   DW_AT_type        : <0xbbc>
    <10e8>   DW_AT_data_member_location: 0
 <2><10e9>: Abbrev Number: 11 (DW_TAG_member)
    <10ea>   DW_AT_name        : mem
    <10ee>   DW_AT_decl_file   : 11
    <10ef>   DW_AT_decl_line   : 20
    <10f0>   DW_AT_decl_column : 12
    <10f1>   DW_AT_type        : <0x1032>
    <10f5>   DW_AT_data_member_location: 4
 <2><10f6>: Abbrev Number: 7 (DW_TAG_member)
    <10f7>   DW_AT_name        : (indirect string, offset: 0x6dd): regs
    <10fb>   DW_AT_decl_file   : 11
    <10fc>   DW_AT_decl_line   : 22
    <10fd>   DW_AT_decl_column : 15
    <10fe>   DW_AT_type        : <0xd5b>
    <1102>   DW_AT_data_member_location: 8
 <2><1103>: Abbrev Number: 7 (DW_TAG_member)
    <1104>   DW_AT_name        : (indirect string, offset: 0x4cd): running
    <1108>   DW_AT_decl_file   : 11
    <1109>   DW_AT_decl_line   : 24
    <110a>   DW_AT_decl_column : 12
    <110b>   DW_AT_type        : <0xb97>
    <110f>   DW_AT_data_member_location: 12
 <2><1110>: Abbrev Number: 7 (DW_TAG_member)
    <1111>   DW_AT_name        : (indirect string, offset: 0x6b5): blocks
    <1115>   DW_AT_decl_file   : 11
    <1116>   DW_AT_decl_line   : 26
    <1117>   DW_AT_decl_column : 12
    <1118>   DW_AT_type        : <0x10c3>
    <111c>   DW_AT_data_member_location: 16
 <2><111d>: Abbrev Number: 7 (DW_TAG_member)
    <111e>   DW_AT_name        : (indirect string, offset: 0x5d): entry
    <1122>   DW_AT_decl_file   : 11
    <1123>   DW_AT_decl_line   : 28
    <1124>   DW_AT_decl_column : 12
    <1125>   DW_AT_type        : <0xbbc>
    <1129>   DW_AT_data_member_location: 32
 <2><112a>: Abbrev Number: 7 (DW_TAG_member)
    <112b>   DW_AT_name        : (indirect string, offset: 0x51d): stack
    <112f>   DW_AT_decl_file   : 11
    <1130>   DW_AT_decl_line   : 29
    <1131>   DW_AT_decl_column : 12
    <1132>   DW_AT_type        : <0xbbc>
    <1136>   DW_AT_data_member_location: 36
 <2><1137>: Abbrev Number: 7 (DW_TAG_member)
    <1138>   DW_AT_name        : (indirect string, offset: 0x4d5): heap
    <113c>   DW_AT_decl_file   : 11
    <113d>   DW_AT_decl_line   : 30
    <113e>   DW_AT_decl_column : 12
    <113f>   DW_AT_type        : <0xbbc>
    <1143>   DW_AT_data_member_location: 40
 <2><1144>: Abbrev Number: 7 (DW_TAG_member)
    <1145>   DW_AT_name        : (indirect string, offset: 0x452): heap_limit
    <1149>   DW_AT_decl_file   : 11
    <114a>   DW_AT_decl_line   : 32
    <114b>   DW_AT_decl_column : 12
    <114c>   DW_AT_type        : <0xbbc>
    <1150>   DW_AT_data_member_location: 44
 <2><1151>: Abbrev Number: 11 (DW_TAG_member)
    <1152>   DW_AT_name        : esp
    <1156>   DW_AT_decl_file   : 11
    <1157>   DW_AT_decl_line   : 34
    <1158>   DW_AT_decl_column : 12
    <1159>   DW_AT_type        : <0xbbc>
    <115d>   DW_AT_data_member_location: 48
 <2><115e>: Abbrev Number: 11 (DW_TAG_member)
    <115f>   DW_AT_name        : ebp
    <1163>   DW_AT_decl_file   : 11
    <1164>   DW_AT_decl_line   : 35
    <1165>   DW_AT_decl_column : 12
    <1166>   DW_AT_type        : <0xbbc>
    <116a>   DW_AT_data_member_location: 52
 <2><116b>: Abbrev Number: 11 (DW_TAG_member)
    <116c>   DW_AT_name        : fds
    <1170>   DW_AT_decl_file   : 11
    <1171>   DW_AT_decl_line   : 37
    <1172>   DW_AT_decl_column : 12
    <1173>   DW_AT_type        : <0x1075>
    <1177>   DW_AT_data_member_location: 56
 <2><1178>: Abbrev Number: 7 (DW_TAG_member)
    <1179>   DW_AT_name        : (indirect string, offset: 0x505): stdin
    <117d>   DW_AT_decl_file   : 11
    <117e>   DW_AT_decl_line   : 39
    <117f>   DW_AT_decl_column : 12
    <1180>   DW_AT_type        : <0xc62>
    <1184>   DW_AT_data_member_location: 68
 <2><1185>: Abbrev Number: 7 (DW_TAG_member)
    <1186>   DW_AT_name        : (indirect string, offset: 0x6f0): stdout
    <118a>   DW_AT_decl_file   : 11
    <118b>   DW_AT_decl_line   : 40
    <118c>   DW_AT_decl_column : 12
    <118d>   DW_AT_type        : <0xc62>
    <1191>   DW_AT_data_member_location: 72
 <2><1192>: Abbrev Number: 7 (DW_TAG_member)
    <1193>   DW_AT_name        : (indirect string, offset: 0x4fe): stderr
    <1197>   DW_AT_decl_file   : 11
    <1198>   DW_AT_decl_line   : 41
    <1199>   DW_AT_decl_column : 12
    <119a>   DW_AT_type        : <0xc62>
    <119e>   DW_AT_data_member_location: 76
 <2><119f>: Abbrev Number: 0
 <1><11a0>: Abbrev Number: 12 (DW_TAG_typedef)
    <11a1>   DW_AT_name        : (indirect string, offset: 0x6b0): task
    <11a5>   DW_AT_decl_file   : 11
    <11a6>   DW_AT_decl_line   : 42
    <11a7>   DW_AT_decl_column : 3
    <11a8>   DW_AT_type        : <0x10cf>
 <1><11ac>: Abbrev Number: 9 (DW_TAG_variable)
    <11ad>   DW_AT_name        : (indirect string, offset: 0x580): task_previous_esp
    <11b1>   DW_AT_decl_file   : 11
    <11b2>   DW_AT_decl_line   : 44
    <11b3>   DW_AT_decl_column : 12
    <11b4>   DW_AT_type        : <0xbbc>
    <11b8>   DW_AT_external    : 1
    <11b8>   DW_AT_declaration : 1
 <1><11b8>: Abbrev Number: 9 (DW_TAG_variable)
    <11b9>   DW_AT_name        : (indirect string, offset: 0x45d): task_previous_ebp
    <11bd>   DW_AT_decl_file   : 11
    <11be>   DW_AT_decl_line   : 45
    <11bf>   DW_AT_decl_column : 12
    <11c0>   DW_AT_type        : <0xbbc>
    <11c4>   DW_AT_external    : 1
    <11c4>   DW_AT_declaration : 1
 <1><11c4>: Abbrev Number: 9 (DW_TAG_variable)
    <11c5>   DW_AT_name        : (indirect string, offset: 0x4bf): task_next_esp
    <11c9>   DW_AT_decl_file   : 11
    <11ca>   DW_AT_decl_line   : 47
    <11cb>   DW_AT_decl_column : 12
    <11cc>   DW_AT_type        : <0xbbc>
    <11d0>   DW_AT_external    : 1
    <11d0>   DW_AT_declaration : 1
 <1><11d0>: Abbrev Number: 9 (DW_TAG_variable)
    <11d1>   DW_AT_name        : (indirect string, offset: 0x5b9): task_next_ebp
    <11d5>   DW_AT_decl_file   : 11
    <11d6>   DW_AT_decl_line   : 48
    <11d7>   DW_AT_decl_column : 12
    <11d8>   DW_AT_type        : <0xbbc>
    <11dc>   DW_AT_external    : 1
    <11dc>   DW_AT_declaration : 1
 <1><11dc>: Abbrev Number: 8 (DW_TAG_pointer_type)
    <11dd>   DW_AT_byte_size   : 4
    <11de>   DW_AT_type        : <0xb7d>
 <1><11e2>: Abbrev Number: 25 (DW_TAG_namespace)
    <11e3>   DW_AT_name        : apo
    <11e7>   DW_AT_decl_file   : 12
    <11e8>   DW_AT_decl_line   : 8
    <11e9>   DW_AT_decl_column : 11
    <11ea>   DW_AT_sibling     : <0x11f4>
 <2><11ee>: Abbrev Number: 26 (DW_TAG_class_type)
    <11ef>   DW_AT_name        : (indirect string, offset: 0x523): Filesystem
    <11f3>   DW_AT_declaration : 1
 <2><11f3>: Abbrev Number: 0
 <1><11f4>: Abbrev Number: 8 (DW_TAG_pointer_type)
    <11f5>   DW_AT_byte_size   : 4
    <11f6>   DW_AT_type        : <0x11ee>
 <1><11fa>: Abbrev Number: 2 (DW_TAG_base_type)
    <11fb>   DW_AT_byte_size   : 1
    <11fc>   DW_AT_encoding    : 2	(boolean)
    <11fd>   DW_AT_name        : (indirect string, offset: 0x4e6): bool
 <1><1201>: Abbrev Number: 27 (DW_TAG_imported_module)
    <1202>   DW_AT_decl_file   : 1
    <1203>   DW_AT_decl_line   : 29
    <1204>   DW_AT_decl_column : 17
    <1205>   DW_AT_import      : <0x11e2>	[Abbrev Number: 25 (DW_TAG_namespace)]
 <1><1209>: Abbrev Number: 9 (DW_TAG_variable)
    <120a>   DW_AT_name        : (indirect string, offset: 0x52e): last_kernel_cookie
    <120e>   DW_AT_decl_file   : 1
    <120f>   DW_AT_decl_line   : 48
    <1210>   DW_AT_decl_column : 12
    <1211>   DW_AT_type        : <0xbbc>
    <1215>   DW_AT_external    : 1
    <1215>   DW_AT_declaration : 1
 <1><1215>: Abbrev Number: 16 (DW_TAG_variable)
    <1216>   DW_AT_name        : (indirect string, offset: 0x5c7): kernel_stack_base
    <121a>   DW_AT_decl_file   : 1
    <121b>   DW_AT_decl_line   : 50
    <121c>   DW_AT_decl_column : 16
    <121d>   DW_AT_type        : <0xbbc>
    <1221>   DW_AT_external    : 1
    <1221>   DW_AT_location    : 5 byte block: 3 48 ff 12 0 	(DW_OP_addr: 12ff48)
 <1><1227>: Abbrev Number: 28 (DW_TAG_subprogram)
    <1228>   DW_AT_external    : 1
    <1228>   DW_AT_name        : (indirect string, offset: 0x498): kernel_main
    <122c>   DW_AT_decl_file   : 1
    <122d>   DW_AT_decl_line   : 52
    <122e>   DW_AT_decl_column : 17
    <122f>   DW_AT_low_pc      : 0x10b08d
    <1233>   DW_AT_high_pc     : 0x1d3
    <1237>   DW_AT_frame_base  : 1 byte block: 9c 	(DW_OP_call_frame_cfa)
    <1239>   DW_AT_GNU_all_tail_call_sites: 1
    <1239>   DW_AT_sibling     : <0x1268>
 <2><123d>: Abbrev Number: 29 (DW_TAG_formal_parameter)
    <123e>   DW_AT_name        : (indirect string, offset: 0x51d): stack
    <1242>   DW_AT_decl_file   : 1
    <1243>   DW_AT_decl_line   : 52
    <1244>   DW_AT_decl_column : 33
    <1245>   DW_AT_type        : <0xbbc>
    <1249>   DW_AT_location    : 2 byte block: 91 0 	(DW_OP_fbreg: 0)
 <2><124c>: Abbrev Number: 30 (DW_TAG_variable)
    <124d>   DW_AT_name        : fs
    <1250>   DW_AT_decl_file   : 1
    <1251>   DW_AT_decl_line   : 87
    <1252>   DW_AT_decl_column : 17
    <1253>   DW_AT_type        : <0x11f4>
    <1257>   DW_AT_location    : 2 byte block: 91 6c 	(DW_OP_fbreg: -20)
 <2><125a>: Abbrev Number: 30 (DW_TAG_variable)
    <125b>   DW_AT_name        : t
    <125d>   DW_AT_decl_file   : 1
    <125e>   DW_AT_decl_line   : 109
    <125f>   DW_AT_decl_column : 11
    <1260>   DW_AT_type        : <0x1268>
    <1264>   DW_AT_location    : 2 byte block: 91 68 	(DW_OP_fbreg: -24)
 <2><1267>: Abbrev Number: 0
 <1><1268>: Abbrev Number: 8 (DW_TAG_pointer_type)
    <1269>   DW_AT_byte_size   : 4
    <126a>   DW_AT_type        : <0x11a0>
 <1><126e>: Abbrev Number: 31 (DW_TAG_subprogram)
    <126f>   DW_AT_external    : 1
    <126f>   DW_AT_name        : (indirect string, offset: 0x4eb): __cxa_pure_virtual
    <1273>   DW_AT_decl_file   : 1
    <1274>   DW_AT_decl_line   : 44
    <1275>   DW_AT_decl_column : 17
    <1276>   DW_AT_low_pc      : 0x10b070
    <127a>   DW_AT_high_pc     : 0x1d
    <127e>   DW_AT_frame_base  : 1 byte block: 9c 	(DW_OP_call_frame_cfa)
    <1280>   DW_AT_GNU_all_tail_call_sites: 1
 <1><1280>: Abbrev Number: 32 (DW_TAG_subprogram)
    <1281>   DW_AT_external    : 1
    <1281>   DW_AT_name        : (indirect string, offset: 0x6e2): error_handler
    <1285>   DW_AT_decl_file   : 1
    <1286>   DW_AT_decl_line   : 31
    <1287>   DW_AT_decl_column : 17
    <1288>   DW_AT_low_pc      : 0x10affb
    <128c>   DW_AT_high_pc     : 0x75
    <1290>   DW_AT_frame_base  : 1 byte block: 9c 	(DW_OP_call_frame_cfa)
    <1292>   DW_AT_GNU_all_tail_call_sites: 1
 <2><1292>: Abbrev Number: 33 (DW_TAG_formal_parameter)
    <1293>   DW_AT_name        : err
    <1297>   DW_AT_decl_file   : 1
    <1298>   DW_AT_decl_line   : 31
    <1299>   DW_AT_decl_column : 43
    <129a>   DW_AT_type        : <0x11dc>
    <129e>   DW_AT_location    : 2 byte block: 91 0 	(DW_OP_fbreg: 0)
 <2><12a1>: Abbrev Number: 0
 <1><12a2>: Abbrev Number: 0
  Compilation Unit @ offset 0x12a3:
   Length:        0xe95 (32-bit)
   Version:       4
   Abbrev Offset: 0x4c2
   Pointer Size:  4
 <0><12ae>: Abbrev Number: 1 (DW_TAG_compile_unit)
    <12af>   DW_AT_producer    : (indirect string, offset: 0x5d9): GNU C++14 9.4.0 -m32 -mtune=generic -march=i686 -g -fno-exceptions -fno-rtti -fno-pie -ffreestanding -fasynchronous-unwind-tables -fstack-clash-protection -fcf-protection
    <12b3>   DW_AT_language    : 4	(C++)
    <12b4>   DW_AT_name        : (indirect string, offset: 0x823): src/kernel/task/task.cpp
    <12b8>   DW_AT_comp_dir    : (indirect string, offset: 0x162): /home/iliashdz/Desktop/Projects/apostrof
    <12bc>   DW_AT_low_pc      : 0x10d61c
    <12c0>   DW_AT_high_pc     : 0xd04
    <12c4>   DW_AT_stmt_list   : 0x651
 <1><12c8>: Abbrev Number: 2 (DW_TAG_base_type)
    <12c9>   DW_AT_byte_size   : 1
    <12ca>   DW_AT_encoding    : 6	(signed char)
    <12cb>   DW_AT_name        : (indirect string, offset: 0x1ef): char
 <1><12cf>: Abbrev Number: 3 (DW_TAG_const_type)
    <12d0>   DW_AT_type        : <0x12c8>
 <1><12d4>: Abbrev Number: 2 (DW_TAG_base_type)
    <12d5>   DW_AT_byte_size   : 2
    <12d6>   DW_AT_encoding    : 5	(signed)
    <12d7>   DW_AT_name        : (indirect string, offset: 0x6f): short int
 <1><12db>: Abbrev Number: 4 (DW_TAG_base_type)
    <12dc>   DW_AT_byte_size   : 4
    <12dd>   DW_AT_encoding    : 5	(signed)
    <12de>   DW_AT_name        : int
 <1><12e2>: Abbrev Number: 2 (DW_TAG_base_type)
    <12e3>   DW_AT_byte_size   : 8
    <12e4>   DW_AT_encoding    : 5	(signed)
    <12e5>   DW_AT_name        : (indirect string, offset: 0x128): long long int
 <1><12e9>: Abbrev Number: 5 (DW_TAG_typedef)
    <12ea>   DW_AT_name        : u8
    <12ed>   DW_AT_decl_file   : 2
    <12ee>   DW_AT_decl_line   : 10
    <12ef>   DW_AT_decl_column : 28
    <12f0>   DW_AT_type        : <0x12f4>
 <1><12f4>: Abbrev Number: 2 (DW_TAG_base_type)
    <12f5>   DW_AT_byte_size   : 1
    <12f6>   DW_AT_encoding    : 8	(unsigned char)
    <12f7>   DW_AT_name        : (indirect string, offset: 0x1e6): unsigned char
 <1><12fb>: Abbrev Number: 5 (DW_TAG_typedef)
    <12fc>   DW_AT_name        : u16
    <1300>   DW_AT_decl_file   : 2
    <1301>   DW_AT_decl_line   : 11
    <1302>   DW_AT_decl_column : 28
    <1303>   DW_AT_type        : <0x1307>
 <1><1307>: Abbrev Number: 2 (DW_TAG_base_type)
    <1308>   DW_AT_byte_size   : 2
    <1309>   DW_AT_encoding    : 7	(unsigned)
    <130a>   DW_AT_name        : (indirect string, offset: 0x286): short unsigned int
 <1><130e>: Abbrev Number: 5 (DW_TAG_typedef)
    <130f>   DW_AT_name        : u32
    <1313>   DW_AT_decl_file   : 2
    <1314>   DW_AT_decl_line   : 12
    <1315>   DW_AT_decl_column : 28
    <1316>   DW_AT_type        : <0x131a>
 <1><131a>: Abbrev Number: 2 (DW_TAG_base_type)
    <131b>   DW_AT_byte_size   : 4
    <131c>   DW_AT_encoding    : 7	(unsigned)
    <131d>   DW_AT_name        : (indirect string, offset: 0x205): unsigned int
 <1><1321>: Abbrev Number: 2 (DW_TAG_base_type)
    <1322>   DW_AT_byte_size   : 8
    <1323>   DW_AT_encoding    : 7	(unsigned)
    <1324>   DW_AT_name        : (indirect string, offset: 0x1fb): long long unsigned int
 <1><1328>: Abbrev Number: 2 (DW_TAG_base_type)
    <1329>   DW_AT_byte_size   : 4
    <132a>   DW_AT_encoding    : 4	(float)
    <132b>   DW_AT_name        : (indirect string, offset: 0x114): float
 <1><132f>: Abbrev Number: 2 (DW_TAG_base_type)
    <1330>   DW_AT_byte_size   : 8
    <1331>   DW_AT_encoding    : 4	(float)
    <1332>   DW_AT_name        : (indirect string, offset: 0x3a4): double
 <1><1336>: Abbrev Number: 6 (DW_TAG_structure_type)
    <1337>   DW_AT_name        : (indirect string, offset: 0x52): vmem_table_entry
    <133b>   DW_AT_byte_size   : 4
    <133c>   DW_AT_decl_file   : 3
    <133d>   DW_AT_decl_line   : 35
    <133e>   DW_AT_decl_column : 16
    <133f>   DW_AT_sibling     : <0x13f4>
 <2><1343>: Abbrev Number: 7 (DW_TAG_member)
    <1344>   DW_AT_name        : (indirect string, offset: 0x917): present
    <1348>   DW_AT_decl_file   : 3
    <1349>   DW_AT_decl_line   : 36
    <134a>   DW_AT_decl_column : 9
    <134b>   DW_AT_type        : <0x130e>
    <134f>   DW_AT_byte_size   : 4
    <1350>   DW_AT_bit_size    : 1
    <1351>   DW_AT_bit_offset  : 31
    <1352>   DW_AT_data_member_location: 0
 <2><1353>: Abbrev Number: 7 (DW_TAG_member)
    <1354>   DW_AT_name        : (indirect string, offset: 0x0): writable
    <1358>   DW_AT_decl_file   : 3
    <1359>   DW_AT_decl_line   : 37
    <135a>   DW_AT_decl_column : 9
    <135b>   DW_AT_type        : <0x130e>
    <135f>   DW_AT_byte_size   : 4
    <1360>   DW_AT_bit_size    : 1
    <1361>   DW_AT_bit_offset  : 30
    <1362>   DW_AT_data_member_location: 0
 <2><1363>: Abbrev Number: 7 (DW_TAG_member)
    <1364>   DW_AT_name        : (indirect string, offset: 0x281): user
    <1368>   DW_AT_decl_file   : 3
    <1369>   DW_AT_decl_line   : 38
    <136a>   DW_AT_decl_column : 9
    <136b>   DW_AT_type        : <0x130e>
    <136f>   DW_AT_byte_size   : 4
    <1370>   DW_AT_bit_size    : 1
    <1371>   DW_AT_bit_offset  : 29
    <1372>   DW_AT_data_member_location: 0
 <2><1373>: Abbrev Number: 8 (DW_TAG_member)
    <1374>   DW_AT_name        : pwt
    <1378>   DW_AT_decl_file   : 3
    <1379>   DW_AT_decl_line   : 39
    <137a>   DW_AT_decl_column : 9
    <137b>   DW_AT_type        : <0x130e>
    <137f>   DW_AT_byte_size   : 4
    <1380>   DW_AT_bit_size    : 1
    <1381>   DW_AT_bit_offset  : 28
    <1382>   DW_AT_data_member_location: 0
 <2><1383>: Abbrev Number: 8 (DW_TAG_member)
    <1384>   DW_AT_name        : pcd
    <1388>   DW_AT_decl_file   : 3
    <1389>   DW_AT_decl_line   : 40
    <138a>   DW_AT_decl_column : 9
    <138b>   DW_AT_type        : <0x130e>
    <138f>   DW_AT_byte_size   : 4
    <1390>   DW_AT_bit_size    : 1
    <1391>   DW_AT_bit_offset  : 27
    <1392>   DW_AT_data_member_location: 0
 <2><1393>: Abbrev Number: 7 (DW_TAG_member)
    <1394>   DW_AT_name        : (indirect string, offset: 0xab): accessed
    <1398>   DW_AT_decl_file   : 3
    <1399>   DW_AT_decl_line   : 41
    <139a>   DW_AT_decl_column : 9
    <139b>   DW_AT_type        : <0x130e>
    <139f>   DW_AT_byte_size   : 4
    <13a0>   DW_AT_bit_size    : 1
    <13a1>   DW_AT_bit_offset  : 26
    <13a2>   DW_AT_data_member_location: 0
 <2><13a3>: Abbrev Number: 7 (DW_TAG_member)
    <13a4>   DW_AT_name        : (indirect string, offset: 0x3ec): intelresv
    <13a8>   DW_AT_decl_file   : 3
    <13a9>   DW_AT_decl_line   : 42
    <13aa>   DW_AT_decl_column : 9
    <13ab>   DW_AT_type        : <0x130e>
    <13af>   DW_AT_byte_size   : 4
    <13b0>   DW_AT_bit_size    : 1
    <13b1>   DW_AT_bit_offset  : 25
    <13b2>   DW_AT_data_member_location: 0
 <2><13b3>: Abbrev Number: 7 (DW_TAG_member)
    <13b4>   DW_AT_name        : (indirect string, offset: 0x2a8): four_mb
    <13b8>   DW_AT_decl_file   : 3
    <13b9>   DW_AT_decl_line   : 43
    <13ba>   DW_AT_decl_column : 9
    <13bb>   DW_AT_type        : <0x130e>
    <13bf>   DW_AT_byte_size   : 4
    <13c0>   DW_AT_bit_size    : 1
    <13c1>   DW_AT_bit_offset  : 24
    <13c2>   DW_AT_data_member_location: 0
 <2><13c3>: Abbrev Number: 7 (DW_TAG_member)
    <13c4>   DW_AT_name        : (indirect string, offset: 0x2be): global
    <13c8>   DW_AT_decl_file   : 3
    <13c9>   DW_AT_decl_line   : 44
    <13ca>   DW_AT_decl_column : 9
    <13cb>   DW_AT_type        : <0x130e>
    <13cf>   DW_AT_byte_size   : 4
    <13d0>   DW_AT_bit_size    : 1
    <13d1>   DW_AT_bit_offset  : 23
    <13d2>   DW_AT_data_member_location: 0
 <2><13d3>: Abbrev Number: 7 (DW_TAG_member)
    <13d4>   DW_AT_name        : (indirect string, offset: 0x43d): reserved
    <13d8>   DW_AT_decl_file   : 3
    <13d9>   DW_AT_decl_line   : 45
    <13da>   DW_AT_decl_column : 9
    <13db>   DW_AT_type        : <0x130e>
    <13df>   DW_AT_byte_size   : 4
    <13e0>   DW_AT_bit_size    : 3
    <13e1>   DW_AT_bit_offset  : 20
    <13e2>   DW_AT_data_member_location: 0
 <2><13e3>: Abbrev Number: 7 (DW_TAG_member)
    <13e4>   DW_AT_name        : (indirect string, offset: 0x1ae): frame
    <13e8>   DW_AT_decl_file   : 3
    <13e9>   DW_AT_decl_line   : 46
    <13ea>   DW_AT_decl_column : 9
    <13eb>   DW_AT_type        : <0x130e>
    <13ef>   DW_AT_byte_size   : 4
    <13f0>   DW_AT_bit_size    : 20
    <13f1>   DW_AT_bit_offset  : 0
    <13f2>   DW_AT_data_member_location: 0
 <2><13f3>: Abbrev Number: 0
 <1><13f4>: Abbrev Number: 9 (DW_TAG_typedef)
    <13f5>   DW_AT_name        : (indirect string, offset: 0x52): vmem_table_entry
    <13f9>   DW_AT_decl_file   : 3
    <13fa>   DW_AT_decl_line   : 47
    <13fb>   DW_AT_decl_column : 3
    <13fc>   DW_AT_type        : <0x1336>
 <1><1400>: Abbrev Number: 10 (DW_TAG_structure_type)
    <1401>   DW_AT_name        : (indirect string, offset: 0x29): vmem
    <1405>   DW_AT_byte_size   : 4096
    <1407>   DW_AT_decl_file   : 3
    <1408>   DW_AT_decl_line   : 53
    <1409>   DW_AT_decl_column : 16
    <140a>   DW_AT_sibling     : <0x141c>
 <2><140e>: Abbrev Number: 11 (DW_TAG_member)
    <140f>   DW_AT_name        : (indirect string, offset: 0x146): tables
    <1413>   DW_AT_decl_file   : 3
    <1414>   DW_AT_decl_line   : 54
    <1415>   DW_AT_decl_column : 22
    <1416>   DW_AT_type        : <0x141c>
    <141a>   DW_AT_data_member_location: 0
 <2><141b>: Abbrev Number: 0
 <1><141c>: Abbrev Number: 12 (DW_TAG_array_type)
    <141d>   DW_AT_type        : <0x13f4>
    <1421>   DW_AT_sibling     : <0x142d>
 <2><1425>: Abbrev Number: 13 (DW_TAG_subrange_type)
    <1426>   DW_AT_type        : <0x131a>
    <142a>   DW_AT_upper_bound : 1023
 <2><142c>: Abbrev Number: 0
 <1><142d>: Abbrev Number: 9 (DW_TAG_typedef)
    <142e>   DW_AT_name        : (indirect string, offset: 0x29): vmem
    <1432>   DW_AT_decl_file   : 3
    <1433>   DW_AT_decl_line   : 55
    <1434>   DW_AT_decl_column : 3
    <1435>   DW_AT_type        : <0x1400>
 <1><1439>: Abbrev Number: 14 (DW_TAG_variable)
    <143a>   DW_AT_name        : (indirect string, offset: 0x239): kernel_memory
    <143e>   DW_AT_decl_file   : 3
    <143f>   DW_AT_decl_line   : 57
    <1440>   DW_AT_decl_column : 14
    <1441>   DW_AT_type        : <0x1445>
    <1445>   DW_AT_external    : 1
    <1445>   DW_AT_declaration : 1
 <1><1445>: Abbrev Number: 15 (DW_TAG_pointer_type)
    <1446>   DW_AT_byte_size   : 4
    <1447>   DW_AT_type        : <0x142d>
 <1><144b>: Abbrev Number: 16 (DW_TAG_structure_type)
    <144c>   DW_AT_byte_size   : 64
    <144d>   DW_AT_decl_file   : 4
    <144e>   DW_AT_decl_line   : 72
    <144f>   DW_AT_decl_column : 16
    <1450>   DW_AT_linkage_name: (indirect string, offset: 0x6d8): 8isr_regs
    <1454>   DW_AT_sibling     : <0x1526>
 <2><1458>: Abbrev Number: 17 (DW_TAG_member)
    <1459>   DW_AT_name        : ds
    <145c>   DW_AT_decl_file   : 4
    <145d>   DW_AT_decl_line   : 73
    <145e>   DW_AT_decl_column : 8
    <145f>   DW_AT_type        : <0x130e>
    <1463>   DW_AT_data_member_location: 0
 <2><1464>: Abbrev Number: 17 (DW_TAG_member)
    <1465>   DW_AT_name        : edi
    <1469>   DW_AT_decl_file   : 4
    <146a>   DW_AT_decl_line   : 74
    <146b>   DW_AT_decl_column : 8
    <146c>   DW_AT_type        : <0x130e>
    <1470>   DW_AT_data_member_location: 4
 <2><1471>: Abbrev Number: 17 (DW_TAG_member)
    <1472>   DW_AT_name        : esi
    <1476>   DW_AT_decl_file   : 4
    <1477>   DW_AT_decl_line   : 74
    <1478>   DW_AT_decl_column : 13
    <1479>   DW_AT_type        : <0x130e>
    <147d>   DW_AT_data_member_location: 8
 <2><147e>: Abbrev Number: 17 (DW_TAG_member)
    <147f>   DW_AT_name        : ebp
    <1483>   DW_AT_decl_file   : 4
    <1484>   DW_AT_decl_line   : 74
    <1485>   DW_AT_decl_column : 18
    <1486>   DW_AT_type        : <0x130e>
    <148a>   DW_AT_data_member_location: 12
 <2><148b>: Abbrev Number: 17 (DW_TAG_member)
    <148c>   DW_AT_name        : esp
    <1490>   DW_AT_decl_file   : 4
    <1491>   DW_AT_decl_line   : 74
    <1492>   DW_AT_decl_column : 23
    <1493>   DW_AT_type        : <0x130e>
    <1497>   DW_AT_data_member_location: 16
 <2><1498>: Abbrev Number: 17 (DW_TAG_member)
    <1499>   DW_AT_name        : ebx
    <149d>   DW_AT_decl_file   : 4
    <149e>   DW_AT_decl_line   : 74
    <149f>   DW_AT_decl_column : 28
    <14a0>   DW_AT_type        : <0x130e>
    <14a4>   DW_AT_data_member_location: 20
 <2><14a5>: Abbrev Number: 17 (DW_TAG_member)
    <14a6>   DW_AT_name        : edx
    <14aa>   DW_AT_decl_file   : 4
    <14ab>   DW_AT_decl_line   : 74
    <14ac>   DW_AT_decl_column : 33
    <14ad>   DW_AT_type        : <0x130e>
    <14b1>   DW_AT_data_member_location: 24
 <2><14b2>: Abbrev Number: 17 (DW_TAG_member)
    <14b3>   DW_AT_name        : ecx
    <14b7>   DW_AT_decl_file   : 4
    <14b8>   DW_AT_decl_line   : 74
    <14b9>   DW_AT_decl_column : 38
    <14ba>   DW_AT_type        : <0x130e>
    <14be>   DW_AT_data_member_location: 28
 <2><14bf>: Abbrev Number: 17 (DW_TAG_member)
    <14c0>   DW_AT_name        : eax
    <14c4>   DW_AT_decl_file   : 4
    <14c5>   DW_AT_decl_line   : 74
    <14c6>   DW_AT_decl_column : 43
    <14c7>   DW_AT_type        : <0x130e>
    <14cb>   DW_AT_data_member_location: 32
 <2><14cc>: Abbrev Number: 11 (DW_TAG_member)
    <14cd>   DW_AT_name        : (indirect string, offset: 0x565): int_no
    <14d1>   DW_AT_decl_file   : 4
    <14d2>   DW_AT_decl_line   : 75
    <14d3>   DW_AT_decl_column : 8
    <14d4>   DW_AT_type        : <0x130e>
    <14d8>   DW_AT_data_member_location: 36
 <2><14d9>: Abbrev Number: 11 (DW_TAG_member)
    <14da>   DW_AT_name        : (indirect string, offset: 0x5b0): err_code
    <14de>   DW_AT_decl_file   : 4
    <14df>   DW_AT_decl_line   : 75
    <14e0>   DW_AT_decl_column : 16
    <14e1>   DW_AT_type        : <0x130e>
    <14e5>   DW_AT_data_member_location: 40
 <2><14e6>: Abbrev Number: 17 (DW_TAG_member)
    <14e7>   DW_AT_name        : eip
    <14eb>   DW_AT_decl_file   : 4
    <14ec>   DW_AT_decl_line   : 76
    <14ed>   DW_AT_decl_column : 8
    <14ee>   DW_AT_type        : <0x130e>
    <14f2>   DW_AT_data_member_location: 44
 <2><14f3>: Abbrev Number: 17 (DW_TAG_member)
    <14f4>   DW_AT_name        : cs
    <14f7>   DW_AT_decl_file   : 4
    <14f8>   DW_AT_decl_line   : 76
    <14f9>   DW_AT_decl_column : 13
    <14fa>   DW_AT_type        : <0x130e>
    <14fe>   DW_AT_data_member_location: 48
 <2><14ff>: Abbrev Number: 11 (DW_TAG_member)
    <1500>   DW_AT_name        : (indirect string, offset: 0x48a): eflags
    <1504>   DW_AT_decl_file   : 4
    <1505>   DW_AT_decl_line   : 76
    <1506>   DW_AT_decl_column : 17
    <1507>   DW_AT_type        : <0x130e>
    <150b>   DW_AT_data_member_location: 52
 <2><150c>: Abbrev Number: 11 (DW_TAG_member)
    <150d>   DW_AT_name        : (indirect string, offset: 0x515): useresp
    <1511>   DW_AT_decl_file   : 4
    <1512>   DW_AT_decl_line   : 76
    <1513>   DW_AT_decl_column : 25
    <1514>   DW_AT_type        : <0x130e>
    <1518>   DW_AT_data_member_location: 56
 <2><1519>: Abbrev Number: 17 (DW_TAG_member)
    <151a>   DW_AT_name        : ss
    <151d>   DW_AT_decl_file   : 4
    <151e>   DW_AT_decl_line   : 76
    <151f>   DW_AT_decl_column : 34
    <1520>   DW_AT_type        : <0x130e>
    <1524>   DW_AT_data_member_location: 60
 <2><1525>: Abbrev Number: 0
 <1><1526>: Abbrev Number: 9 (DW_TAG_typedef)
    <1527>   DW_AT_name        : (indirect string, offset: 0x6d9): isr_regs
    <152b>   DW_AT_decl_file   : 4
    <152c>   DW_AT_decl_line   : 77
    <152d>   DW_AT_decl_column : 27
    <152e>   DW_AT_type        : <0x144b>
 <1><1532>: Abbrev Number: 15 (DW_TAG_pointer_type)
    <1533>   DW_AT_byte_size   : 4
    <1534>   DW_AT_type        : <0x1526>
 <1><1538>: Abbrev Number: 18 (DW_TAG_enumeration_type)
    <1539>   DW_AT_encoding    : 7	(unsigned)
    <153a>   DW_AT_byte_size   : 4
    <153b>   DW_AT_type        : <0x131a>
    <153f>   DW_AT_decl_file   : 5
    <1540>   DW_AT_decl_line   : 5
    <1541>   DW_AT_decl_column : 14
    <1542>   DW_AT_linkage_name: (indirect string, offset: 0x68c): 10DRIVE_TYPE
    <1546>   DW_AT_sibling     : <0x1557>
 <2><154a>: Abbrev Number: 19 (DW_TAG_enumerator)
    <154b>   DW_AT_name        : (indirect string, offset: 0x576): PARTITION
    <154f>   DW_AT_const_value : 0
 <2><1550>: Abbrev Number: 19 (DW_TAG_enumerator)
    <1551>   DW_AT_name        : (indirect string, offset: 0x56c): DRIVE_IDE
    <1555>   DW_AT_const_value : 1
 <2><1556>: Abbrev Number: 0
 <1><1557>: Abbrev Number: 9 (DW_TAG_typedef)
    <1558>   DW_AT_name        : (indirect string, offset: 0x68e): DRIVE_TYPE
    <155c>   DW_AT_decl_file   : 5
    <155d>   DW_AT_decl_line   : 8
    <155e>   DW_AT_decl_column : 3
    <155f>   DW_AT_type        : <0x1538>
 <1><1563>: Abbrev Number: 16 (DW_TAG_structure_type)
    <1564>   DW_AT_byte_size   : 12
    <1565>   DW_AT_decl_file   : 5
    <1566>   DW_AT_decl_line   : 10
    <1567>   DW_AT_decl_column : 16
    <1568>   DW_AT_linkage_name: (indirect string, offset: 0x69f): 5drive
    <156c>   DW_AT_sibling     : <0x1598>
 <2><1570>: Abbrev Number: 11 (DW_TAG_member)
    <1571>   DW_AT_name        : (indirect string, offset: 0x984): type
    <1575>   DW_AT_decl_file   : 5
    <1576>   DW_AT_decl_line   : 11
    <1577>   DW_AT_decl_column : 16
    <1578>   DW_AT_type        : <0x1557>
    <157c>   DW_AT_data_member_location: 0
 <2><157d>: Abbrev Number: 11 (DW_TAG_member)
    <157e>   DW_AT_name        : (indirect string, offset: 0x559): device_name
    <1582>   DW_AT_decl_file   : 5
    <1583>   DW_AT_decl_line   : 13
    <1584>   DW_AT_decl_column : 11
    <1585>   DW_AT_type        : <0x1598>
    <1589>   DW_AT_data_member_location: 4
 <2><158a>: Abbrev Number: 11 (DW_TAG_member)
    <158b>   DW_AT_name        : (indirect string, offset: 0x47c): size
    <158f>   DW_AT_decl_file   : 5
    <1590>   DW_AT_decl_line   : 14
    <1591>   DW_AT_decl_column : 11
    <1592>   DW_AT_type        : <0x130e>
    <1596>   DW_AT_data_member_location: 8
 <2><1597>: Abbrev Number: 0
 <1><1598>: Abbrev Number: 15 (DW_TAG_pointer_type)
    <1599>   DW_AT_byte_size   : 4
    <159a>   DW_AT_type        : <0x12c8>
 <1><159e>: Abbrev Number: 9 (DW_TAG_typedef)
    <159f>   DW_AT_name        : (indirect string, offset: 0x6a0): drive
    <15a3>   DW_AT_decl_file   : 5
    <15a4>   DW_AT_decl_line   : 15
    <15a5>   DW_AT_decl_column : 3
    <15a6>   DW_AT_type        : <0x1563>
 <1><15aa>: Abbrev Number: 15 (DW_TAG_pointer_type)
    <15ab>   DW_AT_byte_size   : 4
    <15ac>   DW_AT_type        : <0x159e>
 <1><15b0>: Abbrev Number: 16 (DW_TAG_structure_type)
    <15b1>   DW_AT_byte_size   : 28
    <15b2>   DW_AT_decl_file   : 6
    <15b3>   DW_AT_decl_line   : 6
    <15b4>   DW_AT_decl_column : 16
    <15b5>   DW_AT_linkage_name: (indirect string, offset: 0x6bc): 6apo_fs
    <15b9>   DW_AT_sibling     : <0x1619>
 <2><15bd>: Abbrev Number: 11 (DW_TAG_member)
    <15be>   DW_AT_name        : (indirect string, offset: 0x491): device
    <15c2>   DW_AT_decl_file   : 6
    <15c3>   DW_AT_decl_line   : 7
    <15c4>   DW_AT_decl_column : 12
    <15c5>   DW_AT_type        : <0x15aa>
    <15c9>   DW_AT_data_member_location: 0
 <2><15ca>: Abbrev Number: 11 (DW_TAG_member)
    <15cb>   DW_AT_name        : (indirect string, offset: 0x6cc): bitmap_base
    <15cf>   DW_AT_decl_file   : 6
    <15d0>   DW_AT_decl_line   : 9
    <15d1>   DW_AT_decl_column : 9
    <15d2>   DW_AT_type        : <0x130e>
    <15d6>   DW_AT_data_member_location: 4
 <2><15d7>: Abbrev Number: 11 (DW_TAG_member)
    <15d8>   DW_AT_name        : (indirect string, offset: 0x54e): table_base
    <15dc>   DW_AT_decl_file   : 6
    <15dd>   DW_AT_decl_line   : 10
    <15de>   DW_AT_decl_column : 9
    <15df>   DW_AT_type        : <0x130e>
    <15e3>   DW_AT_data_member_location: 8
 <2><15e4>: Abbrev Number: 11 (DW_TAG_member)
    <15e5>   DW_AT_name        : (indirect string, offset: 0x50b): file_base
    <15e9>   DW_AT_decl_file   : 6
    <15ea>   DW_AT_decl_line   : 11
    <15eb>   DW_AT_decl_column : 9
    <15ec>   DW_AT_type        : <0x130e>
    <15f0>   DW_AT_data_member_location: 12
 <2><15f1>: Abbrev Number: 11 (DW_TAG_member)
    <15f2>   DW_AT_name        : (indirect string, offset: 0x477): desc_size
    <15f6>   DW_AT_decl_file   : 6
    <15f7>   DW_AT_decl_line   : 12
    <15f8>   DW_AT_decl_column : 9
    <15f9>   DW_AT_type        : <0x12fb>
    <15fd>   DW_AT_data_member_location: 16
 <2><15fe>: Abbrev Number: 11 (DW_TAG_member)
    <15ff>   DW_AT_name        : (indirect string, offset: 0x263): bitmap
    <1603>   DW_AT_decl_file   : 6
    <1604>   DW_AT_decl_line   : 14
    <1605>   DW_AT_decl_column : 9
    <1606>   DW_AT_type        : <0x1619>
    <160a>   DW_AT_data_member_location: 20
 <2><160b>: Abbrev Number: 11 (DW_TAG_member)
    <160c>   DW_AT_name        : (indirect string, offset: 0x4da): bitmap_size
    <1610>   DW_AT_decl_file   : 6
    <1611>   DW_AT_decl_line   : 15
    <1612>   DW_AT_decl_column : 9
    <1613>   DW_AT_type        : <0x130e>
    <1617>   DW_AT_data_member_location: 24
 <2><1618>: Abbrev Number: 0
 <1><1619>: Abbrev Number: 15 (DW_TAG_pointer_type)
    <161a>   DW_AT_byte_size   : 4
    <161b>   DW_AT_type        : <0x12e9>
 <1><161f>: Abbrev Number: 9 (DW_TAG_typedef)
    <1620>   DW_AT_name        : (indirect string, offset: 0x6bd): apo_fs
    <1624>   DW_AT_decl_file   : 6
    <1625>   DW_AT_decl_line   : 16
    <1626>   DW_AT_decl_column : 3
    <1627>   DW_AT_type        : <0x15b0>
 <1><162b>: Abbrev Number: 14 (DW_TAG_variable)
    <162c>   DW_AT_name        : (indirect string, offset: 0x541): current_root
    <1630>   DW_AT_decl_file   : 6
    <1631>   DW_AT_decl_line   : 26
    <1632>   DW_AT_decl_column : 16
    <1633>   DW_AT_type        : <0x1637>
    <1637>   DW_AT_external    : 1
    <1637>   DW_AT_declaration : 1
 <1><1637>: Abbrev Number: 15 (DW_TAG_pointer_type)
    <1638>   DW_AT_byte_size   : 4
    <1639>   DW_AT_type        : <0x161f>
 <1><163d>: Abbrev Number: 16 (DW_TAG_structure_type)
    <163e>   DW_AT_byte_size   : 12
    <163f>   DW_AT_decl_file   : 7
    <1640>   DW_AT_decl_line   : 16
    <1641>   DW_AT_decl_column : 16
    <1642>   DW_AT_linkage_name: (indirect string, offset: 0x684): 6PARRAY
    <1646>   DW_AT_sibling     : <0x1672>
 <2><164a>: Abbrev Number: 11 (DW_TAG_member)
    <164b>   DW_AT_name        : (indirect string, offset: 0x2f7): buffer
    <164f>   DW_AT_decl_file   : 7
    <1650>   DW_AT_decl_line   : 17
    <1651>   DW_AT_decl_column : 12
    <1652>   DW_AT_type        : <0x1672>
    <1656>   DW_AT_data_member_location: 0
 <2><1657>: Abbrev Number: 11 (DW_TAG_member)
    <1658>   DW_AT_name        : (indirect string, offset: 0x699): count
    <165c>   DW_AT_decl_file   : 7
    <165d>   DW_AT_decl_line   : 19
    <165e>   DW_AT_decl_column : 12
    <165f>   DW_AT_type        : <0x130e>
    <1663>   DW_AT_data_member_location: 4
 <2><1664>: Abbrev Number: 11 (DW_TAG_member)
    <1665>   DW_AT_name        : (indirect string, offset: 0x47c): size
    <1669>   DW_AT_decl_file   : 7
    <166a>   DW_AT_decl_line   : 20
    <166b>   DW_AT_decl_column : 12
    <166c>   DW_AT_type        : <0x130e>
    <1670>   DW_AT_data_member_location: 8
 <2><1671>: Abbrev Number: 0
 <1><1672>: Abbrev Number: 15 (DW_TAG_pointer_type)
    <1673>   DW_AT_byte_size   : 4
    <1674>   DW_AT_type        : <0x1678>
 <1><1678>: Abbrev Number: 20 (DW_TAG_pointer_type)
    <1679>   DW_AT_byte_size   : 4
 <1><167a>: Abbrev Number: 9 (DW_TAG_typedef)
    <167b>   DW_AT_name        : (indirect string, offset: 0x685): PARRAY
    <167f>   DW_AT_decl_file   : 7
    <1680>   DW_AT_decl_line   : 21
    <1681>   DW_AT_decl_column : 3
    <1682>   DW_AT_type        : <0x163d>
 <1><1686>: Abbrev Number: 16 (DW_TAG_structure_type)
    <1687>   DW_AT_byte_size   : 16
    <1688>   DW_AT_decl_file   : 7
    <1689>   DW_AT_decl_line   : 23
    <168a>   DW_AT_decl_column : 16
    <168b>   DW_AT_linkage_name: (indirect string, offset: 0x4b8): 5ARRAY
    <168f>   DW_AT_sibling     : <0x16c8>
 <2><1693>: Abbrev Number: 11 (DW_TAG_member)
    <1694>   DW_AT_name        : (indirect string, offset: 0x2f7): buffer
    <1698>   DW_AT_decl_file   : 7
    <1699>   DW_AT_decl_line   : 24
    <169a>   DW_AT_decl_column : 12
    <169b>   DW_AT_type        : <0x1672>
    <169f>   DW_AT_data_member_location: 0
 <2><16a0>: Abbrev Number: 11 (DW_TAG_member)
    <16a1>   DW_AT_name        : (indirect string, offset: 0x699): count
    <16a5>   DW_AT_decl_file   : 7
    <16a6>   DW_AT_decl_line   : 26
    <16a7>   DW_AT_decl_column : 12
    <16a8>   DW_AT_type        : <0x130e>
    <16ac>   DW_AT_data_member_location: 4
 <2><16ad>: Abbrev Number: 11 (DW_TAG_member)
    <16ae>   DW_AT_name        : (indirect string, offset: 0x47c): size
    <16b2>   DW_AT_decl_file   : 7
    <16b3>   DW_AT_decl_line   : 27
    <16b4>   DW_AT_decl_column : 12
    <16b5>   DW_AT_type        : <0x130e>
    <16b9>   DW_AT_data_member_location: 8
 <2><16ba>: Abbrev Number: 11 (DW_TAG_member)
    <16bb>   DW_AT_name        : (indirect string, offset: 0x481): capacity
    <16bf>   DW_AT_decl_file   : 7
    <16c0>   DW_AT_decl_line   : 28
    <16c1>   DW_AT_decl_column : 12
    <16c2>   DW_AT_type        : <0x130e>
    <16c6>   DW_AT_data_member_location: 12
 <2><16c7>: Abbrev Number: 0
 <1><16c8>: Abbrev Number: 9 (DW_TAG_typedef)
    <16c9>   DW_AT_name        : (indirect string, offset: 0x4b9): ARRAY
    <16cd>   DW_AT_decl_file   : 7
    <16ce>   DW_AT_decl_line   : 29
    <16cf>   DW_AT_decl_column : 3
    <16d0>   DW_AT_type        : <0x1686>
 <1><16d4>: Abbrev Number: 21 (DW_TAG_structure_type)
    <16d5>   DW_AT_name        : fd
    <16d8>   DW_AT_byte_size   : 24
    <16d9>   DW_AT_decl_file   : 8
    <16da>   DW_AT_decl_line   : 19
    <16db>   DW_AT_decl_column : 16
    <16dc>   DW_AT_sibling     : <0x172f>
 <2><16e0>: Abbrev Number: 11 (DW_TAG_member)
    <16e1>   DW_AT_name        : (indirect string, offset: 0x437): magic
    <16e5>   DW_AT_decl_file   : 8
    <16e6>   DW_AT_decl_line   : 20
    <16e7>   DW_AT_decl_column : 9
    <16e8>   DW_AT_type        : <0x130e>
    <16ec>   DW_AT_data_member_location: 0
 <2><16ed>: Abbrev Number: 11 (DW_TAG_member)
    <16ee>   DW_AT_name        : (indirect string, offset: 0x984): type
    <16f2>   DW_AT_decl_file   : 8
    <16f3>   DW_AT_decl_line   : 21
    <16f4>   DW_AT_decl_column : 8
    <16f5>   DW_AT_type        : <0x12e9>
    <16f9>   DW_AT_data_member_location: 4
 <2><16fa>: Abbrev Number: 11 (DW_TAG_member)
    <16fb>   DW_AT_name        : (indirect string, offset: 0x2f7): buffer
    <16ff>   DW_AT_decl_file   : 8
    <1700>   DW_AT_decl_line   : 23
    <1701>   DW_AT_decl_column : 11
    <1702>   DW_AT_type        : <0x1598>
    <1706>   DW_AT_data_member_location: 8
 <2><1707>: Abbrev Number: 11 (DW_TAG_member)
    <1708>   DW_AT_name        : (indirect string, offset: 0x212): buffer_size
    <170c>   DW_AT_decl_file   : 8
    <170d>   DW_AT_decl_line   : 24
    <170e>   DW_AT_decl_column : 11
    <170f>   DW_AT_type        : <0x130e>
    <1713>   DW_AT_data_member_location: 12
 <2><1714>: Abbrev Number: 11 (DW_TAG_member)
    <1715>   DW_AT_name        : (indirect string, offset: 0x3c): pipe
    <1719>   DW_AT_decl_file   : 8
    <171a>   DW_AT_decl_line   : 26
    <171b>   DW_AT_decl_column : 16
    <171c>   DW_AT_type        : <0x172f>
    <1720>   DW_AT_data_member_location: 16
 <2><1721>: Abbrev Number: 11 (DW_TAG_member)
    <1722>   DW_AT_name        : (indirect string, offset: 0x1f4): cursor
    <1726>   DW_AT_decl_file   : 8
    <1727>   DW_AT_decl_line   : 28
    <1728>   DW_AT_decl_column : 8
    <1729>   DW_AT_type        : <0x12e9>
    <172d>   DW_AT_data_member_location: 20
 <2><172e>: Abbrev Number: 0
 <1><172f>: Abbrev Number: 15 (DW_TAG_pointer_type)
    <1730>   DW_AT_byte_size   : 4
    <1731>   DW_AT_type        : <0x16d4>
 <1><1735>: Abbrev Number: 5 (DW_TAG_typedef)
    <1736>   DW_AT_name        : fd
    <1739>   DW_AT_decl_file   : 8
    <173a>   DW_AT_decl_line   : 29
    <173b>   DW_AT_decl_column : 3
    <173c>   DW_AT_type        : <0x16d4>
 <1><1740>: Abbrev Number: 14 (DW_TAG_variable)
    <1741>   DW_AT_name        : (indirect string, offset: 0x63): void_stream
    <1745>   DW_AT_decl_file   : 8
    <1746>   DW_AT_decl_line   : 31
    <1747>   DW_AT_decl_column : 12
    <1748>   DW_AT_type        : <0x174c>
    <174c>   DW_AT_external    : 1
    <174c>   DW_AT_declaration : 1
 <1><174c>: Abbrev Number: 15 (DW_TAG_pointer_type)
    <174d>   DW_AT_byte_size   : 4
    <174e>   DW_AT_type        : <0x1735>
 <1><1752>: Abbrev Number: 6 (DW_TAG_structure_type)
    <1753>   DW_AT_name        : (indirect string, offset: 0x6b0): task
    <1757>   DW_AT_byte_size   : 80
    <1758>   DW_AT_decl_file   : 9
    <1759>   DW_AT_decl_line   : 18
    <175a>   DW_AT_decl_column : 16
    <175b>   DW_AT_sibling     : <0x1823>
 <2><175f>: Abbrev Number: 17 (DW_TAG_member)
    <1760>   DW_AT_name        : pid
    <1764>   DW_AT_decl_file   : 9
    <1765>   DW_AT_decl_line   : 19
    <1766>   DW_AT_decl_column : 12
    <1767>   DW_AT_type        : <0x130e>
    <176b>   DW_AT_data_member_location: 0
 <2><176c>: Abbrev Number: 17 (DW_TAG_member)
    <176d>   DW_AT_name        : mem
    <1771>   DW_AT_decl_file   : 9
    <1772>   DW_AT_decl_line   : 20
    <1773>   DW_AT_decl_column : 12
    <1774>   DW_AT_type        : <0x1445>
    <1778>   DW_AT_data_member_location: 4
 <2><1779>: Abbrev Number: 11 (DW_TAG_member)
    <177a>   DW_AT_name        : (indirect string, offset: 0x6dd): regs
    <177e>   DW_AT_decl_file   : 9
    <177f>   DW_AT_decl_line   : 22
    <1780>   DW_AT_decl_column : 15
    <1781>   DW_AT_type        : <0x1532>
    <1785>   DW_AT_data_member_location: 8
 <2><1786>: Abbrev Number: 11 (DW_TAG_member)
    <1787>   DW_AT_name        : (indirect string, offset: 0x4cd): running
    <178b>   DW_AT_decl_file   : 9
    <178c>   DW_AT_decl_line   : 24
    <178d>   DW_AT_decl_column : 12
    <178e>   DW_AT_type        : <0x12e9>
    <1792>   DW_AT_data_member_location: 12
 <2><1793>: Abbrev Number: 11 (DW_TAG_member)
    <1794>   DW_AT_name        : (indirect string, offset: 0x6b5): blocks
    <1798>   DW_AT_decl_file   : 9
    <1799>   DW_AT_decl_line   : 26
    <179a>   DW_AT_decl_column : 12
    <179b>   DW_AT_type        : <0x16c8>
    <179f>   DW_AT_data_member_location: 16
 <2><17a0>: Abbrev Number: 11 (DW_TAG_member)
    <17a1>   DW_AT_name        : (indirect string, offset: 0x5d): entry
    <17a5>   DW_AT_decl_file   : 9
    <17a6>   DW_AT_decl_line   : 28
    <17a7>   DW_AT_decl_column : 12
    <17a8>   DW_AT_type        : <0x130e>
    <17ac>   DW_AT_data_member_location: 32
 <2><17ad>: Abbrev Number: 11 (DW_TAG_member)
    <17ae>   DW_AT_name        : (indirect string, offset: 0x51d): stack
    <17b2>   DW_AT_decl_file   : 9
    <17b3>   DW_AT_decl_line   : 29
    <17b4>   DW_AT_decl_column : 12
    <17b5>   DW_AT_type        : <0x130e>
    <17b9>   DW_AT_data_member_location: 36
 <2><17ba>: Abbrev Number: 11 (DW_TAG_member)
    <17bb>   DW_AT_name        : (indirect string, offset: 0x4d5): heap
    <17bf>   DW_AT_decl_file   : 9
    <17c0>   DW_AT_decl_line   : 30
    <17c1>   DW_AT_decl_column : 12
    <17c2>   DW_AT_type        : <0x130e>
    <17c6>   DW_AT_data_member_location: 40
 <2><17c7>: Abbrev Number: 11 (DW_TAG_member)
    <17c8>   DW_AT_name        : (indirect string, offset: 0x452): heap_limit
    <17cc>   DW_AT_decl_file   : 9
    <17cd>   DW_AT_decl_line   : 32
    <17ce>   DW_AT_decl_column : 12
    <17cf>   DW_AT_type        : <0x130e>
    <17d3>   DW_AT_data_member_location: 44
 <2><17d4>: Abbrev Number: 17 (DW_TAG_member)
    <17d5>   DW_AT_name        : esp
    <17d9>   DW_AT_decl_file   : 9
    <17da>   DW_AT_decl_line   : 34
    <17db>   DW_AT_decl_column : 12
    <17dc>   DW_AT_type        : <0x130e>
    <17e0>   DW_AT_data_member_location: 48
 <2><17e1>: Abbrev Number: 17 (DW_TAG_member)
    <17e2>   DW_AT_name        : ebp
    <17e6>   DW_AT_decl_file   : 9
    <17e7>   DW_AT_decl_line   : 35
    <17e8>   DW_AT_decl_column : 12
    <17e9>   DW_AT_type        : <0x130e>
    <17ed>   DW_AT_data_member_location: 52
 <2><17ee>: Abbrev Number: 17 (DW_TAG_member)
    <17ef>   DW_AT_name        : fds
    <17f3>   DW_AT_decl_file   : 9
    <17f4>   DW_AT_decl_line   : 37
    <17f5>   DW_AT_decl_column : 12
    <17f6>   DW_AT_type        : <0x167a>
    <17fa>   DW_AT_data_member_location: 56
 <2><17fb>: Abbrev Number: 11 (DW_TAG_member)
    <17fc>   DW_AT_name        : (indirect string, offset: 0x505): stdin
    <1800>   DW_AT_decl_file   : 9
    <1801>   DW_AT_decl_line   : 39
    <1802>   DW_AT_decl_column : 12
    <1803>   DW_AT_type        : <0x174c>
    <1807>   DW_AT_data_member_location: 68
 <2><1808>: Abbrev Number: 11 (DW_TAG_member)
    <1809>   DW_AT_name        : (indirect string, offset: 0x6f0): stdout
    <180d>   DW_AT_decl_file   : 9
    <180e>   DW_AT_decl_line   : 40
    <180f>   DW_AT_decl_column : 12
    <1810>   DW_AT_type        : <0x174c>
    <1814>   DW_AT_data_member_location: 72
 <2><1815>: Abbrev Number: 11 (DW_TAG_member)
    <1816>   DW_AT_name        : (indirect string, offset: 0x4fe): stderr
    <181a>   DW_AT_decl_file   : 9
    <181b>   DW_AT_decl_line   : 41
    <181c>   DW_AT_decl_column : 12
    <181d>   DW_AT_type        : <0x174c>
    <1821>   DW_AT_data_member_location: 76
 <2><1822>: Abbrev Number: 0
 <1><1823>: Abbrev Number: 9 (DW_TAG_typedef)
    <1824>   DW_AT_name        : (indirect string, offset: 0x6b0): task
    <1828>   DW_AT_decl_file   : 9
    <1829>   DW_AT_decl_line   : 42
    <182a>   DW_AT_decl_column : 3
    <182b>   DW_AT_type        : <0x1752>
 <1><182f>: Abbrev Number: 14 (DW_TAG_variable)
    <1830>   DW_AT_name        : (indirect string, offset: 0x580): task_previous_esp
    <1834>   DW_AT_decl_file   : 9
    <1835>   DW_AT_decl_line   : 44
    <1836>   DW_AT_decl_column : 12
    <1837>   DW_AT_type        : <0x130e>
    <183b>   DW_AT_external    : 1
    <183b>   DW_AT_declaration : 1
 <1><183b>: Abbrev Number: 14 (DW_TAG_variable)
    <183c>   DW_AT_name        : (indirect string, offset: 0x45d): task_previous_ebp
    <1840>   DW_AT_decl_file   : 9
    <1841>   DW_AT_decl_line   : 45
    <1842>   DW_AT_decl_column : 12
    <1843>   DW_AT_type        : <0x130e>
    <1847>   DW_AT_external    : 1
    <1847>   DW_AT_declaration : 1
 <1><1847>: Abbrev Number: 14 (DW_TAG_variable)
    <1848>   DW_AT_name        : (indirect string, offset: 0x4bf): task_next_esp
    <184c>   DW_AT_decl_file   : 9
    <184d>   DW_AT_decl_line   : 47
    <184e>   DW_AT_decl_column : 12
    <184f>   DW_AT_type        : <0x130e>
    <1853>   DW_AT_external    : 1
    <1853>   DW_AT_declaration : 1
 <1><1853>: Abbrev Number: 14 (DW_TAG_variable)
    <1854>   DW_AT_name        : (indirect string, offset: 0x5b9): task_next_ebp
    <1858>   DW_AT_decl_file   : 9
    <1859>   DW_AT_decl_line   : 48
    <185a>   DW_AT_decl_column : 12
    <185b>   DW_AT_type        : <0x130e>
    <185f>   DW_AT_external    : 1
    <185f>   DW_AT_declaration : 1
 <1><185f>: Abbrev Number: 14 (DW_TAG_variable)
    <1860>   DW_AT_name        : (indirect string, offset: 0x83): cursor_y
    <1864>   DW_AT_decl_file   : 10
    <1865>   DW_AT_decl_line   : 29
    <1866>   DW_AT_decl_column : 11
    <1867>   DW_AT_type        : <0x12e9>
    <186b>   DW_AT_external    : 1
    <186b>   DW_AT_declaration : 1
 <1><186b>: Abbrev Number: 15 (DW_TAG_pointer_type)
    <186c>   DW_AT_byte_size   : 4
    <186d>   DW_AT_type        : <0x12cf>
 <1><1871>: Abbrev Number: 22 (DW_TAG_variable)
    <1872>   DW_AT_name        : (indirect string, offset: 0x898): task_last_id
    <1876>   DW_AT_decl_file   : 1
    <1877>   DW_AT_decl_line   : 13
    <1878>   DW_AT_decl_column : 5
    <1879>   DW_AT_type        : <0x130e>
    <187d>   DW_AT_external    : 1
    <187d>   DW_AT_location    : 5 byte block: 3 90 f1 10 0 	(DW_OP_addr: 10f190)
 <1><1883>: Abbrev Number: 23 (DW_TAG_variable)
    <1884>   DW_AT_specification: <0x182f>
    <1888>   DW_AT_decl_file   : 1
    <1889>   DW_AT_decl_line   : 15
    <188a>   DW_AT_decl_column : 5
    <188b>   DW_AT_location    : 5 byte block: 3 ec ff 12 0 	(DW_OP_addr: 12ffec)
 <1><1891>: Abbrev Number: 23 (DW_TAG_variable)
    <1892>   DW_AT_specification: <0x183b>
    <1896>   DW_AT_decl_file   : 1
    <1897>   DW_AT_decl_line   : 16
    <1898>   DW_AT_decl_column : 5
    <1899>   DW_AT_location    : 5 byte block: 3 f0 ff 12 0 	(DW_OP_addr: 12fff0)
 <1><189f>: Abbrev Number: 23 (DW_TAG_variable)
    <18a0>   DW_AT_specification: <0x1847>
    <18a4>   DW_AT_decl_file   : 1
    <18a5>   DW_AT_decl_line   : 18
    <18a6>   DW_AT_decl_column : 5
    <18a7>   DW_AT_location    : 5 byte block: 3 f4 ff 12 0 	(DW_OP_addr: 12fff4)
 <1><18ad>: Abbrev Number: 23 (DW_TAG_variable)
    <18ae>   DW_AT_specification: <0x1853>
    <18b2>   DW_AT_decl_file   : 1
    <18b3>   DW_AT_decl_line   : 19
    <18b4>   DW_AT_decl_column : 5
    <18b5>   DW_AT_location    : 5 byte block: 3 f8 ff 12 0 	(DW_OP_addr: 12fff8)
 <1><18bb>: Abbrev Number: 22 (DW_TAG_variable)
    <18bc>   DW_AT_name        : (indirect string, offset: 0x816): task_current
    <18c0>   DW_AT_decl_file   : 1
    <18c1>   DW_AT_decl_line   : 21
    <18c2>   DW_AT_decl_column : 8
    <18c3>   DW_AT_type        : <0x18cd>
    <18c7>   DW_AT_external    : 1
    <18c7>   DW_AT_location    : 5 byte block: 3 fc ff 12 0 	(DW_OP_addr: 12fffc)
 <1><18cd>: Abbrev Number: 15 (DW_TAG_pointer_type)
    <18ce>   DW_AT_byte_size   : 4
    <18cf>   DW_AT_type        : <0x1823>
 <1><18d3>: Abbrev Number: 22 (DW_TAG_variable)
    <18d4>   DW_AT_name        : (indirect string, offset: 0x777): tasklist
    <18d8>   DW_AT_decl_file   : 1
    <18d9>   DW_AT_decl_line   : 23
    <18da>   DW_AT_decl_column : 8
    <18db>   DW_AT_type        : <0x167a>
    <18df>   DW_AT_external    : 1
    <18df>   DW_AT_location    : 5 byte block: 3 0 0 13 0 	(DW_OP_addr: 130000)
 <1><18e5>: Abbrev Number: 22 (DW_TAG_variable)
    <18e6>   DW_AT_name        : (indirect string, offset: 0x886): task_list_current
    <18ea>   DW_AT_decl_file   : 1
    <18eb>   DW_AT_decl_line   : 25
    <18ec>   DW_AT_decl_column : 8
    <18ed>   DW_AT_type        : <0x130e>
    <18f1>   DW_AT_external    : 1
    <18f1>   DW_AT_location    : 5 byte block: 3 c 0 13 0 	(DW_OP_addr: 13000c)
 <1><18f7>: Abbrev Number: 16 (DW_TAG_structure_type)
    <18f8>   DW_AT_byte_size   : 8
    <18f9>   DW_AT_decl_file   : 1
    <18fa>   DW_AT_decl_line   : 32
    <18fb>   DW_AT_decl_column : 16
    <18fc>   DW_AT_linkage_name: (indirect string, offset: 0x83c): 15task_heap_block
    <1900>   DW_AT_sibling     : <0x191f>
 <2><1904>: Abbrev Number: 11 (DW_TAG_member)
    <1905>   DW_AT_name        : (indirect string, offset: 0x554): base
    <1909>   DW_AT_decl_file   : 1
    <190a>   DW_AT_decl_line   : 33
    <190b>   DW_AT_decl_column : 9
    <190c>   DW_AT_type        : <0x130e>
    <1910>   DW_AT_data_member_location: 0
 <2><1911>: Abbrev Number: 11 (DW_TAG_member)
    <1912>   DW_AT_name        : (indirect string, offset: 0x457): limit
    <1916>   DW_AT_decl_file   : 1
    <1917>   DW_AT_decl_line   : 34
    <1918>   DW_AT_decl_column : 9
    <1919>   DW_AT_type        : <0x130e>
    <191d>   DW_AT_data_member_location: 4
 <2><191e>: Abbrev Number: 0
 <1><191f>: Abbrev Number: 9 (DW_TAG_typedef)
    <1920>   DW_AT_name        : (indirect string, offset: 0x83e): task_heap_block
    <1924>   DW_AT_decl_file   : 1
    <1925>   DW_AT_decl_line   : 35
    <1926>   DW_AT_decl_column : 3
    <1927>   DW_AT_type        : <0x18f7>
 <1><192b>: Abbrev Number: 24 (DW_TAG_subprogram)
    <192c>   DW_AT_external    : 1
    <192c>   DW_AT_name        : (indirect string, offset: 0x8a5): task_exception
    <1930>   DW_AT_decl_file   : 1
    <1931>   DW_AT_decl_line   : 373
    <1933>   DW_AT_decl_column : 6
    <1934>   DW_AT_low_pc      : 0x10e2f4
    <1938>   DW_AT_high_pc     : 0x2c
    <193c>   DW_AT_frame_base  : 1 byte block: 9c 	(DW_OP_call_frame_cfa)
    <193e>   DW_AT_GNU_all_tail_call_sites: 1
    <193e>   DW_AT_sibling     : <0x1963>
 <2><1942>: Abbrev Number: 25 (DW_TAG_formal_parameter)
    <1943>   DW_AT_name        : (indirect string, offset: 0x984): type
    <1947>   DW_AT_decl_file   : 1
    <1948>   DW_AT_decl_line   : 373
    <194a>   DW_AT_decl_column : 25
    <194b>   DW_AT_type        : <0x12db>
    <194f>   DW_AT_location    : 2 byte block: 91 0 	(DW_OP_fbreg: 0)
 <2><1952>: Abbrev Number: 25 (DW_TAG_formal_parameter)
    <1953>   DW_AT_name        : (indirect string, offset: 0x5b0): err_code
    <1957>   DW_AT_decl_file   : 1
    <1958>   DW_AT_decl_line   : 373
    <195a>   DW_AT_decl_column : 35
    <195b>   DW_AT_type        : <0x12db>
    <195f>   DW_AT_location    : 2 byte block: 91 4 	(DW_OP_fbreg: 4)
 <2><1962>: Abbrev Number: 0
 <1><1963>: Abbrev Number: 24 (DW_TAG_subprogram)
    <1964>   DW_AT_external    : 1
    <1964>   DW_AT_name        : (indirect string, offset: 0x7fc): task_free
    <1968>   DW_AT_decl_file   : 1
    <1969>   DW_AT_decl_line   : 368
    <196b>   DW_AT_decl_column : 6
    <196c>   DW_AT_low_pc      : 0x10e2d3
    <1970>   DW_AT_high_pc     : 0x21
    <1974>   DW_AT_frame_base  : 1 byte block: 9c 	(DW_OP_call_frame_cfa)
    <1976>   DW_AT_GNU_all_tail_call_sites: 1
    <1976>   DW_AT_sibling     : <0x198b>
 <2><197a>: Abbrev Number: 25 (DW_TAG_formal_parameter)
    <197b>   DW_AT_name        : (indirect string, offset: 0x848): block
    <197f>   DW_AT_decl_file   : 1
    <1980>   DW_AT_decl_line   : 368
    <1982>   DW_AT_decl_column : 22
    <1983>   DW_AT_type        : <0x1678>
    <1987>   DW_AT_location    : 2 byte block: 91 0 	(DW_OP_fbreg: 0)
 <2><198a>: Abbrev Number: 0
 <1><198b>: Abbrev Number: 26 (DW_TAG_subprogram)
    <198c>   DW_AT_external    : 1
    <198c>   DW_AT_name        : (indirect string, offset: 0x7cb): task_malloc
    <1990>   DW_AT_decl_file   : 1
    <1991>   DW_AT_decl_line   : 340
    <1993>   DW_AT_decl_column : 7
    <1994>   DW_AT_type        : <0x1678>
    <1998>   DW_AT_low_pc      : 0x10e19e
    <199c>   DW_AT_high_pc     : 0x135
    <19a0>   DW_AT_frame_base  : 1 byte block: 9c 	(DW_OP_call_frame_cfa)
    <19a2>   DW_AT_GNU_all_tail_call_sites: 1
    <19a2>   DW_AT_sibling     : <0x1a15>
 <2><19a6>: Abbrev Number: 25 (DW_TAG_formal_parameter)
    <19a7>   DW_AT_name        : (indirect string, offset: 0x47c): size
    <19ab>   DW_AT_decl_file   : 1
    <19ac>   DW_AT_decl_line   : 340
    <19ae>   DW_AT_decl_column : 23
    <19af>   DW_AT_type        : <0x130e>
    <19b3>   DW_AT_location    : 2 byte block: 91 0 	(DW_OP_fbreg: 0)
 <2><19b6>: Abbrev Number: 27 (DW_TAG_variable)
    <19b7>   DW_AT_name        : (indirect string, offset: 0x757): last_limit
    <19bb>   DW_AT_decl_file   : 1
    <19bc>   DW_AT_decl_line   : 341
    <19be>   DW_AT_decl_column : 9
    <19bf>   DW_AT_type        : <0x130e>
    <19c3>   DW_AT_location    : 2 byte block: 91 6c 	(DW_OP_fbreg: -20)
 <2><19c6>: Abbrev Number: 28 (DW_TAG_lexical_block)
    <19c7>   DW_AT_low_pc      : 0x10e1b3
    <19cb>   DW_AT_high_pc     : 0x73
    <19cf>   DW_AT_sibling     : <0x19fa>
 <3><19d3>: Abbrev Number: 29 (DW_TAG_variable)
    <19d4>   DW_AT_name        : i
    <19d6>   DW_AT_decl_file   : 1
    <19d7>   DW_AT_decl_line   : 343
    <19d9>   DW_AT_decl_column : 14
    <19da>   DW_AT_type        : <0x12db>
    <19de>   DW_AT_location    : 2 byte block: 91 68 	(DW_OP_fbreg: -24)
 <3><19e1>: Abbrev Number: 30 (DW_TAG_lexical_block)
    <19e2>   DW_AT_low_pc      : 0x10e1c9
    <19e6>   DW_AT_high_pc     : 0x57
 <4><19ea>: Abbrev Number: 29 (DW_TAG_variable)
    <19eb>   DW_AT_name        : e
    <19ed>   DW_AT_decl_file   : 1
    <19ee>   DW_AT_decl_line   : 344
    <19f0>   DW_AT_decl_column : 26
    <19f1>   DW_AT_type        : <0x1a15>
    <19f5>   DW_AT_location    : 2 byte block: 91 64 	(DW_OP_fbreg: -28)
 <4><19f8>: Abbrev Number: 0
 <3><19f9>: Abbrev Number: 0
 <2><19fa>: Abbrev Number: 30 (DW_TAG_lexical_block)
    <19fb>   DW_AT_low_pc      : 0x10e262
    <19ff>   DW_AT_high_pc     : 0x6f
 <3><1a03>: Abbrev Number: 27 (DW_TAG_variable)
    <1a04>   DW_AT_name        : (indirect string, offset: 0x854): excess
    <1a08>   DW_AT_decl_file   : 1
    <1a09>   DW_AT_decl_line   : 358
    <1a0b>   DW_AT_decl_column : 13
    <1a0c>   DW_AT_type        : <0x130e>
    <1a10>   DW_AT_location    : 2 byte block: 91 60 	(DW_OP_fbreg: -32)
 <3><1a13>: Abbrev Number: 0
 <2><1a14>: Abbrev Number: 0
 <1><1a15>: Abbrev Number: 15 (DW_TAG_pointer_type)
    <1a16>   DW_AT_byte_size   : 4
    <1a17>   DW_AT_type        : <0x191f>
 <1><1a1b>: Abbrev Number: 26 (DW_TAG_subprogram)
    <1a1c>   DW_AT_external    : 1
    <1a1c>   DW_AT_name        : (indirect string, offset: 0x720): task_realloc
    <1a20>   DW_AT_decl_file   : 1
    <1a21>   DW_AT_decl_line   : 294
    <1a23>   DW_AT_decl_column : 7
    <1a24>   DW_AT_type        : <0x1678>
    <1a28>   DW_AT_low_pc      : 0x10dfe0
    <1a2c>   DW_AT_high_pc     : 0x1be
    <1a30>   DW_AT_frame_base  : 1 byte block: 9c 	(DW_OP_call_frame_cfa)
    <1a32>   DW_AT_GNU_all_tail_call_sites: 1
    <1a32>   DW_AT_sibling     : <0x1af7>
 <2><1a36>: Abbrev Number: 31 (DW_TAG_formal_parameter)
    <1a37>   DW_AT_name        : ptr
    <1a3b>   DW_AT_decl_file   : 1
    <1a3c>   DW_AT_decl_line   : 294
    <1a3e>   DW_AT_decl_column : 26
    <1a3f>   DW_AT_type        : <0x1678>
    <1a43>   DW_AT_location    : 2 byte block: 91 0 	(DW_OP_fbreg: 0)
 <2><1a46>: Abbrev Number: 25 (DW_TAG_formal_parameter)
    <1a47>   DW_AT_name        : (indirect string, offset: 0x47c): size
    <1a4b>   DW_AT_decl_file   : 1
    <1a4c>   DW_AT_decl_line   : 294
    <1a4e>   DW_AT_decl_column : 35
    <1a4f>   DW_AT_type        : <0x130e>
    <1a53>   DW_AT_location    : 2 byte block: 91 4 	(DW_OP_fbreg: 4)
 <2><1a56>: Abbrev Number: 29 (DW_TAG_variable)
    <1a57>   DW_AT_name        : idx
    <1a5b>   DW_AT_decl_file   : 1
    <1a5c>   DW_AT_decl_line   : 295
    <1a5e>   DW_AT_decl_column : 9
    <1a5f>   DW_AT_type        : <0x12db>
    <1a63>   DW_AT_location    : 2 byte block: 91 6c 	(DW_OP_fbreg: -20)
 <2><1a66>: Abbrev Number: 29 (DW_TAG_variable)
    <1a67>   DW_AT_name        : e
    <1a69>   DW_AT_decl_file   : 1
    <1a6a>   DW_AT_decl_line   : 298
    <1a6c>   DW_AT_decl_column : 22
    <1a6d>   DW_AT_type        : <0x1a15>
    <1a71>   DW_AT_location    : 2 byte block: 91 68 	(DW_OP_fbreg: -24)
 <2><1a74>: Abbrev Number: 28 (DW_TAG_lexical_block)
    <1a75>   DW_AT_low_pc      : 0x10e06d
    <1a79>   DW_AT_high_pc     : 0x7f
    <1a7d>   DW_AT_sibling     : <0x1aa2>
 <3><1a81>: Abbrev Number: 27 (DW_TAG_variable)
    <1a82>   DW_AT_name        : (indirect string, offset: 0x854): excess
    <1a86>   DW_AT_decl_file   : 1
    <1a87>   DW_AT_decl_line   : 305
    <1a89>   DW_AT_decl_column : 17
    <1a8a>   DW_AT_type        : <0x130e>
    <1a8e>   DW_AT_location    : 2 byte block: 91 54 	(DW_OP_fbreg: -44)
 <3><1a91>: Abbrev Number: 27 (DW_TAG_variable)
    <1a92>   DW_AT_name        : (indirect string, offset: 0x8be): prevsz
    <1a96>   DW_AT_decl_file   : 1
    <1a97>   DW_AT_decl_line   : 306
    <1a99>   DW_AT_decl_column : 17
    <1a9a>   DW_AT_type        : <0x130e>
    <1a9e>   DW_AT_location    : 2 byte block: 91 50 	(DW_OP_fbreg: -48)
 <3><1aa1>: Abbrev Number: 0
 <2><1aa2>: Abbrev Number: 30 (DW_TAG_lexical_block)
    <1aa3>   DW_AT_low_pc      : 0x10e0ec
    <1aa7>   DW_AT_high_pc     : 0xb0
 <3><1aab>: Abbrev Number: 29 (DW_TAG_variable)
    <1aac>   DW_AT_name        : nxt
    <1ab0>   DW_AT_decl_file   : 1
    <1ab1>   DW_AT_decl_line   : 317
    <1ab3>   DW_AT_decl_column : 26
    <1ab4>   DW_AT_type        : <0x1a15>
    <1ab8>   DW_AT_location    : 2 byte block: 91 64 	(DW_OP_fbreg: -28)
 <3><1abb>: Abbrev Number: 30 (DW_TAG_lexical_block)
    <1abc>   DW_AT_low_pc      : 0x10e129
    <1ac0>   DW_AT_high_pc     : 0x73
 <4><1ac4>: Abbrev Number: 29 (DW_TAG_variable)
    <1ac5>   DW_AT_name        : src
    <1ac9>   DW_AT_decl_file   : 1
    <1aca>   DW_AT_decl_line   : 323
    <1acc>   DW_AT_decl_column : 17
    <1acd>   DW_AT_type        : <0x1619>
    <1ad1>   DW_AT_location    : 2 byte block: 91 60 	(DW_OP_fbreg: -32)
 <4><1ad4>: Abbrev Number: 29 (DW_TAG_variable)
    <1ad5>   DW_AT_name        : len
    <1ad9>   DW_AT_decl_file   : 1
    <1ada>   DW_AT_decl_line   : 324
    <1adc>   DW_AT_decl_column : 17
    <1add>   DW_AT_type        : <0x130e>
    <1ae1>   DW_AT_location    : 2 byte block: 91 5c 	(DW_OP_fbreg: -36)
 <4><1ae4>: Abbrev Number: 29 (DW_TAG_variable)
    <1ae5>   DW_AT_name        : ret
    <1ae9>   DW_AT_decl_file   : 1
    <1aea>   DW_AT_decl_line   : 328
    <1aec>   DW_AT_decl_column : 19
    <1aed>   DW_AT_type        : <0x1678>
    <1af1>   DW_AT_location    : 2 byte block: 91 58 	(DW_OP_fbreg: -40)
 <4><1af4>: Abbrev Number: 0
 <3><1af5>: Abbrev Number: 0
 <2><1af6>: Abbrev Number: 0
 <1><1af7>: Abbrev Number: 24 (DW_TAG_subprogram)
    <1af8>   DW_AT_external    : 1
    <1af8>   DW_AT_name        : (indirect string, offset: 0x6f7): taskmm_collect
    <1afc>   DW_AT_decl_file   : 1
    <1afd>   DW_AT_decl_line   : 279
    <1aff>   DW_AT_decl_column : 6
    <1b00>   DW_AT_low_pc      : 0x10df3a
    <1b04>   DW_AT_high_pc     : 0xa6
    <1b08>   DW_AT_frame_base  : 1 byte block: 9c 	(DW_OP_call_frame_cfa)
    <1b0a>   DW_AT_GNU_all_tail_call_sites: 1
    <1b0a>   DW_AT_sibling     : <0x1b71>
 <2><1b0e>: Abbrev Number: 27 (DW_TAG_variable)
    <1b0f>   DW_AT_name        : (indirect string, offset: 0x87c): max_limit
    <1b13>   DW_AT_decl_file   : 1
    <1b14>   DW_AT_decl_line   : 280
    <1b16>   DW_AT_decl_column : 9
    <1b17>   DW_AT_type        : <0x130e>
    <1b1b>   DW_AT_location    : 2 byte block: 91 6c 	(DW_OP_fbreg: -20)
 <2><1b1e>: Abbrev Number: 27 (DW_TAG_variable)
    <1b1f>   DW_AT_name        : (indirect string, offset: 0x8f9): limit_page
    <1b23>   DW_AT_decl_file   : 1
    <1b24>   DW_AT_decl_line   : 287
    <1b26>   DW_AT_decl_column : 9
    <1b27>   DW_AT_type        : <0x12db>
    <1b2b>   DW_AT_location    : 2 byte block: 91 60 	(DW_OP_fbreg: -32)
 <2><1b2e>: Abbrev Number: 27 (DW_TAG_variable)
    <1b2f>   DW_AT_name        : (indirect string, offset: 0x8f4): heap_limit_page
    <1b33>   DW_AT_decl_file   : 1
    <1b34>   DW_AT_decl_line   : 288
    <1b36>   DW_AT_decl_column : 9
    <1b37>   DW_AT_type        : <0x12db>
    <1b3b>   DW_AT_location    : 2 byte block: 91 5c 	(DW_OP_fbreg: -36)
 <2><1b3e>: Abbrev Number: 30 (DW_TAG_lexical_block)
    <1b3f>   DW_AT_low_pc      : 0x10df4f
    <1b43>   DW_AT_high_pc     : 0x3f
 <3><1b47>: Abbrev Number: 29 (DW_TAG_variable)
    <1b48>   DW_AT_name        : i
    <1b4a>   DW_AT_decl_file   : 1
    <1b4b>   DW_AT_decl_line   : 282
    <1b4d>   DW_AT_decl_column : 14
    <1b4e>   DW_AT_type        : <0x12db>
    <1b52>   DW_AT_location    : 2 byte block: 91 68 	(DW_OP_fbreg: -24)
 <3><1b55>: Abbrev Number: 30 (DW_TAG_lexical_block)
    <1b56>   DW_AT_low_pc      : 0x10df65
    <1b5a>   DW_AT_high_pc     : 0x23
 <4><1b5e>: Abbrev Number: 27 (DW_TAG_variable)
    <1b5f>   DW_AT_name        : (indirect string, offset: 0x848): block
    <1b63>   DW_AT_decl_file   : 1
    <1b64>   DW_AT_decl_line   : 283
    <1b66>   DW_AT_decl_column : 26
    <1b67>   DW_AT_type        : <0x1a15>
    <1b6b>   DW_AT_location    : 2 byte block: 91 64 	(DW_OP_fbreg: -28)
 <4><1b6e>: Abbrev Number: 0
 <3><1b6f>: Abbrev Number: 0
 <2><1b70>: Abbrev Number: 0
 <1><1b71>: Abbrev Number: 26 (DW_TAG_subprogram)
    <1b72>   DW_AT_external    : 1
    <1b72>   DW_AT_name        : (indirect string, offset: 0x7e7): taskmm_freeHeapPages
    <1b76>   DW_AT_decl_file   : 1
    <1b77>   DW_AT_decl_line   : 272
    <1b79>   DW_AT_decl_column : 5
    <1b7a>   DW_AT_type        : <0x12db>
    <1b7e>   DW_AT_low_pc      : 0x10dee5
    <1b82>   DW_AT_high_pc     : 0x55
    <1b86>   DW_AT_frame_base  : 1 byte block: 9c 	(DW_OP_call_frame_cfa)
    <1b88>   DW_AT_GNU_all_tail_call_sites: 1
    <1b88>   DW_AT_sibling     : <0x1bb5>
 <2><1b8c>: Abbrev Number: 25 (DW_TAG_formal_parameter)
    <1b8d>   DW_AT_name        : (indirect string, offset: 0x699): count
    <1b91>   DW_AT_decl_file   : 1
    <1b92>   DW_AT_decl_line   : 272
    <1b94>   DW_AT_decl_column : 30
    <1b95>   DW_AT_type        : <0x130e>
    <1b99>   DW_AT_location    : 2 byte block: 91 0 	(DW_OP_fbreg: 0)
 <2><1b9c>: Abbrev Number: 30 (DW_TAG_lexical_block)
    <1b9d>   DW_AT_low_pc      : 0x10deef
    <1ba1>   DW_AT_high_pc     : 0x48
 <3><1ba5>: Abbrev Number: 29 (DW_TAG_variable)
    <1ba6>   DW_AT_name        : i
    <1ba8>   DW_AT_decl_file   : 1
    <1ba9>   DW_AT_decl_line   : 273
    <1bab>   DW_AT_decl_column : 14
    <1bac>   DW_AT_type        : <0x12db>
    <1bb0>   DW_AT_location    : 2 byte block: 91 6c 	(DW_OP_fbreg: -20)
 <3><1bb3>: Abbrev Number: 0
 <2><1bb4>: Abbrev Number: 0
 <1><1bb5>: Abbrev Number: 26 (DW_TAG_subprogram)
    <1bb6>   DW_AT_external    : 1
    <1bb6>   DW_AT_name        : (indirect string, offset: 0x8c5): taskmm_allocHeapPages
    <1bba>   DW_AT_decl_file   : 1
    <1bbb>   DW_AT_decl_line   : 265
    <1bbd>   DW_AT_decl_column : 5
    <1bbe>   DW_AT_type        : <0x12db>
    <1bc2>   DW_AT_low_pc      : 0x10de8e
    <1bc6>   DW_AT_high_pc     : 0x57
    <1bca>   DW_AT_frame_base  : 1 byte block: 9c 	(DW_OP_call_frame_cfa)
    <1bcc>   DW_AT_GNU_all_tail_call_sites: 1
    <1bcc>   DW_AT_sibling     : <0x1bf9>
 <2><1bd0>: Abbrev Number: 25 (DW_TAG_formal_parameter)
    <1bd1>   DW_AT_name        : (indirect string, offset: 0x699): count
    <1bd5>   DW_AT_decl_file   : 1
    <1bd6>   DW_AT_decl_line   : 265
    <1bd8>   DW_AT_decl_column : 31
    <1bd9>   DW_AT_type        : <0x130e>
    <1bdd>   DW_AT_location    : 2 byte block: 91 0 	(DW_OP_fbreg: 0)
 <2><1be0>: Abbrev Number: 30 (DW_TAG_lexical_block)
    <1be1>   DW_AT_low_pc      : 0x10de98
    <1be5>   DW_AT_high_pc     : 0x4a
 <3><1be9>: Abbrev Number: 29 (DW_TAG_variable)
    <1bea>   DW_AT_name        : i
    <1bec>   DW_AT_decl_file   : 1
    <1bed>   DW_AT_decl_line   : 266
    <1bef>   DW_AT_decl_column : 14
    <1bf0>   DW_AT_type        : <0x12db>
    <1bf4>   DW_AT_location    : 2 byte block: 91 6c 	(DW_OP_fbreg: -20)
 <3><1bf7>: Abbrev Number: 0
 <2><1bf8>: Abbrev Number: 0
 <1><1bf9>: Abbrev Number: 26 (DW_TAG_subprogram)
    <1bfa>   DW_AT_external    : 1
    <1bfa>   DW_AT_name        : (indirect string, offset: 0x7d7): taskmm_getEntry
    <1bfe>   DW_AT_decl_file   : 1
    <1bff>   DW_AT_decl_line   : 258
    <1c01>   DW_AT_decl_column : 18
    <1c02>   DW_AT_type        : <0x1a15>
    <1c06>   DW_AT_low_pc      : 0x10de49
    <1c0a>   DW_AT_high_pc     : 0x45
    <1c0e>   DW_AT_frame_base  : 1 byte block: 9c 	(DW_OP_call_frame_cfa)
    <1c10>   DW_AT_GNU_all_tail_call_sites: 1
    <1c10>   DW_AT_sibling     : <0x1c35>
 <2><1c14>: Abbrev Number: 25 (DW_TAG_formal_parameter)
    <1c15>   DW_AT_name        : (indirect string, offset: 0x554): base
    <1c19>   DW_AT_decl_file   : 1
    <1c1a>   DW_AT_decl_line   : 258
    <1c1c>   DW_AT_decl_column : 38
    <1c1d>   DW_AT_type        : <0x130e>
    <1c21>   DW_AT_location    : 2 byte block: 91 0 	(DW_OP_fbreg: 0)
 <2><1c24>: Abbrev Number: 29 (DW_TAG_variable)
    <1c25>   DW_AT_name        : idx
    <1c29>   DW_AT_decl_file   : 1
    <1c2a>   DW_AT_decl_line   : 259
    <1c2c>   DW_AT_decl_column : 9
    <1c2d>   DW_AT_type        : <0x12db>
    <1c31>   DW_AT_location    : 2 byte block: 91 6c 	(DW_OP_fbreg: -20)
 <2><1c34>: Abbrev Number: 0
 <1><1c35>: Abbrev Number: 32 (DW_TAG_subprogram)
    <1c36>   DW_AT_external    : 1
    <1c36>   DW_AT_name        : (indirect string, offset: 0x780): taskmm_getEntryFromIndex
    <1c3a>   DW_AT_decl_file   : 1
    <1c3b>   DW_AT_decl_line   : 254
    <1c3c>   DW_AT_decl_column : 18
    <1c3d>   DW_AT_type        : <0x1a15>
    <1c41>   DW_AT_low_pc      : 0x10de27
    <1c45>   DW_AT_high_pc     : 0x22
    <1c49>   DW_AT_frame_base  : 1 byte block: 9c 	(DW_OP_call_frame_cfa)
    <1c4b>   DW_AT_GNU_all_call_sites: 1
    <1c4b>   DW_AT_sibling     : <0x1c5f>
 <2><1c4f>: Abbrev Number: 33 (DW_TAG_formal_parameter)
    <1c50>   DW_AT_name        : (indirect string, offset: 0x8ee): index
    <1c54>   DW_AT_decl_file   : 1
    <1c55>   DW_AT_decl_line   : 254
    <1c56>   DW_AT_decl_column : 47
    <1c57>   DW_AT_type        : <0x130e>
    <1c5b>   DW_AT_location    : 2 byte block: 91 0 	(DW_OP_fbreg: 0)
 <2><1c5e>: Abbrev Number: 0
 <1><1c5f>: Abbrev Number: 34 (DW_TAG_subprogram)
    <1c60>   DW_AT_external    : 1
    <1c60>   DW_AT_name        : (indirect string, offset: 0x8db): taskmm_removeEntry
    <1c64>   DW_AT_decl_file   : 1
    <1c65>   DW_AT_decl_line   : 246
    <1c66>   DW_AT_decl_column : 4
    <1c67>   DW_AT_type        : <0x12e9>
    <1c6b>   DW_AT_low_pc      : 0x10dddf
    <1c6f>   DW_AT_high_pc     : 0x48
    <1c73>   DW_AT_frame_base  : 1 byte block: 9c 	(DW_OP_call_frame_cfa)
    <1c75>   DW_AT_GNU_all_tail_call_sites: 1
    <1c75>   DW_AT_sibling     : <0x1c98>
 <2><1c79>: Abbrev Number: 33 (DW_TAG_formal_parameter)
    <1c7a>   DW_AT_name        : (indirect string, offset: 0x554): base
    <1c7e>   DW_AT_decl_file   : 1
    <1c7f>   DW_AT_decl_line   : 246
    <1c80>   DW_AT_decl_column : 27
    <1c81>   DW_AT_type        : <0x130e>
    <1c85>   DW_AT_location    : 2 byte block: 91 0 	(DW_OP_fbreg: 0)
 <2><1c88>: Abbrev Number: 35 (DW_TAG_variable)
    <1c89>   DW_AT_name        : idx
    <1c8d>   DW_AT_decl_file   : 1
    <1c8e>   DW_AT_decl_line   : 247
    <1c8f>   DW_AT_decl_column : 9
    <1c90>   DW_AT_type        : <0x12db>
    <1c94>   DW_AT_location    : 2 byte block: 91 6c 	(DW_OP_fbreg: -20)
 <2><1c97>: Abbrev Number: 0
 <1><1c98>: Abbrev Number: 34 (DW_TAG_subprogram)
    <1c99>   DW_AT_external    : 1
    <1c99>   DW_AT_name        : (indirect string, offset: 0x70b): taskmm_getEntryIndex
    <1c9d>   DW_AT_decl_file   : 1
    <1c9e>   DW_AT_decl_line   : 230
    <1c9f>   DW_AT_decl_column : 5
    <1ca0>   DW_AT_type        : <0x12db>
    <1ca4>   DW_AT_low_pc      : 0x10dd47
    <1ca8>   DW_AT_high_pc     : 0x98
    <1cac>   DW_AT_frame_base  : 1 byte block: 9c 	(DW_OP_call_frame_cfa)
    <1cae>   DW_AT_GNU_all_tail_call_sites: 1
    <1cae>   DW_AT_sibling     : <0x1cde>
 <2><1cb2>: Abbrev Number: 33 (DW_TAG_formal_parameter)
    <1cb3>   DW_AT_name        : (indirect string, offset: 0x554): base
    <1cb7>   DW_AT_decl_file   : 1
    <1cb8>   DW_AT_decl_line   : 230
    <1cb9>   DW_AT_decl_column : 30
    <1cba>   DW_AT_type        : <0x130e>
    <1cbe>   DW_AT_location    : 2 byte block: 91 0 	(DW_OP_fbreg: 0)
 <2><1cc1>: Abbrev Number: 35 (DW_TAG_variable)
    <1cc2>   DW_AT_name        : e
    <1cc4>   DW_AT_decl_file   : 1
    <1cc5>   DW_AT_decl_line   : 231
    <1cc6>   DW_AT_decl_column : 9
    <1cc7>   DW_AT_type        : <0x12db>
    <1ccb>   DW_AT_location    : 2 byte block: 91 6c 	(DW_OP_fbreg: -20)
 <2><1cce>: Abbrev Number: 36 (DW_TAG_variable)
    <1ccf>   DW_AT_name        : (indirect string, offset: 0x848): block
    <1cd3>   DW_AT_decl_file   : 1
    <1cd4>   DW_AT_decl_line   : 233
    <1cd5>   DW_AT_decl_column : 21
    <1cd6>   DW_AT_type        : <0x191f>
    <1cda>   DW_AT_location    : 2 byte block: 91 64 	(DW_OP_fbreg: -28)
 <2><1cdd>: Abbrev Number: 0
 <1><1cde>: Abbrev Number: 34 (DW_TAG_subprogram)
    <1cdf>   DW_AT_external    : 1
    <1cdf>   DW_AT_name        : (indirect string, offset: 0x91f): taskmm_addEntry
    <1ce3>   DW_AT_decl_file   : 1
    <1ce4>   DW_AT_decl_line   : 217
    <1ce5>   DW_AT_decl_column : 4
    <1ce6>   DW_AT_type        : <0x12e9>
    <1cea>   DW_AT_low_pc      : 0x10dcd4
    <1cee>   DW_AT_high_pc     : 0x73
    <1cf2>   DW_AT_frame_base  : 1 byte block: 9c 	(DW_OP_call_frame_cfa)
    <1cf4>   DW_AT_GNU_all_tail_call_sites: 1
    <1cf4>   DW_AT_sibling     : <0x1d48>
 <2><1cf8>: Abbrev Number: 33 (DW_TAG_formal_parameter)
    <1cf9>   DW_AT_name        : (indirect string, offset: 0x554): base
    <1cfd>   DW_AT_decl_file   : 1
    <1cfe>   DW_AT_decl_line   : 217
    <1cff>   DW_AT_decl_column : 24
    <1d00>   DW_AT_type        : <0x130e>
    <1d04>   DW_AT_location    : 2 byte block: 91 0 	(DW_OP_fbreg: 0)
 <2><1d07>: Abbrev Number: 33 (DW_TAG_formal_parameter)
    <1d08>   DW_AT_name        : (indirect string, offset: 0x457): limit
    <1d0c>   DW_AT_decl_file   : 1
    <1d0d>   DW_AT_decl_line   : 217
    <1d0e>   DW_AT_decl_column : 34
    <1d0f>   DW_AT_type        : <0x130e>
    <1d13>   DW_AT_location    : 2 byte block: 91 4 	(DW_OP_fbreg: 4)
 <2><1d16>: Abbrev Number: 35 (DW_TAG_variable)
    <1d17>   DW_AT_name        : i
    <1d19>   DW_AT_decl_file   : 1
    <1d1a>   DW_AT_decl_line   : 218
    <1d1b>   DW_AT_decl_column : 9
    <1d1c>   DW_AT_type        : <0x12db>
    <1d20>   DW_AT_location    : 2 byte block: 91 6c 	(DW_OP_fbreg: -20)
 <2><1d23>: Abbrev Number: 36 (DW_TAG_variable)
    <1d24>   DW_AT_name        : (indirect string, offset: 0x848): block
    <1d28>   DW_AT_decl_file   : 1
    <1d29>   DW_AT_decl_line   : 224
    <1d2a>   DW_AT_decl_column : 21
    <1d2b>   DW_AT_type        : <0x191f>
    <1d2f>   DW_AT_location    : 2 byte block: 91 60 	(DW_OP_fbreg: -32)
 <2><1d32>: Abbrev Number: 37 (DW_TAG_lexical_block)
    <1d33>   DW_AT_ranges      : 0x18
 <3><1d37>: Abbrev Number: 36 (DW_TAG_variable)
    <1d38>   DW_AT_name        : (indirect string, offset: 0x848): block
    <1d3c>   DW_AT_decl_file   : 1
    <1d3d>   DW_AT_decl_line   : 220
    <1d3e>   DW_AT_decl_column : 26
    <1d3f>   DW_AT_type        : <0x1a15>
    <1d43>   DW_AT_location    : 2 byte block: 91 68 	(DW_OP_fbreg: -24)
 <3><1d46>: Abbrev Number: 0
 <2><1d47>: Abbrev Number: 0
 <1><1d48>: Abbrev Number: 38 (DW_TAG_subprogram)
    <1d49>   DW_AT_external    : 1
    <1d49>   DW_AT_name        : (indirect string, offset: 0x870): task_switch
    <1d4d>   DW_AT_decl_file   : 1
    <1d4e>   DW_AT_decl_line   : 199
    <1d4f>   DW_AT_decl_column : 6
    <1d50>   DW_AT_low_pc      : 0x10dc2e
    <1d54>   DW_AT_high_pc     : 0xa6
    <1d58>   DW_AT_frame_base  : 1 byte block: 9c 	(DW_OP_call_frame_cfa)
    <1d5a>   DW_AT_GNU_all_tail_call_sites: 1
 <1><1d5a>: Abbrev Number: 34 (DW_TAG_subprogram)
    <1d5b>   DW_AT_external    : 1
    <1d5b>   DW_AT_name        : (indirect string, offset: 0x7b7): task_seek
    <1d5f>   DW_AT_decl_file   : 1
    <1d60>   DW_AT_decl_line   : 192
    <1d61>   DW_AT_decl_column : 5
    <1d62>   DW_AT_type        : <0x130e>
    <1d66>   DW_AT_low_pc      : 0x10dbe8
    <1d6a>   DW_AT_high_pc     : 0x46
    <1d6e>   DW_AT_frame_base  : 1 byte block: 9c 	(DW_OP_call_frame_cfa)
    <1d70>   DW_AT_GNU_all_tail_call_sites: 1
    <1d70>   DW_AT_sibling     : <0x1da1>
 <2><1d74>: Abbrev Number: 39 (DW_TAG_formal_parameter)
    <1d75>   DW_AT_name        : fd
    <1d78>   DW_AT_decl_file   : 1
    <1d79>   DW_AT_decl_line   : 192
    <1d7a>   DW_AT_decl_column : 19
    <1d7b>   DW_AT_type        : <0x174c>
    <1d7f>   DW_AT_location    : 2 byte block: 91 0 	(DW_OP_fbreg: 0)
 <2><1d82>: Abbrev Number: 33 (DW_TAG_formal_parameter)
    <1d83>   DW_AT_name        : (indirect string, offset: 0x9c5): offset
    <1d87>   DW_AT_decl_file   : 1
    <1d88>   DW_AT_decl_line   : 192
    <1d89>   DW_AT_decl_column : 27
    <1d8a>   DW_AT_type        : <0x12db>
    <1d8e>   DW_AT_location    : 2 byte block: 91 4 	(DW_OP_fbreg: 4)
 <2><1d91>: Abbrev Number: 33 (DW_TAG_formal_parameter)
    <1d92>   DW_AT_name        : (indirect string, offset: 0x7a5): whence
    <1d96>   DW_AT_decl_file   : 1
    <1d97>   DW_AT_decl_line   : 192
    <1d98>   DW_AT_decl_column : 39
    <1d99>   DW_AT_type        : <0x12db>
    <1d9d>   DW_AT_location    : 2 byte block: 91 8 	(DW_OP_fbreg: 8)
 <2><1da0>: Abbrev Number: 0
 <1><1da1>: Abbrev Number: 34 (DW_TAG_subprogram)
    <1da2>   DW_AT_external    : 1
    <1da2>   DW_AT_name        : (indirect string, offset: 0x74d): task_tell
    <1da6>   DW_AT_decl_file   : 1
    <1da7>   DW_AT_decl_line   : 185
    <1da8>   DW_AT_decl_column : 5
    <1da9>   DW_AT_type        : <0x130e>
    <1dad>   DW_AT_low_pc      : 0x10dba8
    <1db1>   DW_AT_high_pc     : 0x40
    <1db5>   DW_AT_frame_base  : 1 byte block: 9c 	(DW_OP_call_frame_cfa)
    <1db7>   DW_AT_GNU_all_tail_call_sites: 1
    <1db7>   DW_AT_sibling     : <0x1dca>
 <2><1dbb>: Abbrev Number: 39 (DW_TAG_formal_parameter)
    <1dbc>   DW_AT_name        : fd
    <1dbf>   DW_AT_decl_file   : 1
    <1dc0>   DW_AT_decl_line   : 185
    <1dc1>   DW_AT_decl_column : 19
    <1dc2>   DW_AT_type        : <0x174c>
    <1dc6>   DW_AT_location    : 2 byte block: 91 0 	(DW_OP_fbreg: 0)
 <2><1dc9>: Abbrev Number: 0
 <1><1dca>: Abbrev Number: 34 (DW_TAG_subprogram)
    <1dcb>   DW_AT_external    : 1
    <1dcb>   DW_AT_name        : (indirect string, offset: 0x7ac): task_write
    <1dcf>   DW_AT_decl_file   : 1
    <1dd0>   DW_AT_decl_line   : 176
    <1dd1>   DW_AT_decl_column : 5
    <1dd2>   DW_AT_type        : <0x130e>
    <1dd6>   DW_AT_low_pc      : 0x10db40
    <1dda>   DW_AT_high_pc     : 0x68
    <1dde>   DW_AT_frame_base  : 1 byte block: 9c 	(DW_OP_call_frame_cfa)
    <1de0>   DW_AT_GNU_all_tail_call_sites: 1
    <1de0>   DW_AT_sibling     : <0x1e11>
 <2><1de4>: Abbrev Number: 39 (DW_TAG_formal_parameter)
    <1de5>   DW_AT_name        : fd
    <1de8>   DW_AT_decl_file   : 1
    <1de9>   DW_AT_decl_line   : 176
    <1dea>   DW_AT_decl_column : 20
    <1deb>   DW_AT_type        : <0x174c>
    <1def>   DW_AT_location    : 2 byte block: 91 0 	(DW_OP_fbreg: 0)
 <2><1df2>: Abbrev Number: 33 (DW_TAG_formal_parameter)
    <1df3>   DW_AT_name        : (indirect string, offset: 0x2f7): buffer
    <1df7>   DW_AT_decl_file   : 1
    <1df8>   DW_AT_decl_line   : 176
    <1df9>   DW_AT_decl_column : 30
    <1dfa>   DW_AT_type        : <0x1598>
    <1dfe>   DW_AT_location    : 2 byte block: 91 4 	(DW_OP_fbreg: 4)
 <2><1e01>: Abbrev Number: 33 (DW_TAG_formal_parameter)
    <1e02>   DW_AT_name        : (indirect string, offset: 0x47c): size
    <1e06>   DW_AT_decl_file   : 1
    <1e07>   DW_AT_decl_line   : 176
    <1e08>   DW_AT_decl_column : 42
    <1e09>   DW_AT_type        : <0x130e>
    <1e0d>   DW_AT_location    : 2 byte block: 91 8 	(DW_OP_fbreg: 8)
 <2><1e10>: Abbrev Number: 0
 <1><1e11>: Abbrev Number: 34 (DW_TAG_subprogram)
    <1e12>   DW_AT_external    : 1
    <1e12>   DW_AT_name        : (indirect string, offset: 0x92f): task_read
    <1e16>   DW_AT_decl_file   : 1
    <1e17>   DW_AT_decl_line   : 168
    <1e18>   DW_AT_decl_column : 5
    <1e19>   DW_AT_type        : <0x130e>
    <1e1d>   DW_AT_low_pc      : 0x10dad8
    <1e21>   DW_AT_high_pc     : 0x68
    <1e25>   DW_AT_frame_base  : 1 byte block: 9c 	(DW_OP_call_frame_cfa)
    <1e27>   DW_AT_GNU_all_tail_call_sites: 1
    <1e27>   DW_AT_sibling     : <0x1e58>
 <2><1e2b>: Abbrev Number: 39 (DW_TAG_formal_parameter)
    <1e2c>   DW_AT_name        : fd
    <1e2f>   DW_AT_decl_file   : 1
    <1e30>   DW_AT_decl_line   : 168
    <1e31>   DW_AT_decl_column : 19
    <1e32>   DW_AT_type        : <0x174c>
    <1e36>   DW_AT_location    : 2 byte block: 91 0 	(DW_OP_fbreg: 0)
 <2><1e39>: Abbrev Number: 33 (DW_TAG_formal_parameter)
    <1e3a>   DW_AT_name        : (indirect string, offset: 0x2f7): buffer
    <1e3e>   DW_AT_decl_file   : 1
    <1e3f>   DW_AT_decl_line   : 168
    <1e40>   DW_AT_decl_column : 29
    <1e41>   DW_AT_type        : <0x1598>
    <1e45>   DW_AT_location    : 2 byte block: 91 4 	(DW_OP_fbreg: 4)
 <2><1e48>: Abbrev Number: 33 (DW_TAG_formal_parameter)
    <1e49>   DW_AT_name        : (indirect string, offset: 0x47c): size
    <1e4d>   DW_AT_decl_file   : 1
    <1e4e>   DW_AT_decl_line   : 168
    <1e4f>   DW_AT_decl_column : 41
    <1e50>   DW_AT_type        : <0x130e>
    <1e54>   DW_AT_location    : 2 byte block: 91 8 	(DW_OP_fbreg: 8)
 <2><1e57>: Abbrev Number: 0
 <1><1e58>: Abbrev Number: 34 (DW_TAG_subprogram)
    <1e59>   DW_AT_external    : 1
    <1e59>   DW_AT_name        : (indirect string, offset: 0x8b4): task_open
    <1e5d>   DW_AT_decl_file   : 1
    <1e5e>   DW_AT_decl_line   : 158
    <1e5f>   DW_AT_decl_column : 5
    <1e60>   DW_AT_type        : <0x174c>
    <1e64>   DW_AT_low_pc      : 0x10da8f
    <1e68>   DW_AT_high_pc     : 0x49
    <1e6c>   DW_AT_frame_base  : 1 byte block: 9c 	(DW_OP_call_frame_cfa)
    <1e6e>   DW_AT_GNU_all_tail_call_sites: 1
    <1e6e>   DW_AT_sibling     : <0x1e9e>
 <2><1e72>: Abbrev Number: 33 (DW_TAG_formal_parameter)
    <1e73>   DW_AT_name        : (indirect string, offset: 0x706): path
    <1e77>   DW_AT_decl_file   : 1
    <1e78>   DW_AT_decl_line   : 158
    <1e79>   DW_AT_decl_column : 27
    <1e7a>   DW_AT_type        : <0x186b>
    <1e7e>   DW_AT_location    : 2 byte block: 91 0 	(DW_OP_fbreg: 0)
 <2><1e81>: Abbrev Number: 33 (DW_TAG_formal_parameter)
    <1e82>   DW_AT_name        : (indirect string, offset: 0xaac): flags
    <1e86>   DW_AT_decl_file   : 1
    <1e87>   DW_AT_decl_line   : 158
    <1e88>   DW_AT_decl_column : 37
    <1e89>   DW_AT_type        : <0x12db>
    <1e8d>   DW_AT_location    : 2 byte block: 91 4 	(DW_OP_fbreg: 4)
 <2><1e90>: Abbrev Number: 35 (DW_TAG_variable)
    <1e91>   DW_AT_name        : t
    <1e93>   DW_AT_decl_file   : 1
    <1e94>   DW_AT_decl_line   : 159
    <1e95>   DW_AT_decl_column : 11
    <1e96>   DW_AT_type        : <0x18cd>
    <1e9a>   DW_AT_location    : 2 byte block: 91 6c 	(DW_OP_fbreg: -20)
 <2><1e9d>: Abbrev Number: 0
 <1><1e9e>: Abbrev Number: 34 (DW_TAG_subprogram)
    <1e9f>   DW_AT_external    : 1
    <1e9f>   DW_AT_name        : (indirect string, offset: 0x85b): task_createStdStream
    <1ea3>   DW_AT_decl_file   : 1
    <1ea4>   DW_AT_decl_line   : 141
    <1ea5>   DW_AT_decl_column : 5
    <1ea6>   DW_AT_type        : <0x174c>
    <1eaa>   DW_AT_low_pc      : 0x10da13
    <1eae>   DW_AT_high_pc     : 0x7c
    <1eb2>   DW_AT_frame_base  : 1 byte block: 9c 	(DW_OP_call_frame_cfa)
    <1eb4>   DW_AT_GNU_all_tail_call_sites: 1
    <1eb4>   DW_AT_sibling     : <0x1ee6>
 <2><1eb8>: Abbrev Number: 33 (DW_TAG_formal_parameter)
    <1eb9>   DW_AT_name        : (indirect string, offset: 0x6b0): task
    <1ebd>   DW_AT_decl_file   : 1
    <1ebe>   DW_AT_decl_line   : 141
    <1ebf>   DW_AT_decl_column : 32
    <1ec0>   DW_AT_type        : <0x18cd>
    <1ec4>   DW_AT_location    : 2 byte block: 91 0 	(DW_OP_fbreg: 0)
 <2><1ec7>: Abbrev Number: 33 (DW_TAG_formal_parameter)
    <1ec8>   DW_AT_name        : (indirect string, offset: 0x984): type
    <1ecc>   DW_AT_decl_file   : 1
    <1ecd>   DW_AT_decl_line   : 141
    <1ece>   DW_AT_decl_column : 42
    <1ecf>   DW_AT_type        : <0x12db>
    <1ed3>   DW_AT_location    : 2 byte block: 91 4 	(DW_OP_fbreg: 4)
 <2><1ed6>: Abbrev Number: 35 (DW_TAG_variable)
    <1ed7>   DW_AT_name        : ret
    <1edb>   DW_AT_decl_file   : 1
    <1edc>   DW_AT_decl_line   : 142
    <1edd>   DW_AT_decl_column : 9
    <1ede>   DW_AT_type        : <0x174c>
    <1ee2>   DW_AT_location    : 2 byte block: 91 6c 	(DW_OP_fbreg: -20)
 <2><1ee5>: Abbrev Number: 0
 <1><1ee6>: Abbrev Number: 34 (DW_TAG_subprogram)
    <1ee7>   DW_AT_external    : 1
    <1ee7>   DW_AT_name        : (indirect string, offset: 0x904): task_getfd
    <1eeb>   DW_AT_decl_file   : 1
    <1eec>   DW_AT_decl_line   : 125
    <1eed>   DW_AT_decl_column : 5
    <1eee>   DW_AT_type        : <0x174c>
    <1ef2>   DW_AT_low_pc      : 0x10d96e
    <1ef6>   DW_AT_high_pc     : 0xa5
    <1efa>   DW_AT_frame_base  : 1 byte block: 9c 	(DW_OP_call_frame_cfa)
    <1efc>   DW_AT_GNU_all_tail_call_sites: 1
    <1efc>   DW_AT_sibling     : <0x1f4b>
 <2><1f00>: Abbrev Number: 39 (DW_TAG_formal_parameter)
    <1f01>   DW_AT_name        : t
    <1f03>   DW_AT_decl_file   : 1
    <1f04>   DW_AT_decl_line   : 125
    <1f05>   DW_AT_decl_column : 22
    <1f06>   DW_AT_type        : <0x18cd>
    <1f0a>   DW_AT_location    : 2 byte block: 91 0 	(DW_OP_fbreg: 0)
 <2><1f0d>: Abbrev Number: 39 (DW_TAG_formal_parameter)
    <1f0e>   DW_AT_name        : fdn
    <1f12>   DW_AT_decl_file   : 1
    <1f13>   DW_AT_decl_line   : 125
    <1f14>   DW_AT_decl_column : 29
    <1f15>   DW_AT_type        : <0x130e>
    <1f19>   DW_AT_location    : 2 byte block: 91 4 	(DW_OP_fbreg: 4)
 <2><1f1c>: Abbrev Number: 30 (DW_TAG_lexical_block)
    <1f1d>   DW_AT_low_pc      : 0x10d9cc
    <1f21>   DW_AT_high_pc     : 0x40
 <3><1f25>: Abbrev Number: 35 (DW_TAG_variable)
    <1f26>   DW_AT_name        : i
    <1f28>   DW_AT_decl_file   : 1
    <1f29>   DW_AT_decl_line   : 132
    <1f2a>   DW_AT_decl_column : 14
    <1f2b>   DW_AT_type        : <0x12db>
    <1f2f>   DW_AT_location    : 2 byte block: 91 6c 	(DW_OP_fbreg: -20)
 <3><1f32>: Abbrev Number: 30 (DW_TAG_lexical_block)
    <1f33>   DW_AT_low_pc      : 0x10d9e0
    <1f37>   DW_AT_high_pc     : 0x26
 <4><1f3b>: Abbrev Number: 35 (DW_TAG_variable)
    <1f3c>   DW_AT_name        : f
    <1f3e>   DW_AT_decl_file   : 1
    <1f3f>   DW_AT_decl_line   : 133
    <1f40>   DW_AT_decl_column : 13
    <1f41>   DW_AT_type        : <0x174c>
    <1f45>   DW_AT_location    : 2 byte block: 91 68 	(DW_OP_fbreg: -24)
 <4><1f48>: Abbrev Number: 0
 <3><1f49>: Abbrev Number: 0
 <2><1f4a>: Abbrev Number: 0
 <1><1f4b>: Abbrev Number: 40 (DW_TAG_subprogram)
    <1f4c>   DW_AT_external    : 1
    <1f4c>   DW_AT_name        : (indirect string, offset: 0x738): task_resume
    <1f50>   DW_AT_decl_file   : 1
    <1f51>   DW_AT_decl_line   : 106
    <1f52>   DW_AT_decl_column : 6
    <1f53>   DW_AT_low_pc      : 0x10d8f7
    <1f57>   DW_AT_high_pc     : 0x77
    <1f5b>   DW_AT_frame_base  : 1 byte block: 9c 	(DW_OP_call_frame_cfa)
    <1f5d>   DW_AT_GNU_all_tail_call_sites: 1
    <1f5d>   DW_AT_sibling     : <0x1f97>
 <2><1f61>: Abbrev Number: 39 (DW_TAG_formal_parameter)
    <1f62>   DW_AT_name        : t
    <1f64>   DW_AT_decl_file   : 1
    <1f65>   DW_AT_decl_line   : 106
    <1f66>   DW_AT_decl_column : 24
    <1f67>   DW_AT_type        : <0x18cd>
    <1f6b>   DW_AT_location    : 2 byte block: 91 0 	(DW_OP_fbreg: 0)
 <2><1f6e>: Abbrev Number: 30 (DW_TAG_lexical_block)
    <1f6f>   DW_AT_low_pc      : 0x10d945
    <1f73>   DW_AT_high_pc     : 0x23
 <3><1f77>: Abbrev Number: 36 (DW_TAG_variable)
    <1f78>   DW_AT_name        : (indirect string, offset: 0x4bf): task_next_esp
    <1f7c>   DW_AT_decl_file   : 1
    <1f7d>   DW_AT_decl_line   : 118
    <1f7e>   DW_AT_decl_column : 13
    <1f7f>   DW_AT_type        : <0x130e>
    <1f83>   DW_AT_location    : 2 byte block: 91 6c 	(DW_OP_fbreg: -20)
 <3><1f86>: Abbrev Number: 36 (DW_TAG_variable)
    <1f87>   DW_AT_name        : (indirect string, offset: 0x5b9): task_next_ebp
    <1f8b>   DW_AT_decl_file   : 1
    <1f8c>   DW_AT_decl_line   : 119
    <1f8d>   DW_AT_decl_column : 13
    <1f8e>   DW_AT_type        : <0x130e>
    <1f92>   DW_AT_location    : 2 byte block: 91 68 	(DW_OP_fbreg: -24)
 <3><1f95>: Abbrev Number: 0
 <2><1f96>: Abbrev Number: 0
 <1><1f97>: Abbrev Number: 34 (DW_TAG_subprogram)
    <1f98>   DW_AT_external    : 1
    <1f98>   DW_AT_name        : (indirect string, offset: 0x90f): task_fd_present
    <1f9c>   DW_AT_decl_file   : 1
    <1f9d>   DW_AT_decl_line   : 99
    <1f9e>   DW_AT_decl_column : 4
    <1f9f>   DW_AT_type        : <0x12e9>
    <1fa3>   DW_AT_low_pc      : 0x10d8a5
    <1fa7>   DW_AT_high_pc     : 0x52
    <1fab>   DW_AT_frame_base  : 1 byte block: 9c 	(DW_OP_call_frame_cfa)
    <1fad>   DW_AT_GNU_all_tail_call_sites: 1
    <1fad>   DW_AT_sibling     : <0x1fe4>
 <2><1fb1>: Abbrev Number: 39 (DW_TAG_formal_parameter)
    <1fb2>   DW_AT_name        : t
    <1fb4>   DW_AT_decl_file   : 1
    <1fb5>   DW_AT_decl_line   : 99
    <1fb6>   DW_AT_decl_column : 26
    <1fb7>   DW_AT_type        : <0x18cd>
    <1fbb>   DW_AT_location    : 2 byte block: 91 0 	(DW_OP_fbreg: 0)
 <2><1fbe>: Abbrev Number: 39 (DW_TAG_formal_parameter)
    <1fbf>   DW_AT_name        : fd
    <1fc2>   DW_AT_decl_file   : 1
    <1fc3>   DW_AT_decl_line   : 99
    <1fc4>   DW_AT_decl_column : 33
    <1fc5>   DW_AT_type        : <0x174c>
    <1fc9>   DW_AT_location    : 2 byte block: 91 4 	(DW_OP_fbreg: 4)
 <2><1fcc>: Abbrev Number: 30 (DW_TAG_lexical_block)
    <1fcd>   DW_AT_low_pc      : 0x10d8af
    <1fd1>   DW_AT_high_pc     : 0x41
 <3><1fd5>: Abbrev Number: 35 (DW_TAG_variable)
    <1fd6>   DW_AT_name        : i
    <1fd8>   DW_AT_decl_file   : 1
    <1fd9>   DW_AT_decl_line   : 100
    <1fda>   DW_AT_decl_column : 14
    <1fdb>   DW_AT_type        : <0x12db>
    <1fdf>   DW_AT_location    : 2 byte block: 91 6c 	(DW_OP_fbreg: -20)
 <3><1fe2>: Abbrev Number: 0
 <2><1fe3>: Abbrev Number: 0
 <1><1fe4>: Abbrev Number: 34 (DW_TAG_subprogram)
    <1fe5>   DW_AT_external    : 1
    <1fe5>   DW_AT_name        : (indirect string, offset: 0x76b): task_attach
    <1fe9>   DW_AT_decl_file   : 1
    <1fea>   DW_AT_decl_line   : 95
    <1feb>   DW_AT_decl_column : 5
    <1fec>   DW_AT_type        : <0x12db>
    <1ff0>   DW_AT_low_pc      : 0x10d883
    <1ff4>   DW_AT_high_pc     : 0x22
    <1ff8>   DW_AT_frame_base  : 1 byte block: 9c 	(DW_OP_call_frame_cfa)
    <1ffa>   DW_AT_GNU_all_tail_call_sites: 1
    <1ffa>   DW_AT_sibling     : <0x201a>
 <2><1ffe>: Abbrev Number: 39 (DW_TAG_formal_parameter)
    <1fff>   DW_AT_name        : t
    <2001>   DW_AT_decl_file   : 1
    <2002>   DW_AT_decl_line   : 95
    <2003>   DW_AT_decl_column : 23
    <2004>   DW_AT_type        : <0x18cd>
    <2008>   DW_AT_location    : 2 byte block: 91 0 	(DW_OP_fbreg: 0)
 <2><200b>: Abbrev Number: 39 (DW_TAG_formal_parameter)
    <200c>   DW_AT_name        : fd
    <200f>   DW_AT_decl_file   : 1
    <2010>   DW_AT_decl_line   : 95
    <2011>   DW_AT_decl_column : 30
    <2012>   DW_AT_type        : <0x174c>
    <2016>   DW_AT_location    : 2 byte block: 91 4 	(DW_OP_fbreg: 4)
 <2><2019>: Abbrev Number: 0
 <1><201a>: Abbrev Number: 41 (DW_TAG_subprogram)
    <201b>   DW_AT_external    : 1
    <201b>   DW_AT_name        : (indirect string, offset: 0x806): task_getCurrent
    <201f>   DW_AT_decl_file   : 1
    <2020>   DW_AT_decl_line   : 91
    <2021>   DW_AT_decl_column : 7
    <2022>   DW_AT_type        : <0x18cd>
    <2026>   DW_AT_low_pc      : 0x10d875
    <202a>   DW_AT_high_pc     : 0xe
    <202e>   DW_AT_frame_base  : 1 byte block: 9c 	(DW_OP_call_frame_cfa)
    <2030>   DW_AT_GNU_all_call_sites: 1
 <1><2030>: Abbrev Number: 40 (DW_TAG_subprogram)
    <2031>   DW_AT_external    : 1
    <2031>   DW_AT_name        : (indirect string, offset: 0x72d): task_close
    <2035>   DW_AT_decl_file   : 1
    <2036>   DW_AT_decl_line   : 78
    <2037>   DW_AT_decl_column : 6
    <2038>   DW_AT_low_pc      : 0x10d7d5
    <203c>   DW_AT_high_pc     : 0xa0
    <2040>   DW_AT_frame_base  : 1 byte block: 9c 	(DW_OP_call_frame_cfa)
    <2042>   DW_AT_GNU_all_tail_call_sites: 1
    <2042>   DW_AT_sibling     : <0x207a>
 <2><2046>: Abbrev Number: 39 (DW_TAG_formal_parameter)
    <2047>   DW_AT_name        : t
    <2049>   DW_AT_decl_file   : 1
    <204a>   DW_AT_decl_line   : 78
    <204b>   DW_AT_decl_column : 23
    <204c>   DW_AT_type        : <0x18cd>
    <2050>   DW_AT_location    : 2 byte block: 91 0 	(DW_OP_fbreg: 0)
 <2><2053>: Abbrev Number: 33 (DW_TAG_formal_parameter)
    <2054>   DW_AT_name        : (indirect string, offset: 0x5b4): code
    <2058>   DW_AT_decl_file   : 1
    <2059>   DW_AT_decl_line   : 78
    <205a>   DW_AT_decl_column : 30
    <205b>   DW_AT_type        : <0x12db>
    <205f>   DW_AT_location    : 2 byte block: 91 4 	(DW_OP_fbreg: 4)
 <2><2062>: Abbrev Number: 30 (DW_TAG_lexical_block)
    <2063>   DW_AT_low_pc      : 0x10d7f2
    <2067>   DW_AT_high_pc     : 0x3c
 <3><206b>: Abbrev Number: 35 (DW_TAG_variable)
    <206c>   DW_AT_name        : i
    <206e>   DW_AT_decl_file   : 1
    <206f>   DW_AT_decl_line   : 81
    <2070>   DW_AT_decl_column : 14
    <2071>   DW_AT_type        : <0x12db>
    <2075>   DW_AT_location    : 2 byte block: 91 6c 	(DW_OP_fbreg: -20)
 <3><2078>: Abbrev Number: 0
 <2><2079>: Abbrev Number: 0
 <1><207a>: Abbrev Number: 34 (DW_TAG_subprogram)
    <207b>   DW_AT_external    : 1
    <207b>   DW_AT_name        : (indirect string, offset: 0x762): task_get
    <207f>   DW_AT_decl_file   : 1
    <2080>   DW_AT_decl_line   : 70
    <2081>   DW_AT_decl_column : 7
    <2082>   DW_AT_type        : <0x18cd>
    <2086>   DW_AT_low_pc      : 0x10d784
    <208a>   DW_AT_high_pc     : 0x51
    <208e>   DW_AT_frame_base  : 1 byte block: 9c 	(DW_OP_call_frame_cfa)
    <2090>   DW_AT_GNU_all_tail_call_sites: 1
    <2090>   DW_AT_sibling     : <0x20d2>
 <2><2094>: Abbrev Number: 39 (DW_TAG_formal_parameter)
    <2095>   DW_AT_name        : pid
    <2099>   DW_AT_decl_file   : 1
    <209a>   DW_AT_decl_line   : 70
    <209b>   DW_AT_decl_column : 20
    <209c>   DW_AT_type        : <0x130e>
    <20a0>   DW_AT_location    : 2 byte block: 91 0 	(DW_OP_fbreg: 0)
 <2><20a3>: Abbrev Number: 30 (DW_TAG_lexical_block)
    <20a4>   DW_AT_low_pc      : 0x10d78e
    <20a8>   DW_AT_high_pc     : 0x40
 <3><20ac>: Abbrev Number: 35 (DW_TAG_variable)
    <20ad>   DW_AT_name        : i
    <20af>   DW_AT_decl_file   : 1
    <20b0>   DW_AT_decl_line   : 71
    <20b1>   DW_AT_decl_column : 14
    <20b2>   DW_AT_type        : <0x12db>
    <20b6>   DW_AT_location    : 2 byte block: 91 6c 	(DW_OP_fbreg: -20)
 <3><20b9>: Abbrev Number: 30 (DW_TAG_lexical_block)
    <20ba>   DW_AT_low_pc      : 0x10d7a2
    <20be>   DW_AT_high_pc     : 0x26
 <4><20c2>: Abbrev Number: 35 (DW_TAG_variable)
    <20c3>   DW_AT_name        : t
    <20c5>   DW_AT_decl_file   : 1
    <20c6>   DW_AT_decl_line   : 72
    <20c7>   DW_AT_decl_column : 15
    <20c8>   DW_AT_type        : <0x18cd>
    <20cc>   DW_AT_location    : 2 byte block: 91 68 	(DW_OP_fbreg: -24)
 <4><20cf>: Abbrev Number: 0
 <3><20d0>: Abbrev Number: 0
 <2><20d1>: Abbrev Number: 0
 <1><20d2>: Abbrev Number: 34 (DW_TAG_subprogram)
    <20d3>   DW_AT_external    : 1
    <20d3>   DW_AT_name        : (indirect string, offset: 0x799): task_create
    <20d7>   DW_AT_decl_file   : 1
    <20d8>   DW_AT_decl_line   : 37
    <20d9>   DW_AT_decl_column : 7
    <20da>   DW_AT_type        : <0x18cd>
    <20de>   DW_AT_low_pc      : 0x10d654
    <20e2>   DW_AT_high_pc     : 0x130
    <20e6>   DW_AT_frame_base  : 1 byte block: 9c 	(DW_OP_call_frame_cfa)
    <20e8>   DW_AT_GNU_all_tail_call_sites: 1
    <20e8>   DW_AT_sibling     : <0x2129>
 <2><20ec>: Abbrev Number: 33 (DW_TAG_formal_parameter)
    <20ed>   DW_AT_name        : (indirect string, offset: 0x706): path
    <20f1>   DW_AT_decl_file   : 1
    <20f2>   DW_AT_decl_line   : 37
    <20f3>   DW_AT_decl_column : 31
    <20f4>   DW_AT_type        : <0x186b>
    <20f8>   DW_AT_location    : 2 byte block: 91 0 	(DW_OP_fbreg: 0)
 <2><20fb>: Abbrev Number: 35 (DW_TAG_variable)
    <20fc>   DW_AT_name        : ret
    <2100>   DW_AT_decl_file   : 1
    <2101>   DW_AT_decl_line   : 38
    <2102>   DW_AT_decl_column : 11
    <2103>   DW_AT_type        : <0x18cd>
    <2107>   DW_AT_location    : 2 byte block: 91 6c 	(DW_OP_fbreg: -20)
 <2><210a>: Abbrev Number: 36 (DW_TAG_variable)
    <210b>   DW_AT_name        : (indirect string, offset: 0x84e): error
    <210f>   DW_AT_decl_file   : 1
    <2110>   DW_AT_decl_line   : 41
    <2111>   DW_AT_decl_column : 11
    <2112>   DW_AT_type        : <0x1598>
    <2116>   DW_AT_location    : 2 byte block: 91 64 	(DW_OP_fbreg: -28)
 <2><2119>: Abbrev Number: 36 (DW_TAG_variable)
    <211a>   DW_AT_name        : (indirect string, offset: 0x744): last_mem
    <211e>   DW_AT_decl_file   : 1
    <211f>   DW_AT_decl_line   : 43
    <2120>   DW_AT_decl_column : 11
    <2121>   DW_AT_type        : <0x1445>
    <2125>   DW_AT_location    : 2 byte block: 91 68 	(DW_OP_fbreg: -24)
 <2><2128>: Abbrev Number: 0
 <1><2129>: Abbrev Number: 38 (DW_TAG_subprogram)
    <212a>   DW_AT_external    : 1
    <212a>   DW_AT_name        : (indirect string, offset: 0x7c1): task_init
    <212e>   DW_AT_decl_file   : 1
    <212f>   DW_AT_decl_line   : 27
    <2130>   DW_AT_decl_column : 6
    <2131>   DW_AT_low_pc      : 0x10d61c
    <2135>   DW_AT_high_pc     : 0x38
    <2139>   DW_AT_frame_base  : 1 byte block: 9c 	(DW_OP_call_frame_cfa)
    <213b>   DW_AT_GNU_all_tail_call_sites: 1
 <1><213b>: Abbrev Number: 0
  Compilation Unit @ offset 0x213c:
   Length:        0xb2f (32-bit)
   Version:       4
   Abbrev Offset: 0x777
   Pointer Size:  4
 <0><2147>: Abbrev Number: 1 (DW_TAG_compile_unit)
    <2148>   DW_AT_producer    : (indirect string, offset: 0x5d9): GNU C++14 9.4.0 -m32 -mtune=generic -march=i686 -g -fno-exceptions -fno-rtti -fno-pie -ffreestanding -fasynchronous-unwind-tables -fstack-clash-protection -fcf-protection
    <214c>   DW_AT_language    : 4	(C++)
    <214d>   DW_AT_name        : (indirect string, offset: 0x956): src/kernel/task/elf32.cpp
    <2151>   DW_AT_comp_dir    : (indirect string, offset: 0x162): /home/iliashdz/Desktop/Projects/apostrof
    <2155>   DW_AT_low_pc      : 0x10e320
    <2159>   DW_AT_high_pc     : 0x517
    <215d>   DW_AT_stmt_list   : 0xd85
 <1><2161>: Abbrev Number: 2 (DW_TAG_base_type)
    <2162>   DW_AT_byte_size   : 1
    <2163>   DW_AT_encoding    : 6	(signed char)
    <2164>   DW_AT_name        : (indirect string, offset: 0x1ef): char
 <1><2168>: Abbrev Number: 3 (DW_TAG_const_type)
    <2169>   DW_AT_type        : <0x2161>
 <1><216d>: Abbrev Number: 2 (DW_TAG_base_type)
    <216e>   DW_AT_byte_size   : 2
    <216f>   DW_AT_encoding    : 5	(signed)
    <2170>   DW_AT_name        : (indirect string, offset: 0x6f): short int
 <1><2174>: Abbrev Number: 4 (DW_TAG_base_type)
    <2175>   DW_AT_byte_size   : 4
    <2176>   DW_AT_encoding    : 5	(signed)
    <2177>   DW_AT_name        : int
 <1><217b>: Abbrev Number: 2 (DW_TAG_base_type)
    <217c>   DW_AT_byte_size   : 8
    <217d>   DW_AT_encoding    : 5	(signed)
    <217e>   DW_AT_name        : (indirect string, offset: 0x128): long long int
 <1><2182>: Abbrev Number: 5 (DW_TAG_typedef)
    <2183>   DW_AT_name        : u8
    <2186>   DW_AT_decl_file   : 2
    <2187>   DW_AT_decl_line   : 10
    <2188>   DW_AT_decl_column : 28
    <2189>   DW_AT_type        : <0x218d>
 <1><218d>: Abbrev Number: 2 (DW_TAG_base_type)
    <218e>   DW_AT_byte_size   : 1
    <218f>   DW_AT_encoding    : 8	(unsigned char)
    <2190>   DW_AT_name        : (indirect string, offset: 0x1e6): unsigned char
 <1><2194>: Abbrev Number: 5 (DW_TAG_typedef)
    <2195>   DW_AT_name        : u16
    <2199>   DW_AT_decl_file   : 2
    <219a>   DW_AT_decl_line   : 11
    <219b>   DW_AT_decl_column : 28
    <219c>   DW_AT_type        : <0x21a0>
 <1><21a0>: Abbrev Number: 2 (DW_TAG_base_type)
    <21a1>   DW_AT_byte_size   : 2
    <21a2>   DW_AT_encoding    : 7	(unsigned)
    <21a3>   DW_AT_name        : (indirect string, offset: 0x286): short unsigned int
 <1><21a7>: Abbrev Number: 5 (DW_TAG_typedef)
    <21a8>   DW_AT_name        : u32
    <21ac>   DW_AT_decl_file   : 2
    <21ad>   DW_AT_decl_line   : 12
    <21ae>   DW_AT_decl_column : 28
    <21af>   DW_AT_type        : <0x21b3>
 <1><21b3>: Abbrev Number: 2 (DW_TAG_base_type)
    <21b4>   DW_AT_byte_size   : 4
    <21b5>   DW_AT_encoding    : 7	(unsigned)
    <21b6>   DW_AT_name        : (indirect string, offset: 0x205): unsigned int
 <1><21ba>: Abbrev Number: 2 (DW_TAG_base_type)
    <21bb>   DW_AT_byte_size   : 8
    <21bc>   DW_AT_encoding    : 7	(unsigned)
    <21bd>   DW_AT_name        : (indirect string, offset: 0x1fb): long long unsigned int
 <1><21c1>: Abbrev Number: 2 (DW_TAG_base_type)
    <21c2>   DW_AT_byte_size   : 4
    <21c3>   DW_AT_encoding    : 4	(float)
    <21c4>   DW_AT_name        : (indirect string, offset: 0x114): float
 <1><21c8>: Abbrev Number: 2 (DW_TAG_base_type)
    <21c9>   DW_AT_byte_size   : 8
    <21ca>   DW_AT_encoding    : 4	(float)
    <21cb>   DW_AT_name        : (indirect string, offset: 0x3a4): double
 <1><21cf>: Abbrev Number: 6 (DW_TAG_structure_type)
    <21d0>   DW_AT_name        : (indirect string, offset: 0x158): vmem_page
    <21d4>   DW_AT_byte_size   : 4
    <21d5>   DW_AT_decl_file   : 3
    <21d6>   DW_AT_decl_line   : 20
    <21d7>   DW_AT_decl_column : 16
    <21d8>   DW_AT_sibling     : <0x229d>
 <2><21dc>: Abbrev Number: 7 (DW_TAG_member)
    <21dd>   DW_AT_name        : (indirect string, offset: 0x917): present
    <21e1>   DW_AT_decl_file   : 3
    <21e2>   DW_AT_decl_line   : 21
    <21e3>   DW_AT_decl_column : 9
    <21e4>   DW_AT_type        : <0x21a7>
    <21e8>   DW_AT_byte_size   : 4
    <21e9>   DW_AT_bit_size    : 1
    <21ea>   DW_AT_bit_offset  : 31
    <21eb>   DW_AT_data_member_location: 0
 <2><21ec>: Abbrev Number: 7 (DW_TAG_member)
    <21ed>   DW_AT_name        : (indirect string, offset: 0x0): writable
    <21f1>   DW_AT_decl_file   : 3
    <21f2>   DW_AT_decl_line   : 22
    <21f3>   DW_AT_decl_column : 9
    <21f4>   DW_AT_type        : <0x21a7>
    <21f8>   DW_AT_byte_size   : 4
    <21f9>   DW_AT_bit_size    : 1
    <21fa>   DW_AT_bit_offset  : 30
    <21fb>   DW_AT_data_member_location: 0
 <2><21fc>: Abbrev Number: 7 (DW_TAG_member)
    <21fd>   DW_AT_name        : (indirect string, offset: 0x281): user
    <2201>   DW_AT_decl_file   : 3
    <2202>   DW_AT_decl_line   : 23
    <2203>   DW_AT_decl_column : 9
    <2204>   DW_AT_type        : <0x21a7>
    <2208>   DW_AT_byte_size   : 4
    <2209>   DW_AT_bit_size    : 1
    <220a>   DW_AT_bit_offset  : 29
    <220b>   DW_AT_data_member_location: 0
 <2><220c>: Abbrev Number: 8 (DW_TAG_member)
    <220d>   DW_AT_name        : pwt
    <2211>   DW_AT_decl_file   : 3
    <2212>   DW_AT_decl_line   : 24
    <2213>   DW_AT_decl_column : 9
    <2214>   DW_AT_type        : <0x21a7>
    <2218>   DW_AT_byte_size   : 4
    <2219>   DW_AT_bit_size    : 1
    <221a>   DW_AT_bit_offset  : 28
    <221b>   DW_AT_data_member_location: 0
 <2><221c>: Abbrev Number: 8 (DW_TAG_member)
    <221d>   DW_AT_name        : pcd
    <2221>   DW_AT_decl_file   : 3
    <2222>   DW_AT_decl_line   : 25
    <2223>   DW_AT_decl_column : 9
    <2224>   DW_AT_type        : <0x21a7>
    <2228>   DW_AT_byte_size   : 4
    <2229>   DW_AT_bit_size    : 1
    <222a>   DW_AT_bit_offset  : 27
    <222b>   DW_AT_data_member_location: 0
 <2><222c>: Abbrev Number: 7 (DW_TAG_member)
    <222d>   DW_AT_name        : (indirect string, offset: 0xab): accessed
    <2231>   DW_AT_decl_file   : 3
    <2232>   DW_AT_decl_line   : 26
    <2233>   DW_AT_decl_column : 9
    <2234>   DW_AT_type        : <0x21a7>
    <2238>   DW_AT_byte_size   : 4
    <2239>   DW_AT_bit_size    : 1
    <223a>   DW_AT_bit_offset  : 26
    <223b>   DW_AT_data_member_location: 0
 <2><223c>: Abbrev Number: 7 (DW_TAG_member)
    <223d>   DW_AT_name        : (indirect string, offset: 0x233): dirty
    <2241>   DW_AT_decl_file   : 3
    <2242>   DW_AT_decl_line   : 27
    <2243>   DW_AT_decl_column : 9
    <2244>   DW_AT_type        : <0x21a7>
    <2248>   DW_AT_byte_size   : 4
    <2249>   DW_AT_bit_size    : 1
    <224a>   DW_AT_bit_offset  : 25
    <224b>   DW_AT_data_member_location: 0
 <2><224c>: Abbrev Number: 7 (DW_TAG_member)
    <224d>   DW_AT_name        : (indirect string, offset: 0x2a8): four_mb
    <2251>   DW_AT_decl_file   : 3
    <2252>   DW_AT_decl_line   : 28
    <2253>   DW_AT_decl_column : 9
    <2254>   DW_AT_type        : <0x21a7>
    <2258>   DW_AT_byte_size   : 4
    <2259>   DW_AT_bit_size    : 1
    <225a>   DW_AT_bit_offset  : 24
    <225b>   DW_AT_data_member_location: 0
 <2><225c>: Abbrev Number: 7 (DW_TAG_member)
    <225d>   DW_AT_name        : (indirect string, offset: 0x2df): cpu_global
    <2261>   DW_AT_decl_file   : 3
    <2262>   DW_AT_decl_line   : 29
    <2263>   DW_AT_decl_column : 9
    <2264>   DW_AT_type        : <0x21a7>
    <2268>   DW_AT_byte_size   : 4
    <2269>   DW_AT_bit_size    : 1
    <226a>   DW_AT_bit_offset  : 23
    <226b>   DW_AT_data_member_location: 0
 <2><226c>: Abbrev Number: 7 (DW_TAG_member)
    <226d>   DW_AT_name        : (indirect string, offset: 0x2ba): lv4_global
    <2271>   DW_AT_decl_file   : 3
    <2272>   DW_AT_decl_line   : 30
    <2273>   DW_AT_decl_column : 9
    <2274>   DW_AT_type        : <0x21a7>
    <2278>   DW_AT_byte_size   : 4
    <2279>   DW_AT_bit_size    : 1
    <227a>   DW_AT_bit_offset  : 22
    <227b>   DW_AT_data_member_location: 0
 <2><227c>: Abbrev Number: 7 (DW_TAG_member)
    <227d>   DW_AT_name        : (indirect string, offset: 0x43d): reserved
    <2281>   DW_AT_decl_file   : 3
    <2282>   DW_AT_decl_line   : 31
    <2283>   DW_AT_decl_column : 9
    <2284>   DW_AT_type        : <0x21a7>
    <2288>   DW_AT_byte_size   : 4
    <2289>   DW_AT_bit_size    : 2
    <228a>   DW_AT_bit_offset  : 20
    <228b>   DW_AT_data_member_location: 0
 <2><228c>: Abbrev Number: 7 (DW_TAG_member)
    <228d>   DW_AT_name        : (indirect string, offset: 0x1ae): frame
    <2291>   DW_AT_decl_file   : 3
    <2292>   DW_AT_decl_line   : 32
    <2293>   DW_AT_decl_column : 9
    <2294>   DW_AT_type        : <0x21a7>
    <2298>   DW_AT_byte_size   : 4
    <2299>   DW_AT_bit_size    : 20
    <229a>   DW_AT_bit_offset  : 0
    <229b>   DW_AT_data_member_location: 0
 <2><229c>: Abbrev Number: 0
 <1><229d>: Abbrev Number: 9 (DW_TAG_typedef)
    <229e>   DW_AT_name        : (indirect string, offset: 0x158): vmem_page
    <22a2>   DW_AT_decl_file   : 3
    <22a3>   DW_AT_decl_line   : 33
    <22a4>   DW_AT_decl_column : 3
    <22a5>   DW_AT_type        : <0x21cf>
 <1><22a9>: Abbrev Number: 6 (DW_TAG_structure_type)
    <22aa>   DW_AT_name        : (indirect string, offset: 0x52): vmem_table_entry
    <22ae>   DW_AT_byte_size   : 4
    <22af>   DW_AT_decl_file   : 3
    <22b0>   DW_AT_decl_line   : 35
    <22b1>   DW_AT_decl_column : 16
    <22b2>   DW_AT_sibling     : <0x2367>
 <2><22b6>: Abbrev Number: 7 (DW_TAG_member)
    <22b7>   DW_AT_name        : (indirect string, offset: 0x917): present
    <22bb>   DW_AT_decl_file   : 3
    <22bc>   DW_AT_decl_line   : 36
    <22bd>   DW_AT_decl_column : 9
    <22be>   DW_AT_type        : <0x21a7>
    <22c2>   DW_AT_byte_size   : 4
    <22c3>   DW_AT_bit_size    : 1
    <22c4>   DW_AT_bit_offset  : 31
    <22c5>   DW_AT_data_member_location: 0
 <2><22c6>: Abbrev Number: 7 (DW_TAG_member)
    <22c7>   DW_AT_name        : (indirect string, offset: 0x0): writable
    <22cb>   DW_AT_decl_file   : 3
    <22cc>   DW_AT_decl_line   : 37
    <22cd>   DW_AT_decl_column : 9
    <22ce>   DW_AT_type        : <0x21a7>
    <22d2>   DW_AT_byte_size   : 4
    <22d3>   DW_AT_bit_size    : 1
    <22d4>   DW_AT_bit_offset  : 30
    <22d5>   DW_AT_data_member_location: 0
 <2><22d6>: Abbrev Number: 7 (DW_TAG_member)
    <22d7>   DW_AT_name        : (indirect string, offset: 0x281): user
    <22db>   DW_AT_decl_file   : 3
    <22dc>   DW_AT_decl_line   : 38
    <22dd>   DW_AT_decl_column : 9
    <22de>   DW_AT_type        : <0x21a7>
    <22e2>   DW_AT_byte_size   : 4
    <22e3>   DW_AT_bit_size    : 1
    <22e4>   DW_AT_bit_offset  : 29
    <22e5>   DW_AT_data_member_location: 0
 <2><22e6>: Abbrev Number: 8 (DW_TAG_member)
    <22e7>   DW_AT_name        : pwt
    <22eb>   DW_AT_decl_file   : 3
    <22ec>   DW_AT_decl_line   : 39
    <22ed>   DW_AT_decl_column : 9
    <22ee>   DW_AT_type        : <0x21a7>
    <22f2>   DW_AT_byte_size   : 4
    <22f3>   DW_AT_bit_size    : 1
    <22f4>   DW_AT_bit_offset  : 28
    <22f5>   DW_AT_data_member_location: 0
 <2><22f6>: Abbrev Number: 8 (DW_TAG_member)
    <22f7>   DW_AT_name        : pcd
    <22fb>   DW_AT_decl_file   : 3
    <22fc>   DW_AT_decl_line   : 40
    <22fd>   DW_AT_decl_column : 9
    <22fe>   DW_AT_type        : <0x21a7>
    <2302>   DW_AT_byte_size   : 4
    <2303>   DW_AT_bit_size    : 1
    <2304>   DW_AT_bit_offset  : 27
    <2305>   DW_AT_data_member_location: 0
 <2><2306>: Abbrev Number: 7 (DW_TAG_member)
    <2307>   DW_AT_name        : (indirect string, offset: 0xab): accessed
    <230b>   DW_AT_decl_file   : 3
    <230c>   DW_AT_decl_line   : 41
    <230d>   DW_AT_decl_column : 9
    <230e>   DW_AT_type        : <0x21a7>
    <2312>   DW_AT_byte_size   : 4
    <2313>   DW_AT_bit_size    : 1
    <2314>   DW_AT_bit_offset  : 26
    <2315>   DW_AT_data_member_location: 0
 <2><2316>: Abbrev Number: 7 (DW_TAG_member)
    <2317>   DW_AT_name        : (indirect string, offset: 0x3ec): intelresv
    <231b>   DW_AT_decl_file   : 3
    <231c>   DW_AT_decl_line   : 42
    <231d>   DW_AT_decl_column : 9
    <231e>   DW_AT_type        : <0x21a7>
    <2322>   DW_AT_byte_size   : 4
    <2323>   DW_AT_bit_size    : 1
    <2324>   DW_AT_bit_offset  : 25
    <2325>   DW_AT_data_member_location: 0
 <2><2326>: Abbrev Number: 7 (DW_TAG_member)
    <2327>   DW_AT_name        : (indirect string, offset: 0x2a8): four_mb
    <232b>   DW_AT_decl_file   : 3
    <232c>   DW_AT_decl_line   : 43
    <232d>   DW_AT_decl_column : 9
    <232e>   DW_AT_type        : <0x21a7>
    <2332>   DW_AT_byte_size   : 4
    <2333>   DW_AT_bit_size    : 1
    <2334>   DW_AT_bit_offset  : 24
    <2335>   DW_AT_data_member_location: 0
 <2><2336>: Abbrev Number: 7 (DW_TAG_member)
    <2337>   DW_AT_name        : (indirect string, offset: 0x2be): global
    <233b>   DW_AT_decl_file   : 3
    <233c>   DW_AT_decl_line   : 44
    <233d>   DW_AT_decl_column : 9
    <233e>   DW_AT_type        : <0x21a7>
    <2342>   DW_AT_byte_size   : 4
    <2343>   DW_AT_bit_size    : 1
    <2344>   DW_AT_bit_offset  : 23
    <2345>   DW_AT_data_member_location: 0
 <2><2346>: Abbrev Number: 7 (DW_TAG_member)
    <2347>   DW_AT_name        : (indirect string, offset: 0x43d): reserved
    <234b>   DW_AT_decl_file   : 3
    <234c>   DW_AT_decl_line   : 45
    <234d>   DW_AT_decl_column : 9
    <234e>   DW_AT_type        : <0x21a7>
    <2352>   DW_AT_byte_size   : 4
    <2353>   DW_AT_bit_size    : 3
    <2354>   DW_AT_bit_offset  : 20
    <2355>   DW_AT_data_member_location: 0
 <2><2356>: Abbrev Number: 7 (DW_TAG_member)
    <2357>   DW_AT_name        : (indirect string, offset: 0x1ae): frame
    <235b>   DW_AT_decl_file   : 3
    <235c>   DW_AT_decl_line   : 46
    <235d>   DW_AT_decl_column : 9
    <235e>   DW_AT_type        : <0x21a7>
    <2362>   DW_AT_byte_size   : 4
    <2363>   DW_AT_bit_size    : 20
    <2364>   DW_AT_bit_offset  : 0
    <2365>   DW_AT_data_member_location: 0
 <2><2366>: Abbrev Number: 0
 <1><2367>: Abbrev Number: 9 (DW_TAG_typedef)
    <2368>   DW_AT_name        : (indirect string, offset: 0x52): vmem_table_entry
    <236c>   DW_AT_decl_file   : 3
    <236d>   DW_AT_decl_line   : 47
    <236e>   DW_AT_decl_column : 3
    <236f>   DW_AT_type        : <0x22a9>
 <1><2373>: Abbrev Number: 10 (DW_TAG_structure_type)
    <2374>   DW_AT_name        : (indirect string, offset: 0x29): vmem
    <2378>   DW_AT_byte_size   : 4096
    <237a>   DW_AT_decl_file   : 3
    <237b>   DW_AT_decl_line   : 53
    <237c>   DW_AT_decl_column : 16
    <237d>   DW_AT_sibling     : <0x238f>
 <2><2381>: Abbrev Number: 11 (DW_TAG_member)
    <2382>   DW_AT_name        : (indirect string, offset: 0x146): tables
    <2386>   DW_AT_decl_file   : 3
    <2387>   DW_AT_decl_line   : 54
    <2388>   DW_AT_decl_column : 22
    <2389>   DW_AT_type        : <0x238f>
    <238d>   DW_AT_data_member_location: 0
 <2><238e>: Abbrev Number: 0
 <1><238f>: Abbrev Number: 12 (DW_TAG_array_type)
    <2390>   DW_AT_type        : <0x2367>
    <2394>   DW_AT_sibling     : <0x23a0>
 <2><2398>: Abbrev Number: 13 (DW_TAG_subrange_type)
    <2399>   DW_AT_type        : <0x21b3>
    <239d>   DW_AT_upper_bound : 1023
 <2><239f>: Abbrev Number: 0
 <1><23a0>: Abbrev Number: 9 (DW_TAG_typedef)
    <23a1>   DW_AT_name        : (indirect string, offset: 0x29): vmem
    <23a5>   DW_AT_decl_file   : 3
    <23a6>   DW_AT_decl_line   : 55
    <23a7>   DW_AT_decl_column : 3
    <23a8>   DW_AT_type        : <0x2373>
 <1><23ac>: Abbrev Number: 14 (DW_TAG_variable)
    <23ad>   DW_AT_name        : (indirect string, offset: 0x239): kernel_memory
    <23b1>   DW_AT_decl_file   : 3
    <23b2>   DW_AT_decl_line   : 57
    <23b3>   DW_AT_decl_column : 14
    <23b4>   DW_AT_type        : <0x23b8>
    <23b8>   DW_AT_external    : 1
    <23b8>   DW_AT_declaration : 1
 <1><23b8>: Abbrev Number: 15 (DW_TAG_pointer_type)
    <23b9>   DW_AT_byte_size   : 4
    <23ba>   DW_AT_type        : <0x23a0>
 <1><23be>: Abbrev Number: 16 (DW_TAG_structure_type)
    <23bf>   DW_AT_byte_size   : 64
    <23c0>   DW_AT_decl_file   : 4
    <23c1>   DW_AT_decl_line   : 72
    <23c2>   DW_AT_decl_column : 16
    <23c3>   DW_AT_linkage_name: (indirect string, offset: 0x6d8): 8isr_regs
    <23c7>   DW_AT_sibling     : <0x2499>
 <2><23cb>: Abbrev Number: 17 (DW_TAG_member)
    <23cc>   DW_AT_name        : ds
    <23cf>   DW_AT_decl_file   : 4
    <23d0>   DW_AT_decl_line   : 73
    <23d1>   DW_AT_decl_column : 8
    <23d2>   DW_AT_type        : <0x21a7>
    <23d6>   DW_AT_data_member_location: 0
 <2><23d7>: Abbrev Number: 17 (DW_TAG_member)
    <23d8>   DW_AT_name        : edi
    <23dc>   DW_AT_decl_file   : 4
    <23dd>   DW_AT_decl_line   : 74
    <23de>   DW_AT_decl_column : 8
    <23df>   DW_AT_type        : <0x21a7>
    <23e3>   DW_AT_data_member_location: 4
 <2><23e4>: Abbrev Number: 17 (DW_TAG_member)
    <23e5>   DW_AT_name        : esi
    <23e9>   DW_AT_decl_file   : 4
    <23ea>   DW_AT_decl_line   : 74
    <23eb>   DW_AT_decl_column : 13
    <23ec>   DW_AT_type        : <0x21a7>
    <23f0>   DW_AT_data_member_location: 8
 <2><23f1>: Abbrev Number: 17 (DW_TAG_member)
    <23f2>   DW_AT_name        : ebp
    <23f6>   DW_AT_decl_file   : 4
    <23f7>   DW_AT_decl_line   : 74
    <23f8>   DW_AT_decl_column : 18
    <23f9>   DW_AT_type        : <0x21a7>
    <23fd>   DW_AT_data_member_location: 12
 <2><23fe>: Abbrev Number: 17 (DW_TAG_member)
    <23ff>   DW_AT_name        : esp
    <2403>   DW_AT_decl_file   : 4
    <2404>   DW_AT_decl_line   : 74
    <2405>   DW_AT_decl_column : 23
    <2406>   DW_AT_type        : <0x21a7>
    <240a>   DW_AT_data_member_location: 16
 <2><240b>: Abbrev Number: 17 (DW_TAG_member)
    <240c>   DW_AT_name        : ebx
    <2410>   DW_AT_decl_file   : 4
    <2411>   DW_AT_decl_line   : 74
    <2412>   DW_AT_decl_column : 28
    <2413>   DW_AT_type        : <0x21a7>
    <2417>   DW_AT_data_member_location: 20
 <2><2418>: Abbrev Number: 17 (DW_TAG_member)
    <2419>   DW_AT_name        : edx
    <241d>   DW_AT_decl_file   : 4
    <241e>   DW_AT_decl_line   : 74
    <241f>   DW_AT_decl_column : 33
    <2420>   DW_AT_type        : <0x21a7>
    <2424>   DW_AT_data_member_location: 24
 <2><2425>: Abbrev Number: 17 (DW_TAG_member)
    <2426>   DW_AT_name        : ecx
    <242a>   DW_AT_decl_file   : 4
    <242b>   DW_AT_decl_line   : 74
    <242c>   DW_AT_decl_column : 38
    <242d>   DW_AT_type        : <0x21a7>
    <2431>   DW_AT_data_member_location: 28
 <2><2432>: Abbrev Number: 17 (DW_TAG_member)
    <2433>   DW_AT_name        : eax
    <2437>   DW_AT_decl_file   : 4
    <2438>   DW_AT_decl_line   : 74
    <2439>   DW_AT_decl_column : 43
    <243a>   DW_AT_type        : <0x21a7>
    <243e>   DW_AT_data_member_location: 32
 <2><243f>: Abbrev Number: 11 (DW_TAG_member)
    <2440>   DW_AT_name        : (indirect string, offset: 0x565): int_no
    <2444>   DW_AT_decl_file   : 4
    <2445>   DW_AT_decl_line   : 75
    <2446>   DW_AT_decl_column : 8
    <2447>   DW_AT_type        : <0x21a7>
    <244b>   DW_AT_data_member_location: 36
 <2><244c>: Abbrev Number: 11 (DW_TAG_member)
    <244d>   DW_AT_name        : (indirect string, offset: 0x5b0): err_code
    <2451>   DW_AT_decl_file   : 4
    <2452>   DW_AT_decl_line   : 75
    <2453>   DW_AT_decl_column : 16
    <2454>   DW_AT_type        : <0x21a7>
    <2458>   DW_AT_data_member_location: 40
 <2><2459>: Abbrev Number: 17 (DW_TAG_member)
    <245a>   DW_AT_name        : eip
    <245e>   DW_AT_decl_file   : 4
    <245f>   DW_AT_decl_line   : 76
    <2460>   DW_AT_decl_column : 8
    <2461>   DW_AT_type        : <0x21a7>
    <2465>   DW_AT_data_member_location: 44
 <2><2466>: Abbrev Number: 17 (DW_TAG_member)
    <2467>   DW_AT_name        : cs
    <246a>   DW_AT_decl_file   : 4
    <246b>   DW_AT_decl_line   : 76
    <246c>   DW_AT_decl_column : 13
    <246d>   DW_AT_type        : <0x21a7>
    <2471>   DW_AT_data_member_location: 48
 <2><2472>: Abbrev Number: 11 (DW_TAG_member)
    <2473>   DW_AT_name        : (indirect string, offset: 0x48a): eflags
    <2477>   DW_AT_decl_file   : 4
    <2478>   DW_AT_decl_line   : 76
    <2479>   DW_AT_decl_column : 17
    <247a>   DW_AT_type        : <0x21a7>
    <247e>   DW_AT_data_member_location: 52
 <2><247f>: Abbrev Number: 11 (DW_TAG_member)
    <2480>   DW_AT_name        : (indirect string, offset: 0x515): useresp
    <2484>   DW_AT_decl_file   : 4
    <2485>   DW_AT_decl_line   : 76
    <2486>   DW_AT_decl_column : 25
    <2487>   DW_AT_type        : <0x21a7>
    <248b>   DW_AT_data_member_location: 56
 <2><248c>: Abbrev Number: 17 (DW_TAG_member)
    <248d>   DW_AT_name        : ss
    <2490>   DW_AT_decl_file   : 4
    <2491>   DW_AT_decl_line   : 76
    <2492>   DW_AT_decl_column : 34
    <2493>   DW_AT_type        : <0x21a7>
    <2497>   DW_AT_data_member_location: 60
 <2><2498>: Abbrev Number: 0
 <1><2499>: Abbrev Number: 9 (DW_TAG_typedef)
    <249a>   DW_AT_name        : (indirect string, offset: 0x6d9): isr_regs
    <249e>   DW_AT_decl_file   : 4
    <249f>   DW_AT_decl_line   : 77
    <24a0>   DW_AT_decl_column : 27
    <24a1>   DW_AT_type        : <0x23be>
 <1><24a5>: Abbrev Number: 15 (DW_TAG_pointer_type)
    <24a6>   DW_AT_byte_size   : 4
    <24a7>   DW_AT_type        : <0x2499>
 <1><24ab>: Abbrev Number: 18 (DW_TAG_enumeration_type)
    <24ac>   DW_AT_encoding    : 7	(unsigned)
    <24ad>   DW_AT_byte_size   : 4
    <24ae>   DW_AT_type        : <0x21b3>
    <24b2>   DW_AT_decl_file   : 5
    <24b3>   DW_AT_decl_line   : 5
    <24b4>   DW_AT_decl_column : 14
    <24b5>   DW_AT_linkage_name: (indirect string, offset: 0x68c): 10DRIVE_TYPE
    <24b9>   DW_AT_sibling     : <0x24ca>
 <2><24bd>: Abbrev Number: 19 (DW_TAG_enumerator)
    <24be>   DW_AT_name        : (indirect string, offset: 0x576): PARTITION
    <24c2>   DW_AT_const_value : 0
 <2><24c3>: Abbrev Number: 19 (DW_TAG_enumerator)
    <24c4>   DW_AT_name        : (indirect string, offset: 0x56c): DRIVE_IDE
    <24c8>   DW_AT_const_value : 1
 <2><24c9>: Abbrev Number: 0
 <1><24ca>: Abbrev Number: 9 (DW_TAG_typedef)
    <24cb>   DW_AT_name        : (indirect string, offset: 0x68e): DRIVE_TYPE
    <24cf>   DW_AT_decl_file   : 5
    <24d0>   DW_AT_decl_line   : 8
    <24d1>   DW_AT_decl_column : 3
    <24d2>   DW_AT_type        : <0x24ab>
 <1><24d6>: Abbrev Number: 16 (DW_TAG_structure_type)
    <24d7>   DW_AT_byte_size   : 12
    <24d8>   DW_AT_decl_file   : 5
    <24d9>   DW_AT_decl_line   : 10
    <24da>   DW_AT_decl_column : 16
    <24db>   DW_AT_linkage_name: (indirect string, offset: 0x69f): 5drive
    <24df>   DW_AT_sibling     : <0x250b>
 <2><24e3>: Abbrev Number: 11 (DW_TAG_member)
    <24e4>   DW_AT_name        : (indirect string, offset: 0x984): type
    <24e8>   DW_AT_decl_file   : 5
    <24e9>   DW_AT_decl_line   : 11
    <24ea>   DW_AT_decl_column : 16
    <24eb>   DW_AT_type        : <0x24ca>
    <24ef>   DW_AT_data_member_location: 0
 <2><24f0>: Abbrev Number: 11 (DW_TAG_member)
    <24f1>   DW_AT_name        : (indirect string, offset: 0x559): device_name
    <24f5>   DW_AT_decl_file   : 5
    <24f6>   DW_AT_decl_line   : 13
    <24f7>   DW_AT_decl_column : 11
    <24f8>   DW_AT_type        : <0x250b>
    <24fc>   DW_AT_data_member_location: 4
 <2><24fd>: Abbrev Number: 11 (DW_TAG_member)
    <24fe>   DW_AT_name        : (indirect string, offset: 0x47c): size
    <2502>   DW_AT_decl_file   : 5
    <2503>   DW_AT_decl_line   : 14
    <2504>   DW_AT_decl_column : 11
    <2505>   DW_AT_type        : <0x21a7>
    <2509>   DW_AT_data_member_location: 8
 <2><250a>: Abbrev Number: 0
 <1><250b>: Abbrev Number: 15 (DW_TAG_pointer_type)
    <250c>   DW_AT_byte_size   : 4
    <250d>   DW_AT_type        : <0x2161>
 <1><2511>: Abbrev Number: 9 (DW_TAG_typedef)
    <2512>   DW_AT_name        : (indirect string, offset: 0x6a0): drive
    <2516>   DW_AT_decl_file   : 5
    <2517>   DW_AT_decl_line   : 15
    <2518>   DW_AT_decl_column : 3
    <2519>   DW_AT_type        : <0x24d6>
 <1><251d>: Abbrev Number: 15 (DW_TAG_pointer_type)
    <251e>   DW_AT_byte_size   : 4
    <251f>   DW_AT_type        : <0x2511>
 <1><2523>: Abbrev Number: 16 (DW_TAG_structure_type)
    <2524>   DW_AT_byte_size   : 28
    <2525>   DW_AT_decl_file   : 6
    <2526>   DW_AT_decl_line   : 6
    <2527>   DW_AT_decl_column : 16
    <2528>   DW_AT_linkage_name: (indirect string, offset: 0x6bc): 6apo_fs
    <252c>   DW_AT_sibling     : <0x258c>
 <2><2530>: Abbrev Number: 11 (DW_TAG_member)
    <2531>   DW_AT_name        : (indirect string, offset: 0x491): device
    <2535>   DW_AT_decl_file   : 6
    <2536>   DW_AT_decl_line   : 7
    <2537>   DW_AT_decl_column : 12
    <2538>   DW_AT_type        : <0x251d>
    <253c>   DW_AT_data_member_location: 0
 <2><253d>: Abbrev Number: 11 (DW_TAG_member)
    <253e>   DW_AT_name        : (indirect string, offset: 0x6cc): bitmap_base
    <2542>   DW_AT_decl_file   : 6
    <2543>   DW_AT_decl_line   : 9
    <2544>   DW_AT_decl_column : 9
    <2545>   DW_AT_type        : <0x21a7>
    <2549>   DW_AT_data_member_location: 4
 <2><254a>: Abbrev Number: 11 (DW_TAG_member)
    <254b>   DW_AT_name        : (indirect string, offset: 0x54e): table_base
    <254f>   DW_AT_decl_file   : 6
    <2550>   DW_AT_decl_line   : 10
    <2551>   DW_AT_decl_column : 9
    <2552>   DW_AT_type        : <0x21a7>
    <2556>   DW_AT_data_member_location: 8
 <2><2557>: Abbrev Number: 11 (DW_TAG_member)
    <2558>   DW_AT_name        : (indirect string, offset: 0x50b): file_base
    <255c>   DW_AT_decl_file   : 6
    <255d>   DW_AT_decl_line   : 11
    <255e>   DW_AT_decl_column : 9
    <255f>   DW_AT_type        : <0x21a7>
    <2563>   DW_AT_data_member_location: 12
 <2><2564>: Abbrev Number: 11 (DW_TAG_member)
    <2565>   DW_AT_name        : (indirect string, offset: 0x477): desc_size
    <2569>   DW_AT_decl_file   : 6
    <256a>   DW_AT_decl_line   : 12
    <256b>   DW_AT_decl_column : 9
    <256c>   DW_AT_type        : <0x2194>
    <2570>   DW_AT_data_member_location: 16
 <2><2571>: Abbrev Number: 11 (DW_TAG_member)
    <2572>   DW_AT_name        : (indirect string, offset: 0x263): bitmap
    <2576>   DW_AT_decl_file   : 6
    <2577>   DW_AT_decl_line   : 14
    <2578>   DW_AT_decl_column : 9
    <2579>   DW_AT_type        : <0x258c>
    <257d>   DW_AT_data_member_location: 20
 <2><257e>: Abbrev Number: 11 (DW_TAG_member)
    <257f>   DW_AT_name        : (indirect string, offset: 0x4da): bitmap_size
    <2583>   DW_AT_decl_file   : 6
    <2584>   DW_AT_decl_line   : 15
    <2585>   DW_AT_decl_column : 9
    <2586>   DW_AT_type        : <0x21a7>
    <258a>   DW_AT_data_member_location: 24
 <2><258b>: Abbrev Number: 0
 <1><258c>: Abbrev Number: 15 (DW_TAG_pointer_type)
    <258d>   DW_AT_byte_size   : 4
    <258e>   DW_AT_type        : <0x2182>
 <1><2592>: Abbrev Number: 9 (DW_TAG_typedef)
    <2593>   DW_AT_name        : (indirect string, offset: 0x6bd): apo_fs
    <2597>   DW_AT_decl_file   : 6
    <2598>   DW_AT_decl_line   : 16
    <2599>   DW_AT_decl_column : 3
    <259a>   DW_AT_type        : <0x2523>
 <1><259e>: Abbrev Number: 14 (DW_TAG_variable)
    <259f>   DW_AT_name        : (indirect string, offset: 0x541): current_root
    <25a3>   DW_AT_decl_file   : 6
    <25a4>   DW_AT_decl_line   : 26
    <25a5>   DW_AT_decl_column : 16
    <25a6>   DW_AT_type        : <0x25aa>
    <25aa>   DW_AT_external    : 1
    <25aa>   DW_AT_declaration : 1
 <1><25aa>: Abbrev Number: 15 (DW_TAG_pointer_type)
    <25ab>   DW_AT_byte_size   : 4
    <25ac>   DW_AT_type        : <0x2592>
 <1><25b0>: Abbrev Number: 16 (DW_TAG_structure_type)
    <25b1>   DW_AT_byte_size   : 12
    <25b2>   DW_AT_decl_file   : 7
    <25b3>   DW_AT_decl_line   : 16
    <25b4>   DW_AT_decl_column : 16
    <25b5>   DW_AT_linkage_name: (indirect string, offset: 0x684): 6PARRAY
    <25b9>   DW_AT_sibling     : <0x25e5>
 <2><25bd>: Abbrev Number: 11 (DW_TAG_member)
    <25be>   DW_AT_name        : (indirect string, offset: 0x2f7): buffer
    <25c2>   DW_AT_decl_file   : 7
    <25c3>   DW_AT_decl_line   : 17
    <25c4>   DW_AT_decl_column : 12
    <25c5>   DW_AT_type        : <0x25e5>
    <25c9>   DW_AT_data_member_location: 0
 <2><25ca>: Abbrev Number: 11 (DW_TAG_member)
    <25cb>   DW_AT_name        : (indirect string, offset: 0x699): count
    <25cf>   DW_AT_decl_file   : 7
    <25d0>   DW_AT_decl_line   : 19
    <25d1>   DW_AT_decl_column : 12
    <25d2>   DW_AT_type        : <0x21a7>
    <25d6>   DW_AT_data_member_location: 4
 <2><25d7>: Abbrev Number: 11 (DW_TAG_member)
    <25d8>   DW_AT_name        : (indirect string, offset: 0x47c): size
    <25dc>   DW_AT_decl_file   : 7
    <25dd>   DW_AT_decl_line   : 20
    <25de>   DW_AT_decl_column : 12
    <25df>   DW_AT_type        : <0x21a7>
    <25e3>   DW_AT_data_member_location: 8
 <2><25e4>: Abbrev Number: 0
 <1><25e5>: Abbrev Number: 15 (DW_TAG_pointer_type)
    <25e6>   DW_AT_byte_size   : 4
    <25e7>   DW_AT_type        : <0x25eb>
 <1><25eb>: Abbrev Number: 20 (DW_TAG_pointer_type)
    <25ec>   DW_AT_byte_size   : 4
 <1><25ed>: Abbrev Number: 9 (DW_TAG_typedef)
    <25ee>   DW_AT_name        : (indirect string, offset: 0x685): PARRAY
    <25f2>   DW_AT_decl_file   : 7
    <25f3>   DW_AT_decl_line   : 21
    <25f4>   DW_AT_decl_column : 3
    <25f5>   DW_AT_type        : <0x25b0>
 <1><25f9>: Abbrev Number: 16 (DW_TAG_structure_type)
    <25fa>   DW_AT_byte_size   : 16
    <25fb>   DW_AT_decl_file   : 7
    <25fc>   DW_AT_decl_line   : 23
    <25fd>   DW_AT_decl_column : 16
    <25fe>   DW_AT_linkage_name: (indirect string, offset: 0x4b8): 5ARRAY
    <2602>   DW_AT_sibling     : <0x263b>
 <2><2606>: Abbrev Number: 11 (DW_TAG_member)
    <2607>   DW_AT_name        : (indirect string, offset: 0x2f7): buffer
    <260b>   DW_AT_decl_file   : 7
    <260c>   DW_AT_decl_line   : 24
    <260d>   DW_AT_decl_column : 12
    <260e>   DW_AT_type        : <0x25e5>
    <2612>   DW_AT_data_member_location: 0
 <2><2613>: Abbrev Number: 11 (DW_TAG_member)
    <2614>   DW_AT_name        : (indirect string, offset: 0x699): count
    <2618>   DW_AT_decl_file   : 7
    <2619>   DW_AT_decl_line   : 26
    <261a>   DW_AT_decl_column : 12
    <261b>   DW_AT_type        : <0x21a7>
    <261f>   DW_AT_data_member_location: 4
 <2><2620>: Abbrev Number: 11 (DW_TAG_member)
    <2621>   DW_AT_name        : (indirect string, offset: 0x47c): size
    <2625>   DW_AT_decl_file   : 7
    <2626>   DW_AT_decl_line   : 27
    <2627>   DW_AT_decl_column : 12
    <2628>   DW_AT_type        : <0x21a7>
    <262c>   DW_AT_data_member_location: 8
 <2><262d>: Abbrev Number: 11 (DW_TAG_member)
    <262e>   DW_AT_name        : (indirect string, offset: 0x481): capacity
    <2632>   DW_AT_decl_file   : 7
    <2633>   DW_AT_decl_line   : 28
    <2634>   DW_AT_decl_column : 12
    <2635>   DW_AT_type        : <0x21a7>
    <2639>   DW_AT_data_member_location: 12
 <2><263a>: Abbrev Number: 0
 <1><263b>: Abbrev Number: 9 (DW_TAG_typedef)
    <263c>   DW_AT_name        : (indirect string, offset: 0x4b9): ARRAY
    <2640>   DW_AT_decl_file   : 7
    <2641>   DW_AT_decl_line   : 29
    <2642>   DW_AT_decl_column : 3
    <2643>   DW_AT_type        : <0x25f9>
 <1><2647>: Abbrev Number: 21 (DW_TAG_structure_type)
    <2648>   DW_AT_name        : fd
    <264b>   DW_AT_byte_size   : 24
    <264c>   DW_AT_decl_file   : 8
    <264d>   DW_AT_decl_line   : 19
    <264e>   DW_AT_decl_column : 16
    <264f>   DW_AT_sibling     : <0x26a2>
 <2><2653>: Abbrev Number: 11 (DW_TAG_member)
    <2654>   DW_AT_name        : (indirect string, offset: 0x437): magic
    <2658>   DW_AT_decl_file   : 8
    <2659>   DW_AT_decl_line   : 20
    <265a>   DW_AT_decl_column : 9
    <265b>   DW_AT_type        : <0x21a7>
    <265f>   DW_AT_data_member_location: 0
 <2><2660>: Abbrev Number: 11 (DW_TAG_member)
    <2661>   DW_AT_name        : (indirect string, offset: 0x984): type
    <2665>   DW_AT_decl_file   : 8
    <2666>   DW_AT_decl_line   : 21
    <2667>   DW_AT_decl_column : 8
    <2668>   DW_AT_type        : <0x2182>
    <266c>   DW_AT_data_member_location: 4
 <2><266d>: Abbrev Number: 11 (DW_TAG_member)
    <266e>   DW_AT_name        : (indirect string, offset: 0x2f7): buffer
    <2672>   DW_AT_decl_file   : 8
    <2673>   DW_AT_decl_line   : 23
    <2674>   DW_AT_decl_column : 11
    <2675>   DW_AT_type        : <0x250b>
    <2679>   DW_AT_data_member_location: 8
 <2><267a>: Abbrev Number: 11 (DW_TAG_member)
    <267b>   DW_AT_name        : (indirect string, offset: 0x212): buffer_size
    <267f>   DW_AT_decl_file   : 8
    <2680>   DW_AT_decl_line   : 24
    <2681>   DW_AT_decl_column : 11
    <2682>   DW_AT_type        : <0x21a7>
    <2686>   DW_AT_data_member_location: 12
 <2><2687>: Abbrev Number: 11 (DW_TAG_member)
    <2688>   DW_AT_name        : (indirect string, offset: 0x3c): pipe
    <268c>   DW_AT_decl_file   : 8
    <268d>   DW_AT_decl_line   : 26
    <268e>   DW_AT_decl_column : 16
    <268f>   DW_AT_type        : <0x26a2>
    <2693>   DW_AT_data_member_location: 16
 <2><2694>: Abbrev Number: 11 (DW_TAG_member)
    <2695>   DW_AT_name        : (indirect string, offset: 0x1f4): cursor
    <2699>   DW_AT_decl_file   : 8
    <269a>   DW_AT_decl_line   : 28
    <269b>   DW_AT_decl_column : 8
    <269c>   DW_AT_type        : <0x2182>
    <26a0>   DW_AT_data_member_location: 20
 <2><26a1>: Abbrev Number: 0
 <1><26a2>: Abbrev Number: 15 (DW_TAG_pointer_type)
    <26a3>   DW_AT_byte_size   : 4
    <26a4>   DW_AT_type        : <0x2647>
 <1><26a8>: Abbrev Number: 5 (DW_TAG_typedef)
    <26a9>   DW_AT_name        : fd
    <26ac>   DW_AT_decl_file   : 8
    <26ad>   DW_AT_decl_line   : 29
    <26ae>   DW_AT_decl_column : 3
    <26af>   DW_AT_type        : <0x2647>
 <1><26b3>: Abbrev Number: 14 (DW_TAG_variable)
    <26b4>   DW_AT_name        : (indirect string, offset: 0x63): void_stream
    <26b8>   DW_AT_decl_file   : 8
    <26b9>   DW_AT_decl_line   : 31
    <26ba>   DW_AT_decl_column : 12
    <26bb>   DW_AT_type        : <0x26bf>
    <26bf>   DW_AT_external    : 1
    <26bf>   DW_AT_declaration : 1
 <1><26bf>: Abbrev Number: 15 (DW_TAG_pointer_type)
    <26c0>   DW_AT_byte_size   : 4
    <26c1>   DW_AT_type        : <0x26a8>
 <1><26c5>: Abbrev Number: 6 (DW_TAG_structure_type)
    <26c6>   DW_AT_name        : (indirect string, offset: 0x6b0): task
    <26ca>   DW_AT_byte_size   : 80
    <26cb>   DW_AT_decl_file   : 9
    <26cc>   DW_AT_decl_line   : 18
    <26cd>   DW_AT_decl_column : 16
    <26ce>   DW_AT_sibling     : <0x2796>
 <2><26d2>: Abbrev Number: 17 (DW_TAG_member)
    <26d3>   DW_AT_name        : pid
    <26d7>   DW_AT_decl_file   : 9
    <26d8>   DW_AT_decl_line   : 19
    <26d9>   DW_AT_decl_column : 12
    <26da>   DW_AT_type        : <0x21a7>
    <26de>   DW_AT_data_member_location: 0
 <2><26df>: Abbrev Number: 17 (DW_TAG_member)
    <26e0>   DW_AT_name        : mem
    <26e4>   DW_AT_decl_file   : 9
    <26e5>   DW_AT_decl_line   : 20
    <26e6>   DW_AT_decl_column : 12
    <26e7>   DW_AT_type        : <0x23b8>
    <26eb>   DW_AT_data_member_location: 4
 <2><26ec>: Abbrev Number: 11 (DW_TAG_member)
    <26ed>   DW_AT_name        : (indirect string, offset: 0x6dd): regs
    <26f1>   DW_AT_decl_file   : 9
    <26f2>   DW_AT_decl_line   : 22
    <26f3>   DW_AT_decl_column : 15
    <26f4>   DW_AT_type        : <0x24a5>
    <26f8>   DW_AT_data_member_location: 8
 <2><26f9>: Abbrev Number: 11 (DW_TAG_member)
    <26fa>   DW_AT_name        : (indirect string, offset: 0x4cd): running
    <26fe>   DW_AT_decl_file   : 9
    <26ff>   DW_AT_decl_line   : 24
    <2700>   DW_AT_decl_column : 12
    <2701>   DW_AT_type        : <0x2182>
    <2705>   DW_AT_data_member_location: 12
 <2><2706>: Abbrev Number: 11 (DW_TAG_member)
    <2707>   DW_AT_name        : (indirect string, offset: 0x6b5): blocks
    <270b>   DW_AT_decl_file   : 9
    <270c>   DW_AT_decl_line   : 26
    <270d>   DW_AT_decl_column : 12
    <270e>   DW_AT_type        : <0x263b>
    <2712>   DW_AT_data_member_location: 16
 <2><2713>: Abbrev Number: 11 (DW_TAG_member)
    <2714>   DW_AT_name        : (indirect string, offset: 0x5d): entry
    <2718>   DW_AT_decl_file   : 9
    <2719>   DW_AT_decl_line   : 28
    <271a>   DW_AT_decl_column : 12
    <271b>   DW_AT_type        : <0x21a7>
    <271f>   DW_AT_data_member_location: 32
 <2><2720>: Abbrev Number: 11 (DW_TAG_member)
    <2721>   DW_AT_name        : (indirect string, offset: 0x51d): stack
    <2725>   DW_AT_decl_file   : 9
    <2726>   DW_AT_decl_line   : 29
    <2727>   DW_AT_decl_column : 12
    <2728>   DW_AT_type        : <0x21a7>
    <272c>   DW_AT_data_member_location: 36
 <2><272d>: Abbrev Number: 11 (DW_TAG_member)
    <272e>   DW_AT_name        : (indirect string, offset: 0x4d5): heap
    <2732>   DW_AT_decl_file   : 9
    <2733>   DW_AT_decl_line   : 30
    <2734>   DW_AT_decl_column : 12
    <2735>   DW_AT_type        : <0x21a7>
    <2739>   DW_AT_data_member_location: 40
 <2><273a>: Abbrev Number: 11 (DW_TAG_member)
    <273b>   DW_AT_name        : (indirect string, offset: 0x452): heap_limit
    <273f>   DW_AT_decl_file   : 9
    <2740>   DW_AT_decl_line   : 32
    <2741>   DW_AT_decl_column : 12
    <2742>   DW_AT_type        : <0x21a7>
    <2746>   DW_AT_data_member_location: 44
 <2><2747>: Abbrev Number: 17 (DW_TAG_member)
    <2748>   DW_AT_name        : esp
    <274c>   DW_AT_decl_file   : 9
    <274d>   DW_AT_decl_line   : 34
    <274e>   DW_AT_decl_column : 12
    <274f>   DW_AT_type        : <0x21a7>
    <2753>   DW_AT_data_member_location: 48
 <2><2754>: Abbrev Number: 17 (DW_TAG_member)
    <2755>   DW_AT_name        : ebp
    <2759>   DW_AT_decl_file   : 9
    <275a>   DW_AT_decl_line   : 35
    <275b>   DW_AT_decl_column : 12
    <275c>   DW_AT_type        : <0x21a7>
    <2760>   DW_AT_data_member_location: 52
 <2><2761>: Abbrev Number: 17 (DW_TAG_member)
    <2762>   DW_AT_name        : fds
    <2766>   DW_AT_decl_file   : 9
    <2767>   DW_AT_decl_line   : 37
    <2768>   DW_AT_decl_column : 12
    <2769>   DW_AT_type        : <0x25ed>
    <276d>   DW_AT_data_member_location: 56
 <2><276e>: Abbrev Number: 11 (DW_TAG_member)
    <276f>   DW_AT_name        : (indirect string, offset: 0x505): stdin
    <2773>   DW_AT_decl_file   : 9
    <2774>   DW_AT_decl_line   : 39
    <2775>   DW_AT_decl_column : 12
    <2776>   DW_AT_type        : <0x26bf>
    <277a>   DW_AT_data_member_location: 68
 <2><277b>: Abbrev Number: 11 (DW_TAG_member)
    <277c>   DW_AT_name        : (indirect string, offset: 0x6f0): stdout
    <2780>   DW_AT_decl_file   : 9
    <2781>   DW_AT_decl_line   : 40
    <2782>   DW_AT_decl_column : 12
    <2783>   DW_AT_type        : <0x26bf>
    <2787>   DW_AT_data_member_location: 72
 <2><2788>: Abbrev Number: 11 (DW_TAG_member)
    <2789>   DW_AT_name        : (indirect string, offset: 0x4fe): stderr
    <278d>   DW_AT_decl_file   : 9
    <278e>   DW_AT_decl_line   : 41
    <278f>   DW_AT_decl_column : 12
    <2790>   DW_AT_type        : <0x26bf>
    <2794>   DW_AT_data_member_location: 76
 <2><2795>: Abbrev Number: 0
 <1><2796>: Abbrev Number: 9 (DW_TAG_typedef)
    <2797>   DW_AT_name        : (indirect string, offset: 0x6b0): task
    <279b>   DW_AT_decl_file   : 9
    <279c>   DW_AT_decl_line   : 42
    <279d>   DW_AT_decl_column : 3
    <279e>   DW_AT_type        : <0x26c5>
 <1><27a2>: Abbrev Number: 14 (DW_TAG_variable)
    <27a3>   DW_AT_name        : (indirect string, offset: 0x580): task_previous_esp
    <27a7>   DW_AT_decl_file   : 9
    <27a8>   DW_AT_decl_line   : 44
    <27a9>   DW_AT_decl_column : 12
    <27aa>   DW_AT_type        : <0x21a7>
    <27ae>   DW_AT_external    : 1
    <27ae>   DW_AT_declaration : 1
 <1><27ae>: Abbrev Number: 14 (DW_TAG_variable)
    <27af>   DW_AT_name        : (indirect string, offset: 0x45d): task_previous_ebp
    <27b3>   DW_AT_decl_file   : 9
    <27b4>   DW_AT_decl_line   : 45
    <27b5>   DW_AT_decl_column : 12
    <27b6>   DW_AT_type        : <0x21a7>
    <27ba>   DW_AT_external    : 1
    <27ba>   DW_AT_declaration : 1
 <1><27ba>: Abbrev Number: 14 (DW_TAG_variable)
    <27bb>   DW_AT_name        : (indirect string, offset: 0x4bf): task_next_esp
    <27bf>   DW_AT_decl_file   : 9
    <27c0>   DW_AT_decl_line   : 47
    <27c1>   DW_AT_decl_column : 12
    <27c2>   DW_AT_type        : <0x21a7>
    <27c6>   DW_AT_external    : 1
    <27c6>   DW_AT_declaration : 1
 <1><27c6>: Abbrev Number: 14 (DW_TAG_variable)
    <27c7>   DW_AT_name        : (indirect string, offset: 0x5b9): task_next_ebp
    <27cb>   DW_AT_decl_file   : 9
    <27cc>   DW_AT_decl_line   : 48
    <27cd>   DW_AT_decl_column : 12
    <27ce>   DW_AT_type        : <0x21a7>
    <27d2>   DW_AT_external    : 1
    <27d2>   DW_AT_declaration : 1
 <1><27d2>: Abbrev Number: 16 (DW_TAG_structure_type)
    <27d3>   DW_AT_byte_size   : 52
    <27d4>   DW_AT_decl_file   : 10
    <27d5>   DW_AT_decl_line   : 8
    <27d6>   DW_AT_decl_column : 16
    <27d7>   DW_AT_linkage_name: (indirect string, offset: 0xa0b): 9elf32_hdr
    <27db>   DW_AT_sibling     : <0x2896>
 <2><27df>: Abbrev Number: 11 (DW_TAG_member)
    <27e0>   DW_AT_name        : (indirect string, offset: 0xaa2): e_ident
    <27e4>   DW_AT_decl_file   : 10
    <27e5>   DW_AT_decl_line   : 9
    <27e6>   DW_AT_decl_column : 9
    <27e7>   DW_AT_type        : <0x2896>
    <27eb>   DW_AT_data_member_location: 0
 <2><27ec>: Abbrev Number: 11 (DW_TAG_member)
    <27ed>   DW_AT_name        : (indirect string, offset: 0x982): e_type
    <27f1>   DW_AT_decl_file   : 10
    <27f2>   DW_AT_decl_line   : 10
    <27f3>   DW_AT_decl_column : 9
    <27f4>   DW_AT_type        : <0x2194>
    <27f8>   DW_AT_data_member_location: 16
 <2><27f9>: Abbrev Number: 11 (DW_TAG_member)
    <27fa>   DW_AT_name        : (indirect string, offset: 0xa16): e_machine
    <27fe>   DW_AT_decl_file   : 10
    <27ff>   DW_AT_decl_line   : 11
    <2800>   DW_AT_decl_column : 9
    <2801>   DW_AT_type        : <0x2194>
    <2805>   DW_AT_data_member_location: 18
 <2><2806>: Abbrev Number: 11 (DW_TAG_member)
    <2807>   DW_AT_name        : (indirect string, offset: 0xa5a): e_version
    <280b>   DW_AT_decl_file   : 10
    <280c>   DW_AT_decl_line   : 12
    <280d>   DW_AT_decl_column : 9
    <280e>   DW_AT_type        : <0x21a7>
    <2812>   DW_AT_data_member_location: 20
 <2><2813>: Abbrev Number: 11 (DW_TAG_member)
    <2814>   DW_AT_name        : (indirect string, offset: 0x5b): e_entry
    <2818>   DW_AT_decl_file   : 10
    <2819>   DW_AT_decl_line   : 13
    <281a>   DW_AT_decl_column : 9
    <281b>   DW_AT_type        : <0x21a7>
    <281f>   DW_AT_data_member_location: 24
 <2><2820>: Abbrev Number: 11 (DW_TAG_member)
    <2821>   DW_AT_name        : (indirect string, offset: 0xab2): e_phoff
    <2825>   DW_AT_decl_file   : 10
    <2826>   DW_AT_decl_line   : 14
    <2827>   DW_AT_decl_column : 9
    <2828>   DW_AT_type        : <0x21a7>
    <282c>   DW_AT_data_member_location: 28
 <2><282d>: Abbrev Number: 11 (DW_TAG_member)
    <282e>   DW_AT_name        : (indirect string, offset: 0xa86): e_shoff
    <2832>   DW_AT_decl_file   : 10
    <2833>   DW_AT_decl_line   : 15
    <2834>   DW_AT_decl_column : 9
    <2835>   DW_AT_type        : <0x21a7>
    <2839>   DW_AT_data_member_location: 32
 <2><283a>: Abbrev Number: 11 (DW_TAG_member)
    <283b>   DW_AT_name        : (indirect string, offset: 0xaaa): e_flags
    <283f>   DW_AT_decl_file   : 10
    <2840>   DW_AT_decl_line   : 16
    <2841>   DW_AT_decl_column : 9
    <2842>   DW_AT_type        : <0x21a7>
    <2846>   DW_AT_data_member_location: 36
 <2><2847>: Abbrev Number: 11 (DW_TAG_member)
    <2848>   DW_AT_name        : (indirect string, offset: 0xa41): e_ehsize
    <284c>   DW_AT_decl_file   : 10
    <284d>   DW_AT_decl_line   : 17
    <284e>   DW_AT_decl_column : 9
    <284f>   DW_AT_type        : <0x2194>
    <2853>   DW_AT_data_member_location: 40
 <2><2854>: Abbrev Number: 11 (DW_TAG_member)
    <2855>   DW_AT_name        : (indirect string, offset: 0x9e4): e_phentsize
    <2859>   DW_AT_decl_file   : 10
    <285a>   DW_AT_decl_line   : 18
    <285b>   DW_AT_decl_column : 9
    <285c>   DW_AT_type        : <0x2194>
    <2860>   DW_AT_data_member_location: 42
 <2><2861>: Abbrev Number: 11 (DW_TAG_member)
    <2862>   DW_AT_name        : (indirect string, offset: 0xaeb): e_phnum
    <2866>   DW_AT_decl_file   : 10
    <2867>   DW_AT_decl_line   : 19
    <2868>   DW_AT_decl_column : 9
    <2869>   DW_AT_type        : <0x2194>
    <286d>   DW_AT_data_member_location: 44
 <2><286e>: Abbrev Number: 11 (DW_TAG_member)
    <286f>   DW_AT_name        : (indirect string, offset: 0xac5): e_shentsize
    <2873>   DW_AT_decl_file   : 10
    <2874>   DW_AT_decl_line   : 20
    <2875>   DW_AT_decl_column : 9
    <2876>   DW_AT_type        : <0x2194>
    <287a>   DW_AT_data_member_location: 46
 <2><287b>: Abbrev Number: 11 (DW_TAG_member)
    <287c>   DW_AT_name        : (indirect string, offset: 0xad1): e_shnum
    <2880>   DW_AT_decl_file   : 10
    <2881>   DW_AT_decl_line   : 21
    <2882>   DW_AT_decl_column : 9
    <2883>   DW_AT_type        : <0x2194>
    <2887>   DW_AT_data_member_location: 48
 <2><2888>: Abbrev Number: 11 (DW_TAG_member)
    <2889>   DW_AT_name        : (indirect string, offset: 0x9cc): e_shstrndx
    <288d>   DW_AT_decl_file   : 10
    <288e>   DW_AT_decl_line   : 22
    <288f>   DW_AT_decl_column : 9
    <2890>   DW_AT_type        : <0x2194>
    <2894>   DW_AT_data_member_location: 50
 <2><2895>: Abbrev Number: 0
 <1><2896>: Abbrev Number: 12 (DW_TAG_array_type)
    <2897>   DW_AT_type        : <0x2182>
    <289b>   DW_AT_sibling     : <0x28a6>
 <2><289f>: Abbrev Number: 22 (DW_TAG_subrange_type)
    <28a0>   DW_AT_type        : <0x21b3>
    <28a4>   DW_AT_upper_bound : 15
 <2><28a5>: Abbrev Number: 0
 <1><28a6>: Abbrev Number: 9 (DW_TAG_typedef)
    <28a7>   DW_AT_name        : (indirect string, offset: 0xa0c): elf32_hdr
    <28ab>   DW_AT_decl_file   : 10
    <28ac>   DW_AT_decl_line   : 23
    <28ad>   DW_AT_decl_column : 27
    <28ae>   DW_AT_type        : <0x27d2>
 <1><28b2>: Abbrev Number: 16 (DW_TAG_structure_type)
    <28b3>   DW_AT_byte_size   : 40
    <28b4>   DW_AT_decl_file   : 10
    <28b5>   DW_AT_decl_line   : 25
    <28b6>   DW_AT_decl_column : 16
    <28b7>   DW_AT_linkage_name: (indirect string, offset: 0x9d7): 10elf32_shdr
    <28bb>   DW_AT_sibling     : <0x2942>
 <2><28bf>: Abbrev Number: 11 (DW_TAG_member)
    <28c0>   DW_AT_name        : (indirect string, offset: 0x9f0): sh_name
    <28c4>   DW_AT_decl_file   : 10
    <28c5>   DW_AT_decl_line   : 26
    <28c6>   DW_AT_decl_column : 9
    <28c7>   DW_AT_type        : <0x21a7>
    <28cb>   DW_AT_data_member_location: 0
 <2><28cc>: Abbrev Number: 11 (DW_TAG_member)
    <28cd>   DW_AT_name        : (indirect string, offset: 0xa73): sh_type
    <28d1>   DW_AT_decl_file   : 10
    <28d2>   DW_AT_decl_line   : 27
    <28d3>   DW_AT_decl_column : 9
    <28d4>   DW_AT_type        : <0x21a7>
    <28d8>   DW_AT_data_member_location: 4
 <2><28d9>: Abbrev Number: 11 (DW_TAG_member)
    <28da>   DW_AT_name        : (indirect string, offset: 0xad9): sh_flags
    <28de>   DW_AT_decl_file   : 10
    <28df>   DW_AT_decl_line   : 28
    <28e0>   DW_AT_decl_column : 9
    <28e1>   DW_AT_type        : <0x21a7>
    <28e5>   DW_AT_data_member_location: 8
 <2><28e6>: Abbrev Number: 11 (DW_TAG_member)
    <28e7>   DW_AT_name        : (indirect string, offset: 0x998): sh_addr
    <28eb>   DW_AT_decl_file   : 10
    <28ec>   DW_AT_decl_line   : 29
    <28ed>   DW_AT_decl_column : 9
    <28ee>   DW_AT_type        : <0x21a7>
    <28f2>   DW_AT_data_member_location: 12
 <2><28f3>: Abbrev Number: 11 (DW_TAG_member)
    <28f4>   DW_AT_name        : (indirect string, offset: 0x9c2): sh_offset
    <28f8>   DW_AT_decl_file   : 10
    <28f9>   DW_AT_decl_line   : 30
    <28fa>   DW_AT_decl_column : 9
    <28fb>   DW_AT_type        : <0x21a7>
    <28ff>   DW_AT_data_member_location: 16
 <2><2900>: Abbrev Number: 11 (DW_TAG_member)
    <2901>   DW_AT_name        : (indirect string, offset: 0x989): sh_size
    <2905>   DW_AT_decl_file   : 10
    <2906>   DW_AT_decl_line   : 31
    <2907>   DW_AT_decl_column : 9
    <2908>   DW_AT_type        : <0x21a7>
    <290c>   DW_AT_data_member_location: 20
 <2><290d>: Abbrev Number: 11 (DW_TAG_member)
    <290e>   DW_AT_name        : (indirect string, offset: 0xa20): sh_link
    <2912>   DW_AT_decl_file   : 10
    <2913>   DW_AT_decl_line   : 32
    <2914>   DW_AT_decl_column : 9
    <2915>   DW_AT_type        : <0x21a7>
    <2919>   DW_AT_data_member_location: 24
 <2><291a>: Abbrev Number: 11 (DW_TAG_member)
    <291b>   DW_AT_name        : (indirect string, offset: 0xa9a): sh_info
    <291f>   DW_AT_decl_file   : 10
    <2920>   DW_AT_decl_line   : 33
    <2921>   DW_AT_decl_column : 9
    <2922>   DW_AT_type        : <0x21a7>
    <2926>   DW_AT_data_member_location: 28
 <2><2927>: Abbrev Number: 11 (DW_TAG_member)
    <2928>   DW_AT_name        : (indirect string, offset: 0x939): sh_addralign
    <292c>   DW_AT_decl_file   : 10
    <292d>   DW_AT_decl_line   : 34
    <292e>   DW_AT_decl_column : 9
    <292f>   DW_AT_type        : <0x21a7>
    <2933>   DW_AT_data_member_location: 32
 <2><2934>: Abbrev Number: 11 (DW_TAG_member)
    <2935>   DW_AT_name        : (indirect string, offset: 0xa7b): sh_entsize
    <2939>   DW_AT_decl_file   : 10
    <293a>   DW_AT_decl_line   : 35
    <293b>   DW_AT_decl_column : 9
    <293c>   DW_AT_type        : <0x21a7>
    <2940>   DW_AT_data_member_location: 36
 <2><2941>: Abbrev Number: 0
 <1><2942>: Abbrev Number: 9 (DW_TAG_typedef)
    <2943>   DW_AT_name        : (indirect string, offset: 0x9d9): elf32_shdr
    <2947>   DW_AT_decl_file   : 10
    <2948>   DW_AT_decl_line   : 36
    <2949>   DW_AT_decl_column : 27
    <294a>   DW_AT_type        : <0x28b2>
 <1><294e>: Abbrev Number: 14 (DW_TAG_variable)
    <294f>   DW_AT_name        : (indirect string, offset: 0x83): cursor_y
    <2953>   DW_AT_decl_file   : 11
    <2954>   DW_AT_decl_line   : 29
    <2955>   DW_AT_decl_column : 11
    <2956>   DW_AT_type        : <0x2182>
    <295a>   DW_AT_external    : 1
    <295a>   DW_AT_declaration : 1
 <1><295a>: Abbrev Number: 23 (DW_TAG_namespace)
    <295b>   DW_AT_name        : apo
    <295f>   DW_AT_decl_file   : 13
    <2960>   DW_AT_decl_line   : 8
    <2961>   DW_AT_decl_column : 11
    <2962>   DW_AT_sibling     : <0x2a2c>
 <2><2966>: Abbrev Number: 24 (DW_TAG_class_type)
    <2967>   DW_AT_name        : (indirect string, offset: 0x970): File
    <296b>   DW_AT_byte_size   : 20
    <296c>   DW_AT_decl_file   : 12
    <296d>   DW_AT_decl_line   : 17
    <296e>   DW_AT_decl_column : 7
    <296f>   DW_AT_sibling     : <0x2a26>
 <3><2973>: Abbrev Number: 25 (DW_TAG_subprogram)
    <2974>   DW_AT_external    : 1
    <2974>   DW_AT_name        : (indirect string, offset: 0x970): File
    <2978>   DW_AT_decl_file   : 12
    <2979>   DW_AT_decl_line   : 19
    <297a>   DW_AT_decl_column : 5
    <297b>   DW_AT_linkage_name: (indirect string, offset: 0xaf3): _ZN3apo4FileC4EPNS_10FilesystemE
    <297f>   DW_AT_accessibility: 1	(public)
    <2980>   DW_AT_declaration : 1
    <2980>   DW_AT_object_pointer: <0x2988>
    <2984>   DW_AT_sibling     : <0x2993>
 <4><2988>: Abbrev Number: 26 (DW_TAG_formal_parameter)
    <2989>   DW_AT_type        : <0x2a2c>
    <298d>   DW_AT_artificial  : 1
 <4><298d>: Abbrev Number: 27 (DW_TAG_formal_parameter)
    <298e>   DW_AT_type        : <0x2a32>
 <4><2992>: Abbrev Number: 0
 <3><2993>: Abbrev Number: 28 (DW_TAG_subprogram)
    <2994>   DW_AT_external    : 1
    <2994>   DW_AT_name        : (indirect string, offset: 0xb1b): invalid
    <2998>   DW_AT_decl_file   : 12
    <2999>   DW_AT_decl_line   : 21
    <299a>   DW_AT_decl_column : 17
    <299b>   DW_AT_linkage_name: (indirect string, offset: 0x9ab): _ZN3apo4File7invalidEv
    <299f>   DW_AT_type        : <0x2966>
    <29a3>   DW_AT_accessibility: 1	(public)
    <29a4>   DW_AT_declaration : 1
 <3><29a4>: Abbrev Number: 29 (DW_TAG_subprogram)
    <29a5>   DW_AT_external    : 1
    <29a5>   DW_AT_name        : (indirect string, offset: 0x934): read
    <29a9>   DW_AT_decl_file   : 12
    <29aa>   DW_AT_decl_line   : 23
    <29ab>   DW_AT_decl_column : 9
    <29ac>   DW_AT_linkage_name: (indirect string, offset: 0xb2a): _ZN3apo4File4readEPvjj
    <29b0>   DW_AT_type        : <0x21a7>
    <29b4>   DW_AT_accessibility: 1	(public)
    <29b5>   DW_AT_declaration : 1
    <29b5>   DW_AT_object_pointer: <0x29bd>
    <29b9>   DW_AT_sibling     : <0x29d2>
 <4><29bd>: Abbrev Number: 26 (DW_TAG_formal_parameter)
    <29be>   DW_AT_type        : <0x2a2c>
    <29c2>   DW_AT_artificial  : 1
 <4><29c2>: Abbrev Number: 27 (DW_TAG_formal_parameter)
    <29c3>   DW_AT_type        : <0x25eb>
 <4><29c7>: Abbrev Number: 27 (DW_TAG_formal_parameter)
    <29c8>   DW_AT_type        : <0x21a7>
 <4><29cc>: Abbrev Number: 27 (DW_TAG_formal_parameter)
    <29cd>   DW_AT_type        : <0x21a7>
 <4><29d1>: Abbrev Number: 0
 <3><29d2>: Abbrev Number: 30 (DW_TAG_member)
    <29d3>   DW_AT_name        : (indirect string, offset: 0xb1d): valid
    <29d7>   DW_AT_decl_file   : 12
    <29d8>   DW_AT_decl_line   : 26
    <29d9>   DW_AT_decl_column : 10
    <29da>   DW_AT_type        : <0x2a38>
    <29de>   DW_AT_data_member_location: 0
    <29df>   DW_AT_accessibility: 1	(public)
 <3><29e0>: Abbrev Number: 30 (DW_TAG_member)
    <29e1>   DW_AT_name        : (indirect string, offset: 0xa8e): is_dir
    <29e5>   DW_AT_decl_file   : 12
    <29e6>   DW_AT_decl_line   : 27
    <29e7>   DW_AT_decl_column : 10
    <29e8>   DW_AT_type        : <0x2a38>
    <29ec>   DW_AT_data_member_location: 1
    <29ed>   DW_AT_accessibility: 1	(public)
 <3><29ee>: Abbrev Number: 31 (DW_TAG_member)
    <29ef>   DW_AT_name        : fs
    <29f2>   DW_AT_decl_file   : 12
    <29f3>   DW_AT_decl_line   : 28
    <29f4>   DW_AT_decl_column : 17
    <29f5>   DW_AT_type        : <0x2a32>
    <29f9>   DW_AT_data_member_location: 4
    <29fa>   DW_AT_accessibility: 1	(public)
 <3><29fb>: Abbrev Number: 30 (DW_TAG_member)
    <29fc>   DW_AT_name        : (indirect string, offset: 0x47c): size
    <2a00>   DW_AT_decl_file   : 12
    <2a01>   DW_AT_decl_line   : 30
    <2a02>   DW_AT_decl_column : 9
    <2a03>   DW_AT_type        : <0x21a7>
    <2a07>   DW_AT_data_member_location: 8
    <2a08>   DW_AT_accessibility: 1	(public)
 <3><2a09>: Abbrev Number: 30 (DW_TAG_member)
    <2a0a>   DW_AT_name        : (indirect string, offset: 0xa3b): data1
    <2a0e>   DW_AT_decl_file   : 12
    <2a0f>   DW_AT_decl_line   : 32
    <2a10>   DW_AT_decl_column : 9
    <2a11>   DW_AT_type        : <0x21a7>
    <2a15>   DW_AT_data_member_location: 12
    <2a16>   DW_AT_accessibility: 1	(public)
 <3><2a17>: Abbrev Number: 30 (DW_TAG_member)
    <2a18>   DW_AT_name        : (indirect string, offset: 0x950): data2
    <2a1c>   DW_AT_decl_file   : 12
    <2a1d>   DW_AT_decl_line   : 33
    <2a1e>   DW_AT_decl_column : 9
    <2a1f>   DW_AT_type        : <0x21a7>
    <2a23>   DW_AT_data_member_location: 16
    <2a24>   DW_AT_accessibility: 1	(public)
 <3><2a25>: Abbrev Number: 0
 <2><2a26>: Abbrev Number: 32 (DW_TAG_class_type)
    <2a27>   DW_AT_name        : (indirect string, offset: 0x523): Filesystem
    <2a2b>   DW_AT_declaration : 1
 <2><2a2b>: Abbrev Number: 0
 <1><2a2c>: Abbrev Number: 15 (DW_TAG_pointer_type)
    <2a2d>   DW_AT_byte_size   : 4
    <2a2e>   DW_AT_type        : <0x2966>
 <1><2a32>: Abbrev Number: 15 (DW_TAG_pointer_type)
    <2a33>   DW_AT_byte_size   : 4
    <2a34>   DW_AT_type        : <0x2a26>
 <1><2a38>: Abbrev Number: 2 (DW_TAG_base_type)
    <2a39>   DW_AT_byte_size   : 1
    <2a3a>   DW_AT_encoding    : 2	(boolean)
    <2a3b>   DW_AT_name        : (indirect string, offset: 0x4e6): bool
 <1><2a3f>: Abbrev Number: 33 (DW_TAG_imported_module)
    <2a40>   DW_AT_decl_file   : 1
    <2a41>   DW_AT_decl_line   : 13
    <2a42>   DW_AT_decl_column : 17
    <2a43>   DW_AT_import      : <0x295a>	[Abbrev Number: 23 (DW_TAG_namespace)]
 <1><2a47>: Abbrev Number: 34 (DW_TAG_subprogram)
    <2a48>   DW_AT_external    : 1
    <2a48>   DW_AT_name        : (indirect string, offset: 0x9a0): elf32_load
    <2a4c>   DW_AT_decl_file   : 1
    <2a4d>   DW_AT_decl_line   : 37
    <2a4e>   DW_AT_decl_column : 5
    <2a4f>   DW_AT_type        : <0x2174>
    <2a53>   DW_AT_low_pc      : 0x10e320
    <2a57>   DW_AT_high_pc     : 0x517
    <2a5b>   DW_AT_frame_base  : 1 byte block: 9c 	(DW_OP_call_frame_cfa)
    <2a5d>   DW_AT_GNU_all_tail_call_sites: 1
    <2a5d>   DW_AT_sibling     : <0x2c4a>
 <2><2a61>: Abbrev Number: 35 (DW_TAG_formal_parameter)
    <2a62>   DW_AT_name        : (indirect string, offset: 0x706): path
    <2a66>   DW_AT_decl_file   : 1
    <2a67>   DW_AT_decl_line   : 37
    <2a68>   DW_AT_decl_column : 28
    <2a69>   DW_AT_type        : <0x2c4a>
    <2a6d>   DW_AT_location    : 2 byte block: 91 0 	(DW_OP_fbreg: 0)
 <2><2a70>: Abbrev Number: 35 (DW_TAG_formal_parameter)
    <2a71>   DW_AT_name        : (indirect string, offset: 0x6b0): task
    <2a75>   DW_AT_decl_file   : 1
    <2a76>   DW_AT_decl_line   : 37
    <2a77>   DW_AT_decl_column : 40
    <2a78>   DW_AT_type        : <0x2c50>
    <2a7c>   DW_AT_location    : 2 byte block: 91 4 	(DW_OP_fbreg: 4)
 <2><2a7f>: Abbrev Number: 35 (DW_TAG_formal_parameter)
    <2a80>   DW_AT_name        : (indirect string, offset: 0x14d): stack_size
    <2a84>   DW_AT_decl_file   : 1
    <2a85>   DW_AT_decl_line   : 37
    <2a86>   DW_AT_decl_column : 50
    <2a87>   DW_AT_type        : <0x21a7>
    <2a8b>   DW_AT_location    : 2 byte block: 91 8 	(DW_OP_fbreg: 8)
 <2><2a8e>: Abbrev Number: 35 (DW_TAG_formal_parameter)
    <2a8f>   DW_AT_name        : (indirect string, offset: 0x84e): error
    <2a93>   DW_AT_decl_file   : 1
    <2a94>   DW_AT_decl_line   : 37
    <2a95>   DW_AT_decl_column : 69
    <2a96>   DW_AT_type        : <0x2c56>
    <2a9a>   DW_AT_location    : 2 byte block: 91 c 	(DW_OP_fbreg: 12)
 <2><2a9d>: Abbrev Number: 36 (DW_TAG_variable)
    <2a9e>   DW_AT_name        : (indirect string, offset: 0xa95): file
    <2aa2>   DW_AT_decl_file   : 1
    <2aa3>   DW_AT_decl_line   : 40
    <2aa4>   DW_AT_decl_column : 10
    <2aa5>   DW_AT_type        : <0x2966>
    <2aa9>   DW_AT_location    : 3 byte block: 91 8c 7f 	(DW_OP_fbreg: -116)
 <2><2aad>: Abbrev Number: 36 (DW_TAG_variable)
    <2aae>   DW_AT_name        : (indirect string, offset: 0x2f7): buffer
    <2ab2>   DW_AT_decl_file   : 1
    <2ab3>   DW_AT_decl_line   : 48
    <2ab4>   DW_AT_decl_column : 9
    <2ab5>   DW_AT_type        : <0x258c>
    <2ab9>   DW_AT_location    : 2 byte block: 91 54 	(DW_OP_fbreg: -44)
 <2><2abc>: Abbrev Number: 36 (DW_TAG_variable)
    <2abd>   DW_AT_name        : (indirect string, offset: 0xb14): header
    <2ac1>   DW_AT_decl_file   : 1
    <2ac2>   DW_AT_decl_line   : 56
    <2ac3>   DW_AT_decl_column : 16
    <2ac4>   DW_AT_type        : <0x2c5c>
    <2ac8>   DW_AT_location    : 2 byte block: 91 50 	(DW_OP_fbreg: -48)
 <2><2acb>: Abbrev Number: 37 (DW_TAG_variable)
    <2acc>   DW_AT_name        : mem
    <2ad0>   DW_AT_decl_file   : 1
    <2ad1>   DW_AT_decl_line   : 88
    <2ad2>   DW_AT_decl_column : 11
    <2ad3>   DW_AT_type        : <0x23b8>
    <2ad7>   DW_AT_location    : 2 byte block: 91 4c 	(DW_OP_fbreg: -52)
 <2><2ada>: Abbrev Number: 36 (DW_TAG_variable)
    <2adb>   DW_AT_name        : (indirect string, offset: 0xae2): sections
    <2adf>   DW_AT_decl_file   : 1
    <2ae0>   DW_AT_decl_line   : 96
    <2ae1>   DW_AT_decl_column : 17
    <2ae2>   DW_AT_type        : <0x2c62>
    <2ae6>   DW_AT_location    : 2 byte block: 91 48 	(DW_OP_fbreg: -56)
 <2><2ae9>: Abbrev Number: 36 (DW_TAG_variable)
    <2aea>   DW_AT_name        : (indirect string, offset: 0xa64): section_number
    <2aee>   DW_AT_decl_file   : 1
    <2aef>   DW_AT_decl_line   : 97
    <2af0>   DW_AT_decl_column : 9
    <2af1>   DW_AT_type        : <0x21a7>
    <2af5>   DW_AT_location    : 2 byte block: 91 44 	(DW_OP_fbreg: -60)
 <2><2af8>: Abbrev Number: 36 (DW_TAG_variable)
    <2af9>   DW_AT_name        : (indirect string, offset: 0xa4a): sectionhdr_size
    <2afd>   DW_AT_decl_file   : 1
    <2afe>   DW_AT_decl_line   : 98
    <2aff>   DW_AT_decl_column : 9
    <2b00>   DW_AT_type        : <0x21a7>
    <2b04>   DW_AT_location    : 2 byte block: 91 40 	(DW_OP_fbreg: -64)
 <2><2b07>: Abbrev Number: 36 (DW_TAG_variable)
    <2b08>   DW_AT_name        : (indirect string, offset: 0x975): string_table
    <2b0c>   DW_AT_decl_file   : 1
    <2b0d>   DW_AT_decl_line   : 100
    <2b0e>   DW_AT_decl_column : 17
    <2b0f>   DW_AT_type        : <0x2c4a>
    <2b13>   DW_AT_location    : 2 byte block: 91 6c 	(DW_OP_fbreg: -20)
 <2><2b16>: Abbrev Number: 36 (DW_TAG_variable)
    <2b17>   DW_AT_name        : (indirect string, offset: 0xa2e): heap_address
    <2b1b>   DW_AT_decl_file   : 1
    <2b1c>   DW_AT_decl_line   : 109
    <2b1d>   DW_AT_decl_column : 9
    <2b1e>   DW_AT_type        : <0x21a7>
    <2b22>   DW_AT_location    : 2 byte block: 91 68 	(DW_OP_fbreg: -24)
 <2><2b25>: Abbrev Number: 36 (DW_TAG_variable)
    <2b26>   DW_AT_name        : (indirect string, offset: 0x446): stack_pages
    <2b2a>   DW_AT_decl_file   : 1
    <2b2b>   DW_AT_decl_line   : 162
    <2b2c>   DW_AT_decl_column : 9
    <2b2d>   DW_AT_type        : <0x21a7>
    <2b31>   DW_AT_location    : 3 byte block: 91 a4 7f 	(DW_OP_fbreg: -92)
 <2><2b35>: Abbrev Number: 36 (DW_TAG_variable)
    <2b36>   DW_AT_name        : (indirect string, offset: 0x411): stack_base_page
    <2b3a>   DW_AT_decl_file   : 1
    <2b3b>   DW_AT_decl_line   : 163
    <2b3c>   DW_AT_decl_column : 9
    <2b3d>   DW_AT_type        : <0x21a7>
    <2b41>   DW_AT_location    : 3 byte block: 91 a0 7f 	(DW_OP_fbreg: -96)
 <2><2b45>: Abbrev Number: 38 (DW_TAG_lexical_block)
    <2b46>   DW_AT_low_pc      : 0x10e55c
    <2b4a>   DW_AT_high_pc     : 0x31
    <2b4e>   DW_AT_sibling     : <0x2b63>
 <3><2b52>: Abbrev Number: 36 (DW_TAG_variable)
    <2b53>   DW_AT_name        : (indirect string, offset: 0x991): strsec
    <2b57>   DW_AT_decl_file   : 1
    <2b58>   DW_AT_decl_line   : 103
    <2b59>   DW_AT_decl_column : 21
    <2b5a>   DW_AT_type        : <0x2c62>
    <2b5e>   DW_AT_location    : 3 byte block: 91 bc 7f 	(DW_OP_fbreg: -68)
 <3><2b62>: Abbrev Number: 0
 <2><2b63>: Abbrev Number: 38 (DW_TAG_lexical_block)
    <2b64>   DW_AT_low_pc      : 0x10e594
    <2b68>   DW_AT_high_pc     : 0x1f3
    <2b6c>   DW_AT_sibling     : <0x2c32>
 <3><2b70>: Abbrev Number: 37 (DW_TAG_variable)
    <2b71>   DW_AT_name        : i
    <2b73>   DW_AT_decl_file   : 1
    <2b74>   DW_AT_decl_line   : 111
    <2b75>   DW_AT_decl_column : 14
    <2b76>   DW_AT_type        : <0x2174>
    <2b7a>   DW_AT_location    : 2 byte block: 91 64 	(DW_OP_fbreg: -28)
 <3><2b7d>: Abbrev Number: 39 (DW_TAG_lexical_block)
    <2b7e>   DW_AT_low_pc      : 0x10e5a7
    <2b82>   DW_AT_high_pc     : 0x1d7
 <4><2b86>: Abbrev Number: 36 (DW_TAG_variable)
    <2b87>   DW_AT_name        : (indirect string, offset: 0xa03): section
    <2b8b>   DW_AT_decl_file   : 1
    <2b8c>   DW_AT_decl_line   : 112
    <2b8d>   DW_AT_decl_column : 21
    <2b8e>   DW_AT_type        : <0x2c62>
    <2b92>   DW_AT_location    : 3 byte block: 91 b8 7f 	(DW_OP_fbreg: -72)
 <4><2b96>: Abbrev Number: 36 (DW_TAG_variable)
    <2b97>   DW_AT_name        : (indirect string, offset: 0x560): name
    <2b9b>   DW_AT_decl_file   : 1
    <2b9c>   DW_AT_decl_line   : 115
    <2b9d>   DW_AT_decl_column : 21
    <2b9e>   DW_AT_type        : <0x2c4a>
    <2ba2>   DW_AT_location    : 3 byte block: 91 b4 7f 	(DW_OP_fbreg: -76)
 <4><2ba6>: Abbrev Number: 36 (DW_TAG_variable)
    <2ba7>   DW_AT_name        : (indirect string, offset: 0xaba): flag_write
    <2bab>   DW_AT_decl_file   : 1
    <2bac>   DW_AT_decl_line   : 119
    <2bad>   DW_AT_decl_column : 12
    <2bae>   DW_AT_type        : <0x2182>
    <2bb2>   DW_AT_location    : 3 byte block: 91 b3 7f 	(DW_OP_fbreg: -77)
 <4><2bb6>: Abbrev Number: 36 (DW_TAG_variable)
    <2bb7>   DW_AT_name        : (indirect string, offset: 0x9f8): flag_alloc
    <2bbb>   DW_AT_decl_file   : 1
    <2bbc>   DW_AT_decl_line   : 120
    <2bbd>   DW_AT_decl_column : 12
    <2bbe>   DW_AT_type        : <0x2182>
    <2bc2>   DW_AT_location    : 3 byte block: 91 b2 7f 	(DW_OP_fbreg: -78)
 <4><2bc6>: Abbrev Number: 36 (DW_TAG_variable)
    <2bc7>   DW_AT_name        : (indirect string, offset: 0x946): flag_exec
    <2bcb>   DW_AT_decl_file   : 1
    <2bcc>   DW_AT_decl_line   : 121
    <2bcd>   DW_AT_decl_column : 12
    <2bce>   DW_AT_type        : <0x2182>
    <2bd2>   DW_AT_location    : 3 byte block: 91 b1 7f 	(DW_OP_fbreg: -79)
 <4><2bd6>: Abbrev Number: 39 (DW_TAG_lexical_block)
    <2bd7>   DW_AT_low_pc      : 0x10e61c
    <2bdb>   DW_AT_high_pc     : 0x161
 <5><2bdf>: Abbrev Number: 36 (DW_TAG_variable)
    <2be0>   DW_AT_name        : (indirect string, offset: 0xa28): paddr
    <2be4>   DW_AT_decl_file   : 1
    <2be5>   DW_AT_decl_line   : 124
    <2be6>   DW_AT_decl_column : 17
    <2be7>   DW_AT_type        : <0x21a7>
    <2beb>   DW_AT_location    : 3 byte block: 91 ac 7f 	(DW_OP_fbreg: -84)
 <5><2bef>: Abbrev Number: 36 (DW_TAG_variable)
    <2bf0>   DW_AT_name        : (indirect string, offset: 0xb23): plimit
    <2bf4>   DW_AT_decl_file   : 1
    <2bf5>   DW_AT_decl_line   : 125
    <2bf6>   DW_AT_decl_column : 17
    <2bf7>   DW_AT_type        : <0x21a7>
    <2bfb>   DW_AT_location    : 2 byte block: 91 60 	(DW_OP_fbreg: -32)
 <5><2bfe>: Abbrev Number: 39 (DW_TAG_lexical_block)
    <2bff>   DW_AT_low_pc      : 0x10e66c
    <2c03>   DW_AT_high_pc     : 0xc4
 <6><2c07>: Abbrev Number: 37 (DW_TAG_variable)
    <2c08>   DW_AT_name        : j
    <2c0a>   DW_AT_decl_file   : 1
    <2c0b>   DW_AT_decl_line   : 133
    <2c0c>   DW_AT_decl_column : 22
    <2c0d>   DW_AT_type        : <0x21a7>
    <2c11>   DW_AT_location    : 2 byte block: 91 5c 	(DW_OP_fbreg: -36)
 <6><2c14>: Abbrev Number: 39 (DW_TAG_lexical_block)
    <2c15>   DW_AT_low_pc      : 0x10e67e
    <2c19>   DW_AT_high_pc     : 0xa9
 <7><2c1d>: Abbrev Number: 36 (DW_TAG_variable)
    <2c1e>   DW_AT_name        : (indirect string, offset: 0x2cf): page
    <2c22>   DW_AT_decl_file   : 1
    <2c23>   DW_AT_decl_line   : 134
    <2c24>   DW_AT_decl_column : 28
    <2c25>   DW_AT_type        : <0x2c68>
    <2c29>   DW_AT_location    : 3 byte block: 91 a8 7f 	(DW_OP_fbreg: -88)
 <7><2c2d>: Abbrev Number: 0
 <6><2c2e>: Abbrev Number: 0
 <5><2c2f>: Abbrev Number: 0
 <4><2c30>: Abbrev Number: 0
 <3><2c31>: Abbrev Number: 0
 <2><2c32>: Abbrev Number: 39 (DW_TAG_lexical_block)
    <2c33>   DW_AT_low_pc      : 0x10e7bb
    <2c37>   DW_AT_high_pc     : 0x33
 <3><2c3b>: Abbrev Number: 37 (DW_TAG_variable)
    <2c3c>   DW_AT_name        : i
    <2c3e>   DW_AT_decl_file   : 1
    <2c3f>   DW_AT_decl_line   : 165
    <2c40>   DW_AT_decl_column : 14
    <2c41>   DW_AT_type        : <0x2174>
    <2c45>   DW_AT_location    : 2 byte block: 91 58 	(DW_OP_fbreg: -40)
 <3><2c48>: Abbrev Number: 0
 <2><2c49>: Abbrev Number: 0
 <1><2c4a>: Abbrev Number: 15 (DW_TAG_pointer_type)
    <2c4b>   DW_AT_byte_size   : 4
    <2c4c>   DW_AT_type        : <0x2168>
 <1><2c50>: Abbrev Number: 15 (DW_TAG_pointer_type)
    <2c51>   DW_AT_byte_size   : 4
    <2c52>   DW_AT_type        : <0x2796>
 <1><2c56>: Abbrev Number: 15 (DW_TAG_pointer_type)
    <2c57>   DW_AT_byte_size   : 4
    <2c58>   DW_AT_type        : <0x250b>
 <1><2c5c>: Abbrev Number: 15 (DW_TAG_pointer_type)
    <2c5d>   DW_AT_byte_size   : 4
    <2c5e>   DW_AT_type        : <0x28a6>
 <1><2c62>: Abbrev Number: 15 (DW_TAG_pointer_type)
    <2c63>   DW_AT_byte_size   : 4
    <2c64>   DW_AT_type        : <0x2942>
 <1><2c68>: Abbrev Number: 15 (DW_TAG_pointer_type)
    <2c69>   DW_AT_byte_size   : 4
    <2c6a>   DW_AT_type        : <0x229d>
 <1><2c6e>: Abbrev Number: 0

Contents of the .debug_abbrev section (loaded from iso/boot/kernel.bin):

  Number TAG (0x0)
   1      DW_TAG_compile_unit    [has children]
    DW_AT_producer     DW_FORM_strp
    DW_AT_language     DW_FORM_data1
    DW_AT_name         DW_FORM_strp
    DW_AT_comp_dir     DW_FORM_strp
    DW_AT_low_pc       DW_FORM_addr
    DW_AT_high_pc      DW_FORM_data4
    DW_AT_stmt_list    DW_FORM_sec_offset
    DW_AT value: 0     DW_FORM value: 0
   2      DW_TAG_base_type    [no children]
    DW_AT_byte_size    DW_FORM_data1
    DW_AT_encoding     DW_FORM_data1
    DW_AT_name         DW_FORM_strp
    DW_AT value: 0     DW_FORM value: 0
   3      DW_TAG_base_type    [no children]
    DW_AT_byte_size    DW_FORM_data1
    DW_AT_encoding     DW_FORM_data1
    DW_AT_name         DW_FORM_string
    DW_AT value: 0     DW_FORM value: 0
   4      DW_TAG_typedef    [no children]
    DW_AT_name         DW_FORM_string
    DW_AT_decl_file    DW_FORM_data1
    DW_AT_decl_line    DW_FORM_data1
    DW_AT_decl_column  DW_FORM_data1
    DW_AT_type         DW_FORM_ref4
    DW_AT value: 0     DW_FORM value: 0
   5      DW_TAG_structure_type    [has children]
    DW_AT_name         DW_FORM_strp
    DW_AT_byte_size    DW_FORM_data1
    DW_AT_decl_file    DW_FORM_data1
    DW_AT_decl_line    DW_FORM_data1
    DW_AT_decl_column  DW_FORM_data1
    DW_AT_sibling      DW_FORM_ref4
    DW_AT value: 0     DW_FORM value: 0
   6      DW_TAG_member    [no children]
    DW_AT_name         DW_FORM_strp
    DW_AT_decl_file    DW_FORM_data1
    DW_AT_decl_line    DW_FORM_data1
    DW_AT_decl_column  DW_FORM_data1
    DW_AT_type         DW_FORM_ref4
    DW_AT_byte_size    DW_FORM_data1
    DW_AT_bit_size     DW_FORM_data1
    DW_AT_bit_offset   DW_FORM_data1
    DW_AT_data_member_location DW_FORM_data1
    DW_AT value: 0     DW_FORM value: 0
   7      DW_TAG_member    [no children]
    DW_AT_name         DW_FORM_string
    DW_AT_decl_file    DW_FORM_data1
    DW_AT_decl_line    DW_FORM_data1
    DW_AT_decl_column  DW_FORM_data1
    DW_AT_type         DW_FORM_ref4
    DW_AT_byte_size    DW_FORM_data1
    DW_AT_bit_size     DW_FORM_data1
    DW_AT_bit_offset   DW_FORM_data1
    DW_AT_data_member_location DW_FORM_data1
    DW_AT value: 0     DW_FORM value: 0
   8      DW_TAG_typedef    [no children]
    DW_AT_name         DW_FORM_strp
    DW_AT_decl_file    DW_FORM_data1
    DW_AT_decl_line    DW_FORM_data1
    DW_AT_decl_column  DW_FORM_data1
    DW_AT_type         DW_FORM_ref4
    DW_AT value: 0     DW_FORM value: 0
   9      DW_TAG_structure_type    [has children]
    DW_AT_name         DW_FORM_strp
    DW_AT_byte_size    DW_FORM_data2
    DW_AT_decl_file    DW_FORM_data1
    DW_AT_decl_line    DW_FORM_data1
    DW_AT_decl_column  DW_FORM_data1
    DW_AT_sibling      DW_FORM_ref4
    DW_AT value: 0     DW_FORM value: 0
   10      DW_TAG_member    [no children]
    DW_AT_name         DW_FORM_strp
    DW_AT_decl_file    DW_FORM_data1
    DW_AT_decl_line    DW_FORM_data1
    DW_AT_decl_column  DW_FORM_data1
    DW_AT_type         DW_FORM_ref4
    DW_AT_data_member_location DW_FORM_data1
    DW_AT value: 0     DW_FORM value: 0
   11      DW_TAG_array_type    [has children]
    DW_AT_type         DW_FORM_ref4
    DW_AT_sibling      DW_FORM_ref4
    DW_AT value: 0     DW_FORM value: 0
   12      DW_TAG_subrange_type    [no children]
    DW_AT_type         DW_FORM_ref4
    DW_AT_upper_bound  DW_FORM_data2
    DW_AT value: 0     DW_FORM value: 0
   13      DW_TAG_variable    [no children]
    DW_AT_name         DW_FORM_strp
    DW_AT_decl_file    DW_FORM_data1
    DW_AT_decl_line    DW_FORM_data1
    DW_AT_decl_column  DW_FORM_data1
    DW_AT_type         DW_FORM_ref4
    DW_AT_external     DW_FORM_flag_present
    DW_AT_declaration  DW_FORM_flag_present
    DW_AT value: 0     DW_FORM value: 0
   14      DW_TAG_pointer_type    [no children]
    DW_AT_byte_size    DW_FORM_data1
    DW_AT_type         DW_FORM_ref4
    DW_AT value: 0     DW_FORM value: 0
   15      DW_TAG_structure_type    [has children]
    DW_AT_name         DW_FORM_string
    DW_AT_byte_size    DW_FORM_data1
    DW_AT_decl_file    DW_FORM_data1
    DW_AT_decl_line    DW_FORM_data1
    DW_AT_decl_column  DW_FORM_data1
    DW_AT_sibling      DW_FORM_ref4
    DW_AT value: 0     DW_FORM value: 0
   16      DW_TAG_variable    [no children]
    DW_AT_name         DW_FORM_strp
    DW_AT_decl_file    DW_FORM_data1
    DW_AT_decl_line    DW_FORM_data1
    DW_AT_decl_column  DW_FORM_data1
    DW_AT_type         DW_FORM_ref4
    DW_AT_external     DW_FORM_flag_present
    DW_AT_location     DW_FORM_exprloc
    DW_AT value: 0     DW_FORM value: 0
   17      DW_TAG_variable    [no children]
    DW_AT_specification DW_FORM_ref4
    DW_AT_decl_file    DW_FORM_data1
    DW_AT_decl_line    DW_FORM_data1
    DW_AT_decl_column  DW_FORM_data1
    DW_AT_location     DW_FORM_exprloc
    DW_AT value: 0     DW_FORM value: 0
   18      DW_TAG_subprogram    [has children]
    DW_AT_external     DW_FORM_flag_present
    DW_AT_name         DW_FORM_strp
    DW_AT_decl_file    DW_FORM_data1
    DW_AT_decl_line    DW_FORM_data2
    DW_AT_decl_column  DW_FORM_data1
    DW_AT_low_pc       DW_FORM_addr
    DW_AT_high_pc      DW_FORM_data4
    DW_AT_frame_base   DW_FORM_exprloc
    DW_AT_GNU_all_tail_call_sites DW_FORM_flag_present
    DW_AT_sibling      DW_FORM_ref4
    DW_AT value: 0     DW_FORM value: 0
   19      DW_TAG_lexical_block    [has children]
    DW_AT_low_pc       DW_FORM_addr
    DW_AT_high_pc      DW_FORM_data4
    DW_AT value: 0     DW_FORM value: 0
   20      DW_TAG_variable    [no children]
    DW_AT_name         DW_FORM_string
    DW_AT_decl_file    DW_FORM_data1
    DW_AT_decl_line    DW_FORM_data2
    DW_AT_decl_column  DW_FORM_data1
    DW_AT_type         DW_FORM_ref4
    DW_AT_location     DW_FORM_exprloc
    DW_AT value: 0     DW_FORM value: 0
   21      DW_TAG_subprogram    [has children]
    DW_AT_external     DW_FORM_flag_present
    DW_AT_name         DW_FORM_strp
    DW_AT_decl_file    DW_FORM_data1
    DW_AT_decl_line    DW_FORM_data2
    DW_AT_decl_column  DW_FORM_data1
    DW_AT_low_pc       DW_FORM_addr
    DW_AT_high_pc      DW_FORM_data4
    DW_AT_frame_base   DW_FORM_exprloc
    DW_AT_GNU_all_call_sites DW_FORM_flag_present
    DW_AT_sibling      DW_FORM_ref4
    DW_AT value: 0     DW_FORM value: 0
   22      DW_TAG_subprogram    [has children]
    DW_AT_external     DW_FORM_flag_present
    DW_AT_name         DW_FORM_strp
    DW_AT_decl_file    DW_FORM_data1
    DW_AT_decl_line    DW_FORM_data2
    DW_AT_decl_column  DW_FORM_data1
    DW_AT_prototyped   DW_FORM_flag_present
    DW_AT_low_pc       DW_FORM_addr
    DW_AT_high_pc      DW_FORM_data4
    DW_AT_frame_base   DW_FORM_exprloc
    DW_AT_GNU_all_call_sites DW_FORM_flag_present
    DW_AT_sibling      DW_FORM_ref4
    DW_AT value: 0     DW_FORM value: 0
   23      DW_TAG_formal_parameter    [no children]
    DW_AT_name         DW_FORM_strp
    DW_AT_decl_file    DW_FORM_data1
    DW_AT_decl_line    DW_FORM_data2
    DW_AT_decl_column  DW_FORM_data1
    DW_AT_type         DW_FORM_ref4
    DW_AT_location     DW_FORM_exprloc
    DW_AT value: 0     DW_FORM value: 0
   24      DW_TAG_subprogram    [has children]
    DW_AT_external     DW_FORM_flag_present
    DW_AT_name         DW_FORM_strp
    DW_AT_decl_file    DW_FORM_data1
    DW_AT_decl_line    DW_FORM_data1
    DW_AT_decl_column  DW_FORM_data1
    DW_AT_prototyped   DW_FORM_flag_present
    DW_AT_low_pc       DW_FORM_addr
    DW_AT_high_pc      DW_FORM_data4
    DW_AT_frame_base   DW_FORM_exprloc
    DW_AT_GNU_all_tail_call_sites DW_FORM_flag_present
    DW_AT_sibling      DW_FORM_ref4
    DW_AT value: 0     DW_FORM value: 0
   25      DW_TAG_formal_parameter    [no children]
    DW_AT_name         DW_FORM_strp
    DW_AT_decl_file    DW_FORM_data1
    DW_AT_decl_line    DW_FORM_data1
    DW_AT_decl_column  DW_FORM_data1
    DW_AT_type         DW_FORM_ref4
    DW_AT_location     DW_FORM_exprloc
    DW_AT value: 0     DW_FORM value: 0
   26      DW_TAG_lexical_block    [has children]
    DW_AT_low_pc       DW_FORM_addr
    DW_AT_high_pc      DW_FORM_data4
    DW_AT_sibling      DW_FORM_ref4
    DW_AT value: 0     DW_FORM value: 0
   27      DW_TAG_variable    [no children]
    DW_AT_name         DW_FORM_string
    DW_AT_decl_file    DW_FORM_data1
    DW_AT_decl_line    DW_FORM_data1
    DW_AT_decl_column  DW_FORM_data1
    DW_AT_type         DW_FORM_ref4
    DW_AT_location     DW_FORM_exprloc
    DW_AT value: 0     DW_FORM value: 0
   28      DW_TAG_variable    [no children]
    DW_AT_name         DW_FORM_strp
    DW_AT_decl_file    DW_FORM_data1
    DW_AT_decl_line    DW_FORM_data1
    DW_AT_decl_column  DW_FORM_data1
    DW_AT_type         DW_FORM_ref4
    DW_AT_location     DW_FORM_exprloc
    DW_AT value: 0     DW_FORM value: 0
   29      DW_TAG_subprogram    [has children]
    DW_AT_external     DW_FORM_flag_present
    DW_AT_name         DW_FORM_strp
    DW_AT_decl_file    DW_FORM_data1
    DW_AT_decl_line    DW_FORM_data1
    DW_AT_decl_column  DW_FORM_data1
    DW_AT_prototyped   DW_FORM_flag_present
    DW_AT_type         DW_FORM_ref4
    DW_AT_low_pc       DW_FORM_addr
    DW_AT_high_pc      DW_FORM_data4
    DW_AT_frame_base   DW_FORM_exprloc
    DW_AT_GNU_all_tail_call_sites DW_FORM_flag_present
    DW_AT_sibling      DW_FORM_ref4
    DW_AT value: 0     DW_FORM value: 0
   30      DW_TAG_subprogram    [has children]
    DW_AT_external     DW_FORM_flag_present
    DW_AT_name         DW_FORM_strp
    DW_AT_decl_file    DW_FORM_data1
    DW_AT_decl_line    DW_FORM_data1
    DW_AT_decl_column  DW_FORM_data1
    DW_AT_type         DW_FORM_ref4
    DW_AT_low_pc       DW_FORM_addr
    DW_AT_high_pc      DW_FORM_data4
    DW_AT_frame_base   DW_FORM_exprloc
    DW_AT_GNU_all_tail_call_sites DW_FORM_flag_present
    DW_AT_sibling      DW_FORM_ref4
    DW_AT value: 0     DW_FORM value: 0
   31      DW_TAG_formal_parameter    [no children]
    DW_AT_name         DW_FORM_string
    DW_AT_decl_file    DW_FORM_data1
    DW_AT_decl_line    DW_FORM_data1
    DW_AT_decl_column  DW_FORM_data1
    DW_AT_type         DW_FORM_ref4
    DW_AT_location     DW_FORM_exprloc
    DW_AT value: 0     DW_FORM value: 0
   32      DW_TAG_subprogram    [has children]
    DW_AT_external     DW_FORM_flag_present
    DW_AT_name         DW_FORM_strp
    DW_AT_decl_file    DW_FORM_data1
    DW_AT_decl_line    DW_FORM_data1
    DW_AT_decl_column  DW_FORM_data1
    DW_AT_prototyped   DW_FORM_flag_present
    DW_AT_low_pc       DW_FORM_addr
    DW_AT_high_pc      DW_FORM_data4
    DW_AT_frame_base   DW_FORM_exprloc
    DW_AT_GNU_all_call_sites DW_FORM_flag_present
    DW_AT_sibling      DW_FORM_ref4
    DW_AT value: 0     DW_FORM value: 0
   33      DW_TAG_subprogram    [has children]
    DW_AT_external     DW_FORM_flag_present
    DW_AT_name         DW_FORM_strp
    DW_AT_decl_file    DW_FORM_data1
    DW_AT_decl_line    DW_FORM_data1
    DW_AT_decl_column  DW_FORM_data1
    DW_AT_type         DW_FORM_ref4
    DW_AT_low_pc       DW_FORM_addr
    DW_AT_high_pc      DW_FORM_data4
    DW_AT_frame_base   DW_FORM_exprloc
    DW_AT_GNU_all_call_sites DW_FORM_flag_present
    DW_AT_sibling      DW_FORM_ref4
    DW_AT value: 0     DW_FORM value: 0
   34      DW_TAG_subprogram    [has children]
    DW_AT_external     DW_FORM_flag_present
    DW_AT_name         DW_FORM_strp
    DW_AT_decl_file    DW_FORM_data1
    DW_AT_decl_line    DW_FORM_data1
    DW_AT_decl_column  DW_FORM_data1
    DW_AT_type         DW_FORM_ref4
    DW_AT_declaration  DW_FORM_flag_present
    DW_AT_sibling      DW_FORM_ref4
    DW_AT value: 0     DW_FORM value: 0
   35      DW_TAG_unspecified_parameters    [no children]
    DW_AT value: 0     DW_FORM value: 0
   36      DW_TAG_lexical_block    [has children]
    DW_AT_ranges       DW_FORM_sec_offset
    DW_AT value: 0     DW_FORM value: 0
   37      DW_TAG_subprogram    [has children]
    DW_AT_external     DW_FORM_flag_present
    DW_AT_name         DW_FORM_strp
    DW_AT_decl_file    DW_FORM_data1
    DW_AT_decl_line    DW_FORM_data1
    DW_AT_decl_column  DW_FORM_data1
    DW_AT_prototyped   DW_FORM_flag_present
    DW_AT_type         DW_FORM_ref4
    DW_AT_low_pc       DW_FORM_addr
    DW_AT_high_pc      DW_FORM_data4
    DW_AT_frame_base   DW_FORM_exprloc
    DW_AT_GNU_all_call_sites DW_FORM_flag_present
    DW_AT_sibling      DW_FORM_ref4
    DW_AT value: 0     DW_FORM value: 0
   38      DW_TAG_subprogram    [no children]
    DW_AT_external     DW_FORM_flag_present
    DW_AT_name         DW_FORM_strp
    DW_AT_decl_file    DW_FORM_data1
    DW_AT_decl_line    DW_FORM_data1
    DW_AT_decl_column  DW_FORM_data1
    DW_AT_type         DW_FORM_ref4
    DW_AT_low_pc       DW_FORM_addr
    DW_AT_high_pc      DW_FORM_data4
    DW_AT_frame_base   DW_FORM_exprloc
    DW_AT_GNU_all_call_sites DW_FORM_flag_present
    DW_AT value: 0     DW_FORM value: 0
  Number TAG (0x2bb)
   1      DW_TAG_compile_unit    [has children]
    DW_AT_producer     DW_FORM_strp
    DW_AT_language     DW_FORM_data1
    DW_AT_name         DW_FORM_strp
    DW_AT_comp_dir     DW_FORM_strp
    DW_AT_low_pc       DW_FORM_addr
    DW_AT_high_pc      DW_FORM_data4
    DW_AT_stmt_list    DW_FORM_sec_offset
    DW_AT value: 0     DW_FORM value: 0
   2      DW_TAG_base_type    [no children]
    DW_AT_byte_size    DW_FORM_data1
    DW_AT_encoding     DW_FORM_data1
    DW_AT_name         DW_FORM_strp
    DW_AT value: 0     DW_FORM value: 0
   3      DW_TAG_const_type    [no children]
    DW_AT_type         DW_FORM_ref4
    DW_AT value: 0     DW_FORM value: 0
   4      DW_TAG_base_type    [no children]
    DW_AT_byte_size    DW_FORM_data1
    DW_AT_encoding     DW_FORM_data1
    DW_AT_name         DW_FORM_string
    DW_AT value: 0     DW_FORM value: 0
   5      DW_TAG_typedef    [no children]
    DW_AT_name         DW_FORM_string
    DW_AT_decl_file    DW_FORM_data1
    DW_AT_decl_line    DW_FORM_data1
    DW_AT_decl_column  DW_FORM_data1
    DW_AT_type         DW_FORM_ref4
    DW_AT value: 0     DW_FORM value: 0
   6      DW_TAG_structure_type    [has children]
    DW_AT_name         DW_FORM_string
    DW_AT_byte_size    DW_FORM_data1
    DW_AT_decl_file    DW_FORM_data1
    DW_AT_decl_line    DW_FORM_data1
    DW_AT_decl_column  DW_FORM_data1
    DW_AT_sibling      DW_FORM_ref4
    DW_AT value: 0     DW_FORM value: 0
   7      DW_TAG_member    [no children]
    DW_AT_name         DW_FORM_strp
    DW_AT_decl_file    DW_FORM_data1
    DW_AT_decl_line    DW_FORM_data1
    DW_AT_decl_column  DW_FORM_data1
    DW_AT_type         DW_FORM_ref4
    DW_AT_data_member_location DW_FORM_data1
    DW_AT value: 0     DW_FORM value: 0
   8      DW_TAG_pointer_type    [no children]
    DW_AT_byte_size    DW_FORM_data1
    DW_AT_type         DW_FORM_ref4
    DW_AT value: 0     DW_FORM value: 0
   9      DW_TAG_variable    [no children]
    DW_AT_name         DW_FORM_strp
    DW_AT_decl_file    DW_FORM_data1
    DW_AT_decl_line    DW_FORM_data1
    DW_AT_decl_column  DW_FORM_data1
    DW_AT_type         DW_FORM_ref4
    DW_AT_external     DW_FORM_flag_present
    DW_AT_declaration  DW_FORM_flag_present
    DW_AT value: 0     DW_FORM value: 0
   10      DW_TAG_structure_type    [has children]
    DW_AT_byte_size    DW_FORM_data1
    DW_AT_decl_file    DW_FORM_data1
    DW_AT_decl_line    DW_FORM_data1
    DW_AT_decl_column  DW_FORM_data1
    DW_AT_linkage_name DW_FORM_strp
    DW_AT_sibling      DW_FORM_ref4
    DW_AT value: 0     DW_FORM value: 0
   11      DW_TAG_member    [no children]
    DW_AT_name         DW_FORM_string
    DW_AT_decl_file    DW_FORM_data1
    DW_AT_decl_line    DW_FORM_data1
    DW_AT_decl_column  DW_FORM_data1
    DW_AT_type         DW_FORM_ref4
    DW_AT_data_member_location DW_FORM_data1
    DW_AT value: 0     DW_FORM value: 0
   12      DW_TAG_typedef    [no children]
    DW_AT_name         DW_FORM_strp
    DW_AT_decl_file    DW_FORM_data1
    DW_AT_decl_line    DW_FORM_data1
    DW_AT_decl_column  DW_FORM_data1
    DW_AT_type         DW_FORM_ref4
    DW_AT value: 0     DW_FORM value: 0
   13      DW_TAG_array_type    [has children]
    DW_AT_type         DW_FORM_ref4
    DW_AT_sibling      DW_FORM_ref4
    DW_AT value: 0     DW_FORM value: 0
   14      DW_TAG_subrange_type    [no children]
    DW_AT_type         DW_FORM_ref4
    DW_AT_upper_bound  DW_FORM_data1
    DW_AT value: 0     DW_FORM value: 0
   15      DW_TAG_variable    [no children]
    DW_AT_name         DW_FORM_string
    DW_AT_decl_file    DW_FORM_data1
    DW_AT_decl_line    DW_FORM_data1
    DW_AT_decl_column  DW_FORM_data1
    DW_AT_type         DW_FORM_ref4
    DW_AT_external     DW_FORM_flag_present
    DW_AT_location     DW_FORM_exprloc
    DW_AT value: 0     DW_FORM value: 0
   16      DW_TAG_variable    [no children]
    DW_AT_name         DW_FORM_strp
    DW_AT_decl_file    DW_FORM_data1
    DW_AT_decl_line    DW_FORM_data1
    DW_AT_decl_column  DW_FORM_data1
    DW_AT_type         DW_FORM_ref4
    DW_AT_external     DW_FORM_flag_present
    DW_AT_location     DW_FORM_exprloc
    DW_AT value: 0     DW_FORM value: 0
   17      DW_TAG_enumeration_type    [has children]
    DW_AT_encoding     DW_FORM_data1
    DW_AT_byte_size    DW_FORM_data1
    DW_AT_type         DW_FORM_ref4
    DW_AT_decl_file    DW_FORM_data1
    DW_AT_decl_line    DW_FORM_data1
    DW_AT_decl_column  DW_FORM_data1
    DW_AT_linkage_name DW_FORM_strp
    DW_AT_sibling      DW_FORM_ref4
    DW_AT value: 0     DW_FORM value: 0
   18      DW_TAG_enumerator    [no children]
    DW_AT_name         DW_FORM_strp
    DW_AT_const_value  DW_FORM_data1
    DW_AT value: 0     DW_FORM value: 0
   19      DW_TAG_structure_type    [has children]
    DW_AT_name         DW_FORM_strp
    DW_AT_byte_size    DW_FORM_data1
    DW_AT_decl_file    DW_FORM_data1
    DW_AT_decl_line    DW_FORM_data1
    DW_AT_decl_column  DW_FORM_data1
    DW_AT_sibling      DW_FORM_ref4
    DW_AT value: 0     DW_FORM value: 0
   20      DW_TAG_member    [no children]
    DW_AT_name         DW_FORM_strp
    DW_AT_decl_file    DW_FORM_data1
    DW_AT_decl_line    DW_FORM_data1
    DW_AT_decl_column  DW_FORM_data1
    DW_AT_type         DW_FORM_ref4
    DW_AT_byte_size    DW_FORM_data1
    DW_AT_bit_size     DW_FORM_data1
    DW_AT_bit_offset   DW_FORM_data1
    DW_AT_data_member_location DW_FORM_data1
    DW_AT value: 0     DW_FORM value: 0
   21      DW_TAG_member    [no children]
    DW_AT_name         DW_FORM_string
    DW_AT_decl_file    DW_FORM_data1
    DW_AT_decl_line    DW_FORM_data1
    DW_AT_decl_column  DW_FORM_data1
    DW_AT_type         DW_FORM_ref4
    DW_AT_byte_size    DW_FORM_data1
    DW_AT_bit_size     DW_FORM_data1
    DW_AT_bit_offset   DW_FORM_data1
    DW_AT_data_member_location DW_FORM_data1
    DW_AT value: 0     DW_FORM value: 0
   22      DW_TAG_structure_type    [has children]
    DW_AT_name         DW_FORM_strp
    DW_AT_byte_size    DW_FORM_data2
    DW_AT_decl_file    DW_FORM_data1
    DW_AT_decl_line    DW_FORM_data1
    DW_AT_decl_column  DW_FORM_data1
    DW_AT_sibling      DW_FORM_ref4
    DW_AT value: 0     DW_FORM value: 0
   23      DW_TAG_subrange_type    [no children]
    DW_AT_type         DW_FORM_ref4
    DW_AT_upper_bound  DW_FORM_data2
    DW_AT value: 0     DW_FORM value: 0
   24      DW_TAG_pointer_type    [no children]
    DW_AT_byte_size    DW_FORM_data1
    DW_AT value: 0     DW_FORM value: 0
   25      DW_TAG_namespace    [has children]
    DW_AT_name         DW_FORM_string
    DW_AT_decl_file    DW_FORM_data1
    DW_AT_decl_line    DW_FORM_data1
    DW_AT_decl_column  DW_FORM_data1
    DW_AT_sibling      DW_FORM_ref4
    DW_AT value: 0     DW_FORM value: 0
   26      DW_TAG_class_type    [no children]
    DW_AT_name         DW_FORM_strp
    DW_AT_declaration  DW_FORM_flag_present
    DW_AT value: 0     DW_FORM value: 0
   27      DW_TAG_imported_module    [no children]
    DW_AT_decl_file    DW_FORM_data1
    DW_AT_decl_line    DW_FORM_data1
    DW_AT_decl_column  DW_FORM_data1
    DW_AT_import       DW_FORM_ref4
    DW_AT value: 0     DW_FORM value: 0
   28      DW_TAG_subprogram    [has children]
    DW_AT_external     DW_FORM_flag_present
    DW_AT_name         DW_FORM_strp
    DW_AT_decl_file    DW_FORM_data1
    DW_AT_decl_line    DW_FORM_data1
    DW_AT_decl_column  DW_FORM_data1
    DW_AT_low_pc       DW_FORM_addr
    DW_AT_high_pc      DW_FORM_data4
    DW_AT_frame_base   DW_FORM_exprloc
    DW_AT_GNU_all_tail_call_sites DW_FORM_flag_present
    DW_AT_sibling      DW_FORM_ref4
    DW_AT value: 0     DW_FORM value: 0
   29      DW_TAG_formal_parameter    [no children]
    DW_AT_name         DW_FORM_strp
    DW_AT_decl_file    DW_FORM_data1
    DW_AT_decl_line    DW_FORM_data1
    DW_AT_decl_column  DW_FORM_data1
    DW_AT_type         DW_FORM_ref4
    DW_AT_location     DW_FORM_exprloc
    DW_AT value: 0     DW_FORM value: 0
   30      DW_TAG_variable    [no children]
    DW_AT_name         DW_FORM_string
    DW_AT_decl_file    DW_FORM_data1
    DW_AT_decl_line    DW_FORM_data1
    DW_AT_decl_column  DW_FORM_data1
    DW_AT_type         DW_FORM_ref4
    DW_AT_location     DW_FORM_exprloc
    DW_AT value: 0     DW_FORM value: 0
   31      DW_TAG_subprogram    [no children]
    DW_AT_external     DW_FORM_flag_present
    DW_AT_name         DW_FORM_strp
    DW_AT_decl_file    DW_FORM_data1
    DW_AT_decl_line    DW_FORM_data1
    DW_AT_decl_column  DW_FORM_data1
    DW_AT_low_pc       DW_FORM_addr
    DW_AT_high_pc      DW_FORM_data4
    DW_AT_frame_base   DW_FORM_exprloc
    DW_AT_GNU_all_tail_call_sites DW_FORM_flag_present
    DW_AT value: 0     DW_FORM value: 0
   32      DW_TAG_subprogram    [has children]
    DW_AT_external     DW_FORM_flag_present
    DW_AT_name         DW_FORM_strp
    DW_AT_decl_file    DW_FORM_data1
    DW_AT_decl_line    DW_FORM_data1
    DW_AT_decl_column  DW_FORM_data1
    DW_AT_low_pc       DW_FORM_addr
    DW_AT_high_pc      DW_FORM_data4
    DW_AT_frame_base   DW_FORM_exprloc
    DW_AT_GNU_all_tail_call_sites DW_FORM_flag_present
    DW_AT value: 0     DW_FORM value: 0
   33      DW_TAG_formal_parameter    [no children]
    DW_AT_name         DW_FORM_string
    DW_AT_decl_file    DW_FORM_data1
    DW_AT_decl_line    DW_FORM_data1
    DW_AT_decl_column  DW_FORM_data1
    DW_AT_type         DW_FORM_ref4
    DW_AT_location     DW_FORM_exprloc
    DW_AT value: 0     DW_FORM value: 0
  Number TAG (0x4c2)
   1      DW_TAG_compile_unit    [has children]
    DW_AT_producer     DW_FORM_strp
    DW_AT_language     DW_FORM_data1
    DW_AT_name         DW_FORM_strp
    DW_AT_comp_dir     DW_FORM_strp
    DW_AT_low_pc       DW_FORM_addr
    DW_AT_high_pc      DW_FORM_data4
    DW_AT_stmt_list    DW_FORM_sec_offset
    DW_AT value: 0     DW_FORM value: 0
   2      DW_TAG_base_type    [no children]
    DW_AT_byte_size    DW_FORM_data1
    DW_AT_encoding     DW_FORM_data1
    DW_AT_name         DW_FORM_strp
    DW_AT value: 0     DW_FORM value: 0
   3      DW_TAG_const_type    [no children]
    DW_AT_type         DW_FORM_ref4
    DW_AT value: 0     DW_FORM value: 0
   4      DW_TAG_base_type    [no children]
    DW_AT_byte_size    DW_FORM_data1
    DW_AT_encoding     DW_FORM_data1
    DW_AT_name         DW_FORM_string
    DW_AT value: 0     DW_FORM value: 0
   5      DW_TAG_typedef    [no children]
    DW_AT_name         DW_FORM_string
    DW_AT_decl_file    DW_FORM_data1
    DW_AT_decl_line    DW_FORM_data1
    DW_AT_decl_column  DW_FORM_data1
    DW_AT_type         DW_FORM_ref4
    DW_AT value: 0     DW_FORM value: 0
   6      DW_TAG_structure_type    [has children]
    DW_AT_name         DW_FORM_strp
    DW_AT_byte_size    DW_FORM_data1
    DW_AT_decl_file    DW_FORM_data1
    DW_AT_decl_line    DW_FORM_data1
    DW_AT_decl_column  DW_FORM_data1
    DW_AT_sibling      DW_FORM_ref4
    DW_AT value: 0     DW_FORM value: 0
   7      DW_TAG_member    [no children]
    DW_AT_name         DW_FORM_strp
    DW_AT_decl_file    DW_FORM_data1
    DW_AT_decl_line    DW_FORM_data1
    DW_AT_decl_column  DW_FORM_data1
    DW_AT_type         DW_FORM_ref4
    DW_AT_byte_size    DW_FORM_data1
    DW_AT_bit_size     DW_FORM_data1
    DW_AT_bit_offset   DW_FORM_data1
    DW_AT_data_member_location DW_FORM_data1
    DW_AT value: 0     DW_FORM value: 0
   8      DW_TAG_member    [no children]
    DW_AT_name         DW_FORM_string
    DW_AT_decl_file    DW_FORM_data1
    DW_AT_decl_line    DW_FORM_data1
    DW_AT_decl_column  DW_FORM_data1
    DW_AT_type         DW_FORM_ref4
    DW_AT_byte_size    DW_FORM_data1
    DW_AT_bit_size     DW_FORM_data1
    DW_AT_bit_offset   DW_FORM_data1
    DW_AT_data_member_location DW_FORM_data1
    DW_AT value: 0     DW_FORM value: 0
   9      DW_TAG_typedef    [no children]
    DW_AT_name         DW_FORM_strp
    DW_AT_decl_file    DW_FORM_data1
    DW_AT_decl_line    DW_FORM_data1
    DW_AT_decl_column  DW_FORM_data1
    DW_AT_type         DW_FORM_ref4
    DW_AT value: 0     DW_FORM value: 0
   10      DW_TAG_structure_type    [has children]
    DW_AT_name         DW_FORM_strp
    DW_AT_byte_size    DW_FORM_data2
    DW_AT_decl_file    DW_FORM_data1
    DW_AT_decl_line    DW_FORM_data1
    DW_AT_decl_column  DW_FORM_data1
    DW_AT_sibling      DW_FORM_ref4
    DW_AT value: 0     DW_FORM value: 0
   11      DW_TAG_member    [no children]
    DW_AT_name         DW_FORM_strp
    DW_AT_decl_file    DW_FORM_data1
    DW_AT_decl_line    DW_FORM_data1
    DW_AT_decl_column  DW_FORM_data1
    DW_AT_type         DW_FORM_ref4
    DW_AT_data_member_location DW_FORM_data1
    DW_AT value: 0     DW_FORM value: 0
   12      DW_TAG_array_type    [has children]
    DW_AT_type         DW_FORM_ref4
    DW_AT_sibling      DW_FORM_ref4
    DW_AT value: 0     DW_FORM value: 0
   13      DW_TAG_subrange_type    [no children]
    DW_AT_type         DW_FORM_ref4
    DW_AT_upper_bound  DW_FORM_data2
    DW_AT value: 0     DW_FORM value: 0
   14      DW_TAG_variable    [no children]
    DW_AT_name         DW_FORM_strp
    DW_AT_decl_file    DW_FORM_data1
    DW_AT_decl_line    DW_FORM_data1
    DW_AT_decl_column  DW_FORM_data1
    DW_AT_type         DW_FORM_ref4
    DW_AT_external     DW_FORM_flag_present
    DW_AT_declaration  DW_FORM_flag_present
    DW_AT value: 0     DW_FORM value: 0
   15      DW_TAG_pointer_type    [no children]
    DW_AT_byte_size    DW_FORM_data1
    DW_AT_type         DW_FORM_ref4
    DW_AT value: 0     DW_FORM value: 0
   16      DW_TAG_structure_type    [has children]
    DW_AT_byte_size    DW_FORM_data1
    DW_AT_decl_file    DW_FORM_data1
    DW_AT_decl_line    DW_FORM_data1
    DW_AT_decl_column  DW_FORM_data1
    DW_AT_linkage_name DW_FORM_strp
    DW_AT_sibling      DW_FORM_ref4
    DW_AT value: 0     DW_FORM value: 0
   17      DW_TAG_member    [no children]
    DW_AT_name         DW_FORM_string
    DW_AT_decl_file    DW_FORM_data1
    DW_AT_decl_line    DW_FORM_data1
    DW_AT_decl_column  DW_FORM_data1
    DW_AT_type         DW_FORM_ref4
    DW_AT_data_member_location DW_FORM_data1
    DW_AT value: 0     DW_FORM value: 0
   18      DW_TAG_enumeration_type    [has children]
    DW_AT_encoding     DW_FORM_data1
    DW_AT_byte_size    DW_FORM_data1
    DW_AT_type         DW_FORM_ref4
    DW_AT_decl_file    DW_FORM_data1
    DW_AT_decl_line    DW_FORM_data1
    DW_AT_decl_column  DW_FORM_data1
    DW_AT_linkage_name DW_FORM_strp
    DW_AT_sibling      DW_FORM_ref4
    DW_AT value: 0     DW_FORM value: 0
   19      DW_TAG_enumerator    [no children]
    DW_AT_name         DW_FORM_strp
    DW_AT_const_value  DW_FORM_data1
    DW_AT value: 0     DW_FORM value: 0
   20      DW_TAG_pointer_type    [no children]
    DW_AT_byte_size    DW_FORM_data1
    DW_AT value: 0     DW_FORM value: 0
   21      DW_TAG_structure_type    [has children]
    DW_AT_name         DW_FORM_string
    DW_AT_byte_size    DW_FORM_data1
    DW_AT_decl_file    DW_FORM_data1
    DW_AT_decl_line    DW_FORM_data1
    DW_AT_decl_column  DW_FORM_data1
    DW_AT_sibling      DW_FORM_ref4
    DW_AT value: 0     DW_FORM value: 0
   22      DW_TAG_variable    [no children]
    DW_AT_name         DW_FORM_strp
    DW_AT_decl_file    DW_FORM_data1
    DW_AT_decl_line    DW_FORM_data1
    DW_AT_decl_column  DW_FORM_data1
    DW_AT_type         DW_FORM_ref4
    DW_AT_external     DW_FORM_flag_present
    DW_AT_location     DW_FORM_exprloc
    DW_AT value: 0     DW_FORM value: 0
   23      DW_TAG_variable    [no children]
    DW_AT_specification DW_FORM_ref4
    DW_AT_decl_file    DW_FORM_data1
    DW_AT_decl_line    DW_FORM_data1
    DW_AT_decl_column  DW_FORM_data1
    DW_AT_location     DW_FORM_exprloc
    DW_AT value: 0     DW_FORM value: 0
   24      DW_TAG_subprogram    [has children]
    DW_AT_external     DW_FORM_flag_present
    DW_AT_name         DW_FORM_strp
    DW_AT_decl_file    DW_FORM_data1
    DW_AT_decl_line    DW_FORM_data2
    DW_AT_decl_column  DW_FORM_data1
    DW_AT_low_pc       DW_FORM_addr
    DW_AT_high_pc      DW_FORM_data4
    DW_AT_frame_base   DW_FORM_exprloc
    DW_AT_GNU_all_tail_call_sites DW_FORM_flag_present
    DW_AT_sibling      DW_FORM_ref4
    DW_AT value: 0     DW_FORM value: 0
   25      DW_TAG_formal_parameter    [no children]
    DW_AT_name         DW_FORM_strp
    DW_AT_decl_file    DW_FORM_data1
    DW_AT_decl_line    DW_FORM_data2
    DW_AT_decl_column  DW_FORM_data1
    DW_AT_type         DW_FORM_ref4
    DW_AT_location     DW_FORM_exprloc
    DW_AT value: 0     DW_FORM value: 0
   26      DW_TAG_subprogram    [has children]
    DW_AT_external     DW_FORM_flag_present
    DW_AT_name         DW_FORM_strp
    DW_AT_decl_file    DW_FORM_data1
    DW_AT_decl_line    DW_FORM_data2
    DW_AT_decl_column  DW_FORM_data1
    DW_AT_type         DW_FORM_ref4
    DW_AT_low_pc       DW_FORM_addr
    DW_AT_high_pc      DW_FORM_data4
    DW_AT_frame_base   DW_FORM_exprloc
    DW_AT_GNU_all_tail_call_sites DW_FORM_flag_present
    DW_AT_sibling      DW_FORM_ref4
    DW_AT value: 0     DW_FORM value: 0
   27      DW_TAG_variable    [no children]
    DW_AT_name         DW_FORM_strp
    DW_AT_decl_file    DW_FORM_data1
    DW_AT_decl_line    DW_FORM_data2
    DW_AT_decl_column  DW_FORM_data1
    DW_AT_type         DW_FORM_ref4
    DW_AT_location     DW_FORM_exprloc
    DW_AT value: 0     DW_FORM value: 0
   28      DW_TAG_lexical_block    [has children]
    DW_AT_low_pc       DW_FORM_addr
    DW_AT_high_pc      DW_FORM_data4
    DW_AT_sibling      DW_FORM_ref4
    DW_AT value: 0     DW_FORM value: 0
   29      DW_TAG_variable    [no children]
    DW_AT_name         DW_FORM_string
    DW_AT_decl_file    DW_FORM_data1
    DW_AT_decl_line    DW_FORM_data2
    DW_AT_decl_column  DW_FORM_data1
    DW_AT_type         DW_FORM_ref4
    DW_AT_location     DW_FORM_exprloc
    DW_AT value: 0     DW_FORM value: 0
   30      DW_TAG_lexical_block    [has children]
    DW_AT_low_pc       DW_FORM_addr
    DW_AT_high_pc      DW_FORM_data4
    DW_AT value: 0     DW_FORM value: 0
   31      DW_TAG_formal_parameter    [no children]
    DW_AT_name         DW_FORM_string
    DW_AT_decl_file    DW_FORM_data1
    DW_AT_decl_line    DW_FORM_data2
    DW_AT_decl_column  DW_FORM_data1
    DW_AT_type         DW_FORM_ref4
    DW_AT_location     DW_FORM_exprloc
    DW_AT value: 0     DW_FORM value: 0
   32      DW_TAG_subprogram    [has children]
    DW_AT_external     DW_FORM_flag_present
    DW_AT_name         DW_FORM_strp
    DW_AT_decl_file    DW_FORM_data1
    DW_AT_decl_line    DW_FORM_data1
    DW_AT_decl_column  DW_FORM_data1
    DW_AT_type         DW_FORM_ref4
    DW_AT_low_pc       DW_FORM_addr
    DW_AT_high_pc      DW_FORM_data4
    DW_AT_frame_base   DW_FORM_exprloc
    DW_AT_GNU_all_call_sites DW_FORM_flag_present
    DW_AT_sibling      DW_FORM_ref4
    DW_AT value: 0     DW_FORM value: 0
   33      DW_TAG_formal_parameter    [no children]
    DW_AT_name         DW_FORM_strp
    DW_AT_decl_file    DW_FORM_data1
    DW_AT_decl_line    DW_FORM_data1
    DW_AT_decl_column  DW_FORM_data1
    DW_AT_type         DW_FORM_ref4
    DW_AT_location     DW_FORM_exprloc
    DW_AT value: 0     DW_FORM value: 0
   34      DW_TAG_subprogram    [has children]
    DW_AT_external     DW_FORM_flag_present
    DW_AT_name         DW_FORM_strp
    DW_AT_decl_file    DW_FORM_data1
    DW_AT_decl_line    DW_FORM_data1
    DW_AT_decl_column  DW_FORM_data1
    DW_AT_type         DW_FORM_ref4
    DW_AT_low_pc       DW_FORM_addr
    DW_AT_high_pc      DW_FORM_data4
    DW_AT_frame_base   DW_FORM_exprloc
    DW_AT_GNU_all_tail_call_sites DW_FORM_flag_present
    DW_AT_sibling      DW_FORM_ref4
    DW_AT value: 0     DW_FORM value: 0
   35      DW_TAG_variable    [no children]
    DW_AT_name         DW_FORM_string
    DW_AT_decl_file    DW_FORM_data1
    DW_AT_decl_line    DW_FORM_data1
    DW_AT_decl_column  DW_FORM_data1
    DW_AT_type         DW_FORM_ref4
    DW_AT_location     DW_FORM_exprloc
    DW_AT value: 0     DW_FORM value: 0
   36      DW_TAG_variable    [no children]
    DW_AT_name         DW_FORM_strp
    DW_AT_decl_file    DW_FORM_data1
    DW_AT_decl_line    DW_FORM_data1
    DW_AT_decl_column  DW_FORM_data1
    DW_AT_type         DW_FORM_ref4
    DW_AT_location     DW_FORM_exprloc
    DW_AT value: 0     DW_FORM value: 0
   37      DW_TAG_lexical_block    [has children]
    DW_AT_ranges       DW_FORM_sec_offset
    DW_AT value: 0     DW_FORM value: 0
   38      DW_TAG_subprogram    [no children]
    DW_AT_external     DW_FORM_flag_present
    DW_AT_name         DW_FORM_strp
    DW_AT_decl_file    DW_FORM_data1
    DW_AT_decl_line    DW_FORM_data1
    DW_AT_decl_column  DW_FORM_data1
    DW_AT_low_pc       DW_FORM_addr
    DW_AT_high_pc      DW_FORM_data4
    DW_AT_frame_base   DW_FORM_exprloc
    DW_AT_GNU_all_tail_call_sites DW_FORM_flag_present
    DW_AT value: 0     DW_FORM value: 0
   39      DW_TAG_formal_parameter    [no children]
    DW_AT_name         DW_FORM_string
    DW_AT_decl_file    DW_FORM_data1
    DW_AT_decl_line    DW_FORM_data1
    DW_AT_decl_column  DW_FORM_data1
    DW_AT_type         DW_FORM_ref4
    DW_AT_location     DW_FORM_exprloc
    DW_AT value: 0     DW_FORM value: 0
   40      DW_TAG_subprogram    [has children]
    DW_AT_external     DW_FORM_flag_present
    DW_AT_name         DW_FORM_strp
    DW_AT_decl_file    DW_FORM_data1
    DW_AT_decl_line    DW_FORM_data1
    DW_AT_decl_column  DW_FORM_data1
    DW_AT_low_pc       DW_FORM_addr
    DW_AT_high_pc      DW_FORM_data4
    DW_AT_frame_base   DW_FORM_exprloc
    DW_AT_GNU_all_tail_call_sites DW_FORM_flag_present
    DW_AT_sibling      DW_FORM_ref4
    DW_AT value: 0     DW_FORM value: 0
   41      DW_TAG_subprogram    [no children]
    DW_AT_external     DW_FORM_flag_present
    DW_AT_name         DW_FORM_strp
    DW_AT_decl_file    DW_FORM_data1
    DW_AT_decl_line    DW_FORM_data1
    DW_AT_decl_column  DW_FORM_data1
    DW_AT_type         DW_FORM_ref4
    DW_AT_low_pc       DW_FORM_addr
    DW_AT_high_pc      DW_FORM_data4
    DW_AT_frame_base   DW_FORM_exprloc
    DW_AT_GNU_all_call_sites DW_FORM_flag_present
    DW_AT value: 0     DW_FORM value: 0
  Number TAG (0x777)
   1      DW_TAG_compile_unit    [has children]
    DW_AT_producer     DW_FORM_strp
    DW_AT_language     DW_FORM_data1
    DW_AT_name         DW_FORM_strp
    DW_AT_comp_dir     DW_FORM_strp
    DW_AT_low_pc       DW_FORM_addr
    DW_AT_high_pc      DW_FORM_data4
    DW_AT_stmt_list    DW_FORM_sec_offset
    DW_AT value: 0     DW_FORM value: 0
   2      DW_TAG_base_type    [no children]
    DW_AT_byte_size    DW_FORM_data1
    DW_AT_encoding     DW_FORM_data1
    DW_AT_name         DW_FORM_strp
    DW_AT value: 0     DW_FORM value: 0
   3      DW_TAG_const_type    [no children]
    DW_AT_type         DW_FORM_ref4
    DW_AT value: 0     DW_FORM value: 0
   4      DW_TAG_base_type    [no children]
    DW_AT_byte_size    DW_FORM_data1
    DW_AT_encoding     DW_FORM_data1
    DW_AT_name         DW_FORM_string
    DW_AT value: 0     DW_FORM value: 0
   5      DW_TAG_typedef    [no children]
    DW_AT_name         DW_FORM_string
    DW_AT_decl_file    DW_FORM_data1
    DW_AT_decl_line    DW_FORM_data1
    DW_AT_decl_column  DW_FORM_data1
    DW_AT_type         DW_FORM_ref4
    DW_AT value: 0     DW_FORM value: 0
   6      DW_TAG_structure_type    [has children]
    DW_AT_name         DW_FORM_strp
    DW_AT_byte_size    DW_FORM_data1
    DW_AT_decl_file    DW_FORM_data1
    DW_AT_decl_line    DW_FORM_data1
    DW_AT_decl_column  DW_FORM_data1
    DW_AT_sibling      DW_FORM_ref4
    DW_AT value: 0     DW_FORM value: 0
   7      DW_TAG_member    [no children]
    DW_AT_name         DW_FORM_strp
    DW_AT_decl_file    DW_FORM_data1
    DW_AT_decl_line    DW_FORM_data1
    DW_AT_decl_column  DW_FORM_data1
    DW_AT_type         DW_FORM_ref4
    DW_AT_byte_size    DW_FORM_data1
    DW_AT_bit_size     DW_FORM_data1
    DW_AT_bit_offset   DW_FORM_data1
    DW_AT_data_member_location DW_FORM_data1
    DW_AT value: 0     DW_FORM value: 0
   8      DW_TAG_member    [no children]
    DW_AT_name         DW_FORM_string
    DW_AT_decl_file    DW_FORM_data1
    DW_AT_decl_line    DW_FORM_data1
    DW_AT_decl_column  DW_FORM_data1
    DW_AT_type         DW_FORM_ref4
    DW_AT_byte_size    DW_FORM_data1
    DW_AT_bit_size     DW_FORM_data1
    DW_AT_bit_offset   DW_FORM_data1
    DW_AT_data_member_location DW_FORM_data1
    DW_AT value: 0     DW_FORM value: 0
   9      DW_TAG_typedef    [no children]
    DW_AT_name         DW_FORM_strp
    DW_AT_decl_file    DW_FORM_data1
    DW_AT_decl_line    DW_FORM_data1
    DW_AT_decl_column  DW_FORM_data1
    DW_AT_type         DW_FORM_ref4
    DW_AT value: 0     DW_FORM value: 0
   10      DW_TAG_structure_type    [has children]
    DW_AT_name         DW_FORM_strp
    DW_AT_byte_size    DW_FORM_data2
    DW_AT_decl_file    DW_FORM_data1
    DW_AT_decl_line    DW_FORM_data1
    DW_AT_decl_column  DW_FORM_data1
    DW_AT_sibling      DW_FORM_ref4
    DW_AT value: 0     DW_FORM value: 0
   11      DW_TAG_member    [no children]
    DW_AT_name         DW_FORM_strp
    DW_AT_decl_file    DW_FORM_data1
    DW_AT_decl_line    DW_FORM_data1
    DW_AT_decl_column  DW_FORM_data1
    DW_AT_type         DW_FORM_ref4
    DW_AT_data_member_location DW_FORM_data1
    DW_AT value: 0     DW_FORM value: 0
   12      DW_TAG_array_type    [has children]
    DW_AT_type         DW_FORM_ref4
    DW_AT_sibling      DW_FORM_ref4
    DW_AT value: 0     DW_FORM value: 0
   13      DW_TAG_subrange_type    [no children]
    DW_AT_type         DW_FORM_ref4
    DW_AT_upper_bound  DW_FORM_data2
    DW_AT value: 0     DW_FORM value: 0
   14      DW_TAG_variable    [no children]
    DW_AT_name         DW_FORM_strp
    DW_AT_decl_file    DW_FORM_data1
    DW_AT_decl_line    DW_FORM_data1
    DW_AT_decl_column  DW_FORM_data1
    DW_AT_type         DW_FORM_ref4
    DW_AT_external     DW_FORM_flag_present
    DW_AT_declaration  DW_FORM_flag_present
    DW_AT value: 0     DW_FORM value: 0
   15      DW_TAG_pointer_type    [no children]
    DW_AT_byte_size    DW_FORM_data1
    DW_AT_type         DW_FORM_ref4
    DW_AT value: 0     DW_FORM value: 0
   16      DW_TAG_structure_type    [has children]
    DW_AT_byte_size    DW_FORM_data1
    DW_AT_decl_file    DW_FORM_data1
    DW_AT_decl_line    DW_FORM_data1
    DW_AT_decl_column  DW_FORM_data1
    DW_AT_linkage_name DW_FORM_strp
    DW_AT_sibling      DW_FORM_ref4
    DW_AT value: 0     DW_FORM value: 0
   17      DW_TAG_member    [no children]
    DW_AT_name         DW_FORM_string
    DW_AT_decl_file    DW_FORM_data1
    DW_AT_decl_line    DW_FORM_data1
    DW_AT_decl_column  DW_FORM_data1
    DW_AT_type         DW_FORM_ref4
    DW_AT_data_member_location DW_FORM_data1
    DW_AT value: 0     DW_FORM value: 0
   18      DW_TAG_enumeration_type    [has children]
    DW_AT_encoding     DW_FORM_data1
    DW_AT_byte_size    DW_FORM_data1
    DW_AT_type         DW_FORM_ref4
    DW_AT_decl_file    DW_FORM_data1
    DW_AT_decl_line    DW_FORM_data1
    DW_AT_decl_column  DW_FORM_data1
    DW_AT_linkage_name DW_FORM_strp
    DW_AT_sibling      DW_FORM_ref4
    DW_AT value: 0     DW_FORM value: 0
   19      DW_TAG_enumerator    [no children]
    DW_AT_name         DW_FORM_strp
    DW_AT_const_value  DW_FORM_data1
    DW_AT value: 0     DW_FORM value: 0
   20      DW_TAG_pointer_type    [no children]
    DW_AT_byte_size    DW_FORM_data1
    DW_AT value: 0     DW_FORM value: 0
   21      DW_TAG_structure_type    [has children]
    DW_AT_name         DW_FORM_string
    DW_AT_byte_size    DW_FORM_data1
    DW_AT_decl_file    DW_FORM_data1
    DW_AT_decl_line    DW_FORM_data1
    DW_AT_decl_column  DW_FORM_data1
    DW_AT_sibling      DW_FORM_ref4
    DW_AT value: 0     DW_FORM value: 0
   22      DW_TAG_subrange_type    [no children]
    DW_AT_type         DW_FORM_ref4
    DW_AT_upper_bound  DW_FORM_data1
    DW_AT value: 0     DW_FORM value: 0
   23      DW_TAG_namespace    [has children]
    DW_AT_name         DW_FORM_string
    DW_AT_decl_file    DW_FORM_data1
    DW_AT_decl_line    DW_FORM_data1
    DW_AT_decl_column  DW_FORM_data1
    DW_AT_sibling      DW_FORM_ref4
    DW_AT value: 0     DW_FORM value: 0
   24      DW_TAG_class_type    [has children]
    DW_AT_name         DW_FORM_strp
    DW_AT_byte_size    DW_FORM_data1
    DW_AT_decl_file    DW_FORM_data1
    DW_AT_decl_line    DW_FORM_data1
    DW_AT_decl_column  DW_FORM_data1
    DW_AT_sibling      DW_FORM_ref4
    DW_AT value: 0     DW_FORM value: 0
   25      DW_TAG_subprogram    [has children]
    DW_AT_external     DW_FORM_flag_present
    DW_AT_name         DW_FORM_strp
    DW_AT_decl_file    DW_FORM_data1
    DW_AT_decl_line    DW_FORM_data1
    DW_AT_decl_column  DW_FORM_data1
    DW_AT_linkage_name DW_FORM_strp
    DW_AT_accessibility DW_FORM_data1
    DW_AT_declaration  DW_FORM_flag_present
    DW_AT_object_pointer DW_FORM_ref4
    DW_AT_sibling      DW_FORM_ref4
    DW_AT value: 0     DW_FORM value: 0
   26      DW_TAG_formal_parameter    [no children]
    DW_AT_type         DW_FORM_ref4
    DW_AT_artificial   DW_FORM_flag_present
    DW_AT value: 0     DW_FORM value: 0
   27      DW_TAG_formal_parameter    [no children]
    DW_AT_type         DW_FORM_ref4
    DW_AT value: 0     DW_FORM value: 0
   28      DW_TAG_subprogram    [no children]
    DW_AT_external     DW_FORM_flag_present
    DW_AT_name         DW_FORM_strp
    DW_AT_decl_file    DW_FORM_data1
    DW_AT_decl_line    DW_FORM_data1
    DW_AT_decl_column  DW_FORM_data1
    DW_AT_linkage_name DW_FORM_strp
    DW_AT_type         DW_FORM_ref4
    DW_AT_accessibility DW_FORM_data1
    DW_AT_declaration  DW_FORM_flag_present
    DW_AT value: 0     DW_FORM value: 0
   29      DW_TAG_subprogram    [has children]
    DW_AT_external     DW_FORM_flag_present
    DW_AT_name         DW_FORM_strp
    DW_AT_decl_file    DW_FORM_data1
    DW_AT_decl_line    DW_FORM_data1
    DW_AT_decl_column  DW_FORM_data1
    DW_AT_linkage_name DW_FORM_strp
    DW_AT_type         DW_FORM_ref4
    DW_AT_accessibility DW_FORM_data1
    DW_AT_declaration  DW_FORM_flag_present
    DW_AT_object_pointer DW_FORM_ref4
    DW_AT_sibling      DW_FORM_ref4
    DW_AT value: 0     DW_FORM value: 0
   30      DW_TAG_member    [no children]
    DW_AT_name         DW_FORM_strp
    DW_AT_decl_file    DW_FORM_data1
    DW_AT_decl_line    DW_FORM_data1
    DW_AT_decl_column  DW_FORM_data1
    DW_AT_type         DW_FORM_ref4
    DW_AT_data_member_location DW_FORM_data1
    DW_AT_accessibility DW_FORM_data1
    DW_AT value: 0     DW_FORM value: 0
   31      DW_TAG_member    [no children]
    DW_AT_name         DW_FORM_string
    DW_AT_decl_file    DW_FORM_data1
    DW_AT_decl_line    DW_FORM_data1
    DW_AT_decl_column  DW_FORM_data1
    DW_AT_type         DW_FORM_ref4
    DW_AT_data_member_location DW_FORM_data1
    DW_AT_accessibility DW_FORM_data1
    DW_AT value: 0     DW_FORM value: 0
   32      DW_TAG_class_type    [no children]
    DW_AT_name         DW_FORM_strp
    DW_AT_declaration  DW_FORM_flag_present
    DW_AT value: 0     DW_FORM value: 0
   33      DW_TAG_imported_module    [no children]
    DW_AT_decl_file    DW_FORM_data1
    DW_AT_decl_line    DW_FORM_data1
    DW_AT_decl_column  DW_FORM_data1
    DW_AT_import       DW_FORM_ref4
    DW_AT value: 0     DW_FORM value: 0
   34      DW_TAG_subprogram    [has children]
    DW_AT_external     DW_FORM_flag_present
    DW_AT_name         DW_FORM_strp
    DW_AT_decl_file    DW_FORM_data1
    DW_AT_decl_line    DW_FORM_data1
    DW_AT_decl_column  DW_FORM_data1
    DW_AT_type         DW_FORM_ref4
    DW_AT_low_pc       DW_FORM_addr
    DW_AT_high_pc      DW_FORM_data4
    DW_AT_frame_base   DW_FORM_exprloc
    DW_AT_GNU_all_tail_call_sites DW_FORM_flag_present
    DW_AT_sibling      DW_FORM_ref4
    DW_AT value: 0     DW_FORM value: 0
   35      DW_TAG_formal_parameter    [no children]
    DW_AT_name         DW_FORM_strp
    DW_AT_decl_file    DW_FORM_data1
    DW_AT_decl_line    DW_FORM_data1
    DW_AT_decl_column  DW_FORM_data1
    DW_AT_type         DW_FORM_ref4
    DW_AT_location     DW_FORM_exprloc
    DW_AT value: 0     DW_FORM value: 0
   36      DW_TAG_variable    [no children]
    DW_AT_name         DW_FORM_strp
    DW_AT_decl_file    DW_FORM_data1
    DW_AT_decl_line    DW_FORM_data1
    DW_AT_decl_column  DW_FORM_data1
    DW_AT_type         DW_FORM_ref4
    DW_AT_location     DW_FORM_exprloc
    DW_AT value: 0     DW_FORM value: 0
   37      DW_TAG_variable    [no children]
    DW_AT_name         DW_FORM_string
    DW_AT_decl_file    DW_FORM_data1
    DW_AT_decl_line    DW_FORM_data1
    DW_AT_decl_column  DW_FORM_data1
    DW_AT_type         DW_FORM_ref4
    DW_AT_location     DW_FORM_exprloc
    DW_AT value: 0     DW_FORM value: 0
   38      DW_TAG_lexical_block    [has children]
    DW_AT_low_pc       DW_FORM_addr
    DW_AT_high_pc      DW_FORM_data4
    DW_AT_sibling      DW_FORM_ref4
    DW_AT value: 0     DW_FORM value: 0
   39      DW_TAG_lexical_block    [has children]
    DW_AT_low_pc       DW_FORM_addr
    DW_AT_high_pc      DW_FORM_data4
    DW_AT value: 0     DW_FORM value: 0

Contents of the .debug_aranges section (loaded from iso/boot/kernel.bin):

  Length:                   28
  Version:                  2
  Offset into .debug_info:  0x0
  Pointer Size:             4
  Segment Size:             0

    Address    Length
    00104c33 00000a91 
    00000000 00000000 
  Length:                   28
  Version:                  2
  Offset into .debug_info:  0xb51
  Pointer Size:             4
  Segment Size:             0

    Address    Length
    0010affb 00000265 
    00000000 00000000 
  Length:                   28
  Version:                  2
  Offset into .debug_info:  0x12a3
  Pointer Size:             4
  Segment Size:             0

    Address    Length
    0010d61c 00000d04 
    00000000 00000000 
  Length:                   28
  Version:                  2
  Offset into .debug_info:  0x213c
  Pointer Size:             4
  Segment Size:             0

    Address    Length
    0010e320 00000517 
    00000000 00000000 

Contents of the .debug_ranges section (loaded from iso/boot/kernel.bin):

    Offset   Begin    End
    00000000 0010507c 001050a3 
    00000000 001050ba 001050bb 
    00000000 <End of list>
    00000018 0010dcf4 0010dd10 
    00000018 0010dd16 0010dd17 
    00000018 <End of list>

Raw dump of debug contents of section .debug_line (loaded from iso/boot/kernel.bin):

  Offset:                      0x0
  Length:                      1184
  DWARF Version:               3
  Prologue Length:             94
  Minimum Instruction Length:  1
  Initial value of 'is_stmt':  1
  Line Base:                   -5
  Line Range:                  14
  Opcode Base:                 13

 Opcodes:
  Opcode 1 has 0 args
  Opcode 2 has 1 arg
  Opcode 3 has 1 arg
  Opcode 4 has 1 arg
  Opcode 5 has 1 arg
  Opcode 6 has 0 args
  Opcode 7 has 0 args
  Opcode 8 has 0 args
  Opcode 9 has 1 arg
  Opcode 10 has 0 args
  Opcode 11 has 0 args
  Opcode 12 has 1 arg

 The Directory Table (offset 0x1b):
  1	src/kernel
  2	src/kernel/task

 The File Name Table (offset 0x37):
  Entry	Dir	Time	Size	Name
  1	1	0	0	vmem.c
  2	1	0	0	utils.h
  3	1	0	0	vmem.h
  4	2	0	0	fd.h
  5	1	0	0	vga.h

 Line Number Statements:
  [0x00000068]  Set column to 22
  [0x0000006a]  Extended opcode 2: set Address to 0x104c33
  [0x00000071]  Advance Line by 11 to 12
  [0x00000073]  Copy
  [0x00000074]  Set column to 12
  [0x00000076]  Special opcode 104: advance Address by 7 to 0x104c3a and Line by 1 to 13
  [0x00000077]  Set column to 1
  [0x00000079]  Special opcode 76: advance Address by 5 to 0x104c3f and Line by 1 to 14
  [0x0000007a]  Set column to 47
  [0x0000007c]  Special opcode 35: advance Address by 2 to 0x104c41 and Line by 2 to 16
  [0x0000007d]  Set column to 33
  [0x0000007f]  Special opcode 104: advance Address by 7 to 0x104c48 and Line by 1 to 17
  [0x00000080]  Set column to 1
  [0x00000082]  Special opcode 188: advance Address by 13 to 0x104c55 and Line by 1 to 18
  [0x00000083]  Set column to 52
  [0x00000085]  Special opcode 35: advance Address by 2 to 0x104c57 and Line by 2 to 20
  [0x00000086]  Set column to 47
  [0x00000088]  Special opcode 104: advance Address by 7 to 0x104c5e and Line by 1 to 21
  [0x00000089]  Set column to 54
  [0x0000008b]  Special opcode 173: advance Address by 12 to 0x104c6a and Line by 0 to 21
  [0x0000008c]  Set column to 1
  [0x0000008e]  Special opcode 48: advance Address by 3 to 0x104c6d and Line by 1 to 22
  [0x0000008f]  Set column to 54
  [0x00000091]  Special opcode 35: advance Address by 2 to 0x104c6f and Line by 2 to 24
  [0x00000092]  Set column to 32
  [0x00000094]  Special opcode 146: advance Address by 10 to 0x104c79 and Line by 1 to 25
  [0x00000095]  Set column to 9
  [0x00000097]  Special opcode 89: advance Address by 6 to 0x104c7f and Line by 0 to 25
  [0x00000098]  Special opcode 118: advance Address by 8 to 0x104c87 and Line by 1 to 26
  [0x00000099]  Set column to 10
  [0x0000009b]  Special opcode 133: advance Address by 9 to 0x104c90 and Line by 2 to 28
  [0x0000009c]  Set column to 8
  [0x0000009e]  Special opcode 215: advance Address by 15 to 0x104c9f and Line by 0 to 28
  [0x0000009f]  Set column to 16
  [0x000000a1]  Special opcode 62: advance Address by 4 to 0x104ca3 and Line by 1 to 29
  [0x000000a2]  Set column to 25
  [0x000000a4]  Special opcode 105: advance Address by 7 to 0x104caa and Line by 2 to 31
  [0x000000a5]  Set column to 34
  [0x000000a7]  Advance PC by constant 17 to 0x104cbb
  [0x000000a8]  Special opcode 20: advance Address by 1 to 0x104cbc and Line by 1 to 32
  [0x000000a9]  Set column to 71
  [0x000000ab]  Special opcode 187: advance Address by 13 to 0x104cc9 and Line by 0 to 32
  [0x000000ac]  Extended opcode 4: set Discriminator to 1
  [0x000000b0]  Set is_stmt to 0
  [0x000000b1]  Special opcode 61: advance Address by 4 to 0x104ccd and Line by 0 to 32
  [0x000000b2]  Extended opcode 4: set Discriminator to 2
  [0x000000b6]  Advance PC by constant 17 to 0x104cde
  [0x000000b7]  Special opcode 5: advance Address by 0 to 0x104cde and Line by 0 to 32
  [0x000000b8]  Set column to 1
  [0x000000ba]  Set is_stmt to 1
  [0x000000bb]  Special opcode 76: advance Address by 5 to 0x104ce3 and Line by 1 to 33
  [0x000000bc]  Set column to 31
  [0x000000be]  Special opcode 35: advance Address by 2 to 0x104ce5 and Line by 2 to 35
  [0x000000bf]  Set column to 25
  [0x000000c1]  Special opcode 146: advance Address by 10 to 0x104cef and Line by 1 to 36
  [0x000000c2]  Set column to 8
  [0x000000c4]  Advance PC by constant 17 to 0x104d00
  [0x000000c5]  Special opcode 34: advance Address by 2 to 0x104d02 and Line by 1 to 37
  [0x000000c6]  Set column to 28
  [0x000000c8]  Extended opcode 4: set Discriminator to 1
  [0x000000cc]  Special opcode 89: advance Address by 6 to 0x104d08 and Line by 0 to 37
  [0x000000cd]  Set column to 14
  [0x000000cf]  Special opcode 105: advance Address by 7 to 0x104d0f and Line by 2 to 39
  [0x000000d0]  Set column to 5
  [0x000000d2]  Special opcode 103: advance Address by 7 to 0x104d16 and Line by 0 to 39
  [0x000000d3]  Set column to 33
  [0x000000d5]  Extended opcode 4: set Discriminator to 3
  [0x000000d9]  Special opcode 34: advance Address by 2 to 0x104d18 and Line by 1 to 40
  [0x000000da]  Set column to 32
  [0x000000dc]  Extended opcode 4: set Discriminator to 3
  [0x000000e0]  Special opcode 228: advance Address by 16 to 0x104d28 and Line by -1 to 39
  [0x000000e1]  Set column to 5
  [0x000000e3]  Extended opcode 4: set Discriminator to 1
  [0x000000e7]  Special opcode 61: advance Address by 4 to 0x104d2c and Line by 0 to 39
  [0x000000e8]  Special opcode 135: advance Address by 9 to 0x104d35 and Line by 4 to 43
  [0x000000e9]  Set column to 12
  [0x000000eb]  Special opcode 218: advance Address by 15 to 0x104d44 and Line by 3 to 46
  [0x000000ec]  Set column to 1
  [0x000000ee]  Special opcode 48: advance Address by 3 to 0x104d47 and Line by 1 to 47
  [0x000000ef]  Set column to 58
  [0x000000f1]  Special opcode 35: advance Address by 2 to 0x104d49 and Line by 2 to 49
  [0x000000f2]  Set column to 8
  [0x000000f4]  Special opcode 118: advance Address by 8 to 0x104d51 and Line by 1 to 50
  [0x000000f5]  Set column to 39
  [0x000000f7]  Extended opcode 4: set Discriminator to 1
  [0x000000fb]  Special opcode 89: advance Address by 6 to 0x104d57 and Line by 0 to 50
  [0x000000fc]  Set column to 75
  [0x000000fe]  Special opcode 188: advance Address by 13 to 0x104d64 and Line by 1 to 51
  [0x000000ff]  Set column to 86
  [0x00000101]  Special opcode 47: advance Address by 3 to 0x104d67 and Line by 0 to 51
  [0x00000102]  Set column to 23
  [0x00000104]  Special opcode 145: advance Address by 10 to 0x104d71 and Line by 0 to 51
  [0x00000105]  Set column to 12
  [0x00000107]  Advance PC by 187 to 0x104e2c
  [0x0000010a]  Special opcode 6: advance Address by 0 to 0x104e2c and Line by 1 to 52
  [0x0000010b]  Set column to 1
  [0x0000010d]  Special opcode 76: advance Address by 5 to 0x104e31 and Line by 1 to 53
  [0x0000010e]  Set column to 42
  [0x00000110]  Special opcode 49: advance Address by 3 to 0x104e34 and Line by 2 to 55
  [0x00000111]  Set column to 9
  [0x00000113]  Special opcode 146: advance Address by 10 to 0x104e3e and Line by 1 to 56
  [0x00000114]  Set column to 8
  [0x00000116]  Special opcode 201: advance Address by 14 to 0x104e4c and Line by 0 to 56
  [0x00000117]  Set column to 46
  [0x00000119]  Extended opcode 4: set Discriminator to 1
  [0x0000011d]  Special opcode 61: advance Address by 4 to 0x104e50 and Line by 0 to 56
  [0x0000011e]  Set column to 5
  [0x00000120]  Special opcode 104: advance Address by 7 to 0x104e57 and Line by 1 to 57
  [0x00000121]  Set column to 25
  [0x00000123]  Special opcode 231: advance Address by 16 to 0x104e67 and Line by 2 to 59
  [0x00000124]  Set column to 8
  [0x00000126]  Special opcode 118: advance Address by 8 to 0x104e6f and Line by 1 to 60
  [0x00000127]  Set column to 28
  [0x00000129]  Extended opcode 4: set Discriminator to 1
  [0x0000012d]  Special opcode 89: advance Address by 6 to 0x104e75 and Line by 0 to 60
  [0x0000012e]  Set column to 12
  [0x00000130]  Special opcode 105: advance Address by 7 to 0x104e7c and Line by 2 to 62
  [0x00000131]  Set column to 1
  [0x00000133]  Advance PC by constant 17 to 0x104e8d
  [0x00000134]  Special opcode 48: advance Address by 3 to 0x104e90 and Line by 1 to 63
  [0x00000135]  Set column to 42
  [0x00000137]  Special opcode 35: advance Address by 2 to 0x104e92 and Line by 2 to 65
  [0x00000138]  Set column to 10
  [0x0000013a]  Special opcode 146: advance Address by 10 to 0x104e9c and Line by 1 to 66
  [0x0000013b]  Set column to 8
  [0x0000013d]  Special opcode 201: advance Address by 14 to 0x104eaa and Line by 0 to 66
  [0x0000013e]  Set column to 25
  [0x00000140]  Special opcode 63: advance Address by 4 to 0x104eae and Line by 2 to 68
  [0x00000141]  Set column to 5
  [0x00000143]  Advance PC by constant 17 to 0x104ebf
  [0x00000144]  Special opcode 6: advance Address by 0 to 0x104ebf and Line by 1 to 69
  [0x00000145]  Set column to 23
  [0x00000147]  Special opcode 203: advance Address by 14 to 0x104ecd and Line by 2 to 71
  [0x00000148]  Set column to 40
  [0x0000014a]  Special opcode 210: advance Address by 15 to 0x104edc and Line by -5 to 66
  [0x0000014b]  Set column to 1
  [0x0000014d]  Special opcode 25: advance Address by 1 to 0x104edd and Line by 6 to 72
  [0x0000014e]  Set column to 73
  [0x00000150]  Special opcode 35: advance Address by 2 to 0x104edf and Line by 2 to 74
  [0x00000151]  Set column to 27
  [0x00000153]  Special opcode 118: advance Address by 8 to 0x104ee7 and Line by 1 to 75
  [0x00000154]  Set column to 8
  [0x00000156]  Special opcode 187: advance Address by 13 to 0x104ef4 and Line by 0 to 75
  [0x00000157]  Set column to 44
  [0x00000159]  Extended opcode 4: set Discriminator to 1
  [0x0000015d]  Special opcode 61: advance Address by 4 to 0x104ef8 and Line by 0 to 75
  [0x0000015e]  Set column to 43
  [0x00000160]  Special opcode 147: advance Address by 10 to 0x104f02 and Line by 2 to 77
  [0x00000161]  Set column to 35
  [0x00000163]  Special opcode 89: advance Address by 6 to 0x104f08 and Line by 0 to 77
  [0x00000164]  Set column to 33
  [0x00000166]  Special opcode 75: advance Address by 5 to 0x104f0d and Line by 0 to 77
  [0x00000167]  Set column to 43
  [0x00000169]  Advance PC by constant 17 to 0x104f1e
  [0x0000016a]  Special opcode 90: advance Address by 6 to 0x104f24 and Line by 1 to 78
  [0x0000016b]  Set column to 35
  [0x0000016d]  Special opcode 89: advance Address by 6 to 0x104f2a and Line by 0 to 78
  [0x0000016e]  Set column to 33
  [0x00000170]  Special opcode 75: advance Address by 5 to 0x104f2f and Line by 0 to 78
  [0x00000171]  Set column to 43
  [0x00000173]  Advance PC by constant 17 to 0x104f40
  [0x00000174]  Special opcode 104: advance Address by 7 to 0x104f47 and Line by 1 to 79
  [0x00000175]  Set column to 35
  [0x00000177]  Special opcode 89: advance Address by 6 to 0x104f4d and Line by 0 to 79
  [0x00000178]  Set column to 33
  [0x0000017a]  Special opcode 75: advance Address by 5 to 0x104f52 and Line by 0 to 79
  [0x0000017b]  Set column to 41
  [0x0000017d]  Advance PC by constant 17 to 0x104f63
  [0x0000017e]  Special opcode 161: advance Address by 11 to 0x104f6e and Line by 2 to 81
  [0x0000017f]  Set column to 30
  [0x00000181]  Special opcode 187: advance Address by 13 to 0x104f7b and Line by 0 to 81
  [0x00000182]  Set column to 12
  [0x00000184]  Advance PC by constant 17 to 0x104f8c
  [0x00000185]  Special opcode 119: advance Address by 8 to 0x104f94 and Line by 2 to 83
  [0x00000186]  Set column to 1
  [0x00000188]  Special opcode 76: advance Address by 5 to 0x104f99 and Line by 1 to 84
  [0x00000189]  Set column to 70
  [0x0000018b]  Special opcode 49: advance Address by 3 to 0x104f9c and Line by 2 to 86
  [0x0000018c]  Set column to 32
  [0x0000018e]  Special opcode 146: advance Address by 10 to 0x104fa6 and Line by 1 to 87
  [0x0000018f]  Set column to 9
  [0x00000191]  Special opcode 89: advance Address by 6 to 0x104fac and Line by 0 to 87
  [0x00000192]  Special opcode 118: advance Address by 8 to 0x104fb4 and Line by 1 to 88
  [0x00000193]  Set column to 10
  [0x00000195]  Special opcode 133: advance Address by 9 to 0x104fbd and Line by 2 to 90
  [0x00000196]  Set column to 8
  [0x00000198]  Special opcode 215: advance Address by 15 to 0x104fcc and Line by 0 to 90
  [0x00000199]  Set column to 9
  [0x0000019b]  Special opcode 62: advance Address by 4 to 0x104fd0 and Line by 1 to 91
  [0x0000019c]  Set column to 25
  [0x0000019e]  Advance PC by constant 17 to 0x104fe1
  [0x0000019f]  Special opcode 21: advance Address by 1 to 0x104fe2 and Line by 2 to 93
  [0x000001a0]  Set column to 12
  [0x000001a2]  Advance PC by constant 17 to 0x104ff3
  [0x000001a3]  Special opcode 63: advance Address by 4 to 0x104ff7 and Line by 2 to 95
  [0x000001a4]  Set column to 1
  [0x000001a6]  Advance PC by constant 17 to 0x105008
  [0x000001a7]  Special opcode 62: advance Address by 4 to 0x10500c and Line by 1 to 96
  [0x000001a8]  Set column to 49
  [0x000001aa]  Special opcode 35: advance Address by 2 to 0x10500e and Line by 2 to 98
  [0x000001ab]  Set column to 32
  [0x000001ad]  Special opcode 146: advance Address by 10 to 0x105018 and Line by 1 to 99
  [0x000001ae]  Set column to 9
  [0x000001b0]  Special opcode 89: advance Address by 6 to 0x10501e and Line by 0 to 99
  [0x000001b1]  Special opcode 118: advance Address by 8 to 0x105026 and Line by 1 to 100
  [0x000001b2]  Set column to 10
  [0x000001b4]  Special opcode 133: advance Address by 9 to 0x10502f and Line by 2 to 102
  [0x000001b5]  Set column to 8
  [0x000001b7]  Special opcode 215: advance Address by 15 to 0x10503e and Line by 0 to 102
  [0x000001b8]  Set column to 25
  [0x000001ba]  Special opcode 64: advance Address by 4 to 0x105042 and Line by 3 to 105
  [0x000001bb]  Set column to 42
  [0x000001bd]  Advance PC by constant 17 to 0x105053
  [0x000001be]  Special opcode 21: advance Address by 1 to 0x105054 and Line by 2 to 107
  [0x000001bf]  Set column to 5
  [0x000001c1]  Special opcode 173: advance Address by 12 to 0x105060 and Line by 0 to 107
  [0x000001c2]  Set column to 28
  [0x000001c4]  Special opcode 217: advance Address by 15 to 0x10506f and Line by 2 to 109
  [0x000001c5]  Set column to 14
  [0x000001c7]  Special opcode 189: advance Address by 13 to 0x10507c and Line by 2 to 111
  [0x000001c8]  Set column to 5
  [0x000001ca]  Special opcode 103: advance Address by 7 to 0x105083 and Line by 0 to 111
  [0x000001cb]  Set column to 28
  [0x000001cd]  Special opcode 34: advance Address by 2 to 0x105085 and Line by 1 to 112
  [0x000001ce]  Set column to 12
  [0x000001d0]  Special opcode 187: advance Address by 13 to 0x105092 and Line by 0 to 112
  [0x000001d1]  Set column to 32
  [0x000001d3]  Extended opcode 4: set Discriminator to 2
  [0x000001d7]  Special opcode 60: advance Address by 4 to 0x105096 and Line by -1 to 111
  [0x000001d8]  Set column to 5
  [0x000001da]  Extended opcode 4: set Discriminator to 1
  [0x000001de]  Special opcode 61: advance Address by 4 to 0x10509a and Line by 0 to 111
  [0x000001df]  Special opcode 134: advance Address by 9 to 0x1050a3 and Line by 3 to 114
  [0x000001e0]  Set column to 9
  [0x000001e2]  Advance Line by -11 to 103
  [0x000001e4]  Advance PC by constant 17 to 0x1050b4
  [0x000001e5]  Special opcode 47: advance Address by 3 to 0x1050b7 and Line by 0 to 103
  [0x000001e6]  Set column to 38
  [0x000001e8]  Advance Line by 9 to 112
  [0x000001ea]  Special opcode 47: advance Address by 3 to 0x1050ba and Line by 0 to 112
  [0x000001eb]  Set column to 1
  [0x000001ed]  Special opcode 22: advance Address by 1 to 0x1050bb and Line by 3 to 115
  [0x000001ee]  Set column to 23
  [0x000001f0]  Special opcode 35: advance Address by 2 to 0x1050bd and Line by 2 to 117
  [0x000001f1]  Set column to 14
  [0x000001f3]  Special opcode 160: advance Address by 11 to 0x1050c8 and Line by 1 to 118
  [0x000001f4]  Set column to 5
  [0x000001f6]  Special opcode 103: advance Address by 7 to 0x1050cf and Line by 0 to 118
  [0x000001f7]  Set column to 22
  [0x000001f9]  Special opcode 76: advance Address by 5 to 0x1050d4 and Line by 1 to 119
  [0x000001fa]  Set column to 13
  [0x000001fc]  Special opcode 201: advance Address by 14 to 0x1050e2 and Line by 0 to 119
  [0x000001fd]  Set column to 22
  [0x000001ff]  Special opcode 48: advance Address by 3 to 0x1050e5 and Line by 1 to 120
  [0x00000200]  Set column to 13
  [0x00000202]  Special opcode 201: advance Address by 14 to 0x1050f3 and Line by 0 to 120
  [0x00000203]  Set column to 31
  [0x00000205]  Special opcode 49: advance Address by 3 to 0x1050f6 and Line by 2 to 122
  [0x00000206]  Set column to 43
  [0x00000208]  Special opcode 229: advance Address by 16 to 0x105106 and Line by 0 to 122
  [0x00000209]  Set column to 38
  [0x0000020b]  Special opcode 201: advance Address by 14 to 0x105114 and Line by 0 to 122
  [0x0000020c]  Set column to 12
  [0x0000020e]  Special opcode 33: advance Address by 2 to 0x105116 and Line by 0 to 122
  [0x0000020f]  Special opcode 49: advance Address by 3 to 0x105119 and Line by 2 to 124
  [0x00000210]  Set column to 31
  [0x00000212]  Special opcode 90: advance Address by 6 to 0x10511f and Line by 1 to 125
  [0x00000213]  Set column to 36
  [0x00000215]  Special opcode 229: advance Address by 16 to 0x10512f and Line by 0 to 125
  [0x00000216]  Set column to 31
  [0x00000218]  Special opcode 201: advance Address by 14 to 0x10513d and Line by 0 to 125
  [0x00000219]  Set column to 23
  [0x0000021b]  Advance PC by constant 17 to 0x10514e
  [0x0000021c]  Special opcode 35: advance Address by 2 to 0x105150 and Line by 2 to 127
  [0x0000021d]  Set column to 44
  [0x0000021f]  Special opcode 117: advance Address by 8 to 0x105158 and Line by 0 to 127
  [0x00000220]  Extended opcode 4: set Discriminator to 2
  [0x00000224]  Advance Line by -9 to 118
  [0x00000226]  Special opcode 75: advance Address by 5 to 0x10515d and Line by 0 to 118
  [0x00000227]  Set column to 23
  [0x00000229]  Extended opcode 4: set Discriminator to 1
  [0x0000022d]  Special opcode 61: advance Address by 4 to 0x105161 and Line by 0 to 118
  [0x0000022e]  Set column to 5
  [0x00000230]  Extended opcode 4: set Discriminator to 1
  [0x00000234]  Special opcode 117: advance Address by 8 to 0x105169 and Line by 0 to 118
  [0x00000235]  Set column to 12
  [0x00000237]  Advance Line by 13 to 131
  [0x00000239]  Special opcode 117: advance Address by 8 to 0x105171 and Line by 0 to 131
  [0x0000023a]  Set column to 1
  [0x0000023c]  Special opcode 76: advance Address by 5 to 0x105176 and Line by 1 to 132
  [0x0000023d]  Set column to 32
  [0x0000023f]  Special opcode 91: advance Address by 6 to 0x10517c and Line by 2 to 134
  [0x00000240]  Set column to 23
  [0x00000242]  Special opcode 174: advance Address by 12 to 0x105188 and Line by 1 to 135
  [0x00000243]  Set column to 9
  [0x00000245]  Special opcode 89: advance Address by 6 to 0x10518e and Line by 0 to 135
  [0x00000246]  Set column to 27
  [0x00000248]  Special opcode 118: advance Address by 8 to 0x105196 and Line by 1 to 136
  [0x00000249]  Set column to 22
  [0x0000024b]  Special opcode 89: advance Address by 6 to 0x10519c and Line by 0 to 136
  [0x0000024c]  Set column to 27
  [0x0000024e]  Special opcode 89: advance Address by 6 to 0x1051a2 and Line by 0 to 136
  [0x0000024f]  Set column to 43
  [0x00000251]  Special opcode 103: advance Address by 7 to 0x1051a9 and Line by 0 to 136
  [0x00000252]  Set column to 34
  [0x00000254]  Special opcode 89: advance Address by 6 to 0x1051af and Line by 0 to 136
  [0x00000255]  Set column to 27
  [0x00000257]  Special opcode 159: advance Address by 11 to 0x1051ba and Line by 0 to 136
  [0x00000258]  Set column to 5
  [0x0000025a]  Advance PC by constant 17 to 0x1051cb
  [0x0000025b]  Special opcode 21: advance Address by 1 to 0x1051cc and Line by 2 to 138
  [0x0000025c]  Set column to 1
  [0x0000025e]  Special opcode 20: advance Address by 1 to 0x1051cd and Line by 1 to 139
  [0x0000025f]  Set column to 58
  [0x00000261]  Special opcode 105: advance Address by 7 to 0x1051d4 and Line by 2 to 141
  [0x00000262]  Set column to 20
  [0x00000264]  Special opcode 146: advance Address by 10 to 0x1051de and Line by 1 to 142
  [0x00000265]  Set column to 8
  [0x00000267]  Special opcode 118: advance Address by 8 to 0x1051e6 and Line by 1 to 143
  [0x00000268]  Set column to 31
  [0x0000026a]  Extended opcode 4: set Discriminator to 1
  [0x0000026e]  Special opcode 89: advance Address by 6 to 0x1051ec and Line by 0 to 143
  [0x0000026f]  Set column to 5
  [0x00000271]  Special opcode 105: advance Address by 7 to 0x1051f3 and Line by 2 to 145
  [0x00000272]  Set column to 12
  [0x00000274]  Advance PC by constant 17 to 0x105204
  [0x00000275]  Special opcode 49: advance Address by 3 to 0x105207 and Line by 2 to 147
  [0x00000276]  Set column to 1
  [0x00000278]  Special opcode 76: advance Address by 5 to 0x10520c and Line by 1 to 148
  [0x00000279]  Set column to 35
  [0x0000027b]  Special opcode 35: advance Address by 2 to 0x10520e and Line by 2 to 150
  [0x0000027c]  Set column to 9
  [0x0000027e]  Special opcode 146: advance Address by 10 to 0x105218 and Line by 1 to 151
  [0x0000027f]  Set column to 22
  [0x00000281]  Special opcode 160: advance Address by 11 to 0x105223 and Line by 1 to 152
  [0x00000282]  Set column to 39
  [0x00000284]  Special opcode 119: advance Address by 8 to 0x10522b and Line by 2 to 154
  [0x00000285]  Set column to 9
  [0x00000287]  Special opcode 117: advance Address by 8 to 0x105233 and Line by 0 to 154
  [0x00000288]  Set column to 19
  [0x0000028a]  Special opcode 90: advance Address by 6 to 0x105239 and Line by 1 to 155
  [0x0000028b]  Set column to 17
  [0x0000028d]  Special opcode 201: advance Address by 14 to 0x105247 and Line by 0 to 155
  [0x0000028e]  Set column to 21
  [0x00000290]  Special opcode 77: advance Address by 5 to 0x10524c and Line by 2 to 157
  [0x00000291]  Set column to 8
  [0x00000293]  Special opcode 75: advance Address by 5 to 0x105251 and Line by 0 to 157
  [0x00000294]  Set column to 34
  [0x00000296]  Extended opcode 4: set Discriminator to 1
  [0x0000029a]  Special opcode 61: advance Address by 4 to 0x105255 and Line by 0 to 157
  [0x0000029b]  Set column to 5
  [0x0000029d]  Special opcode 105: advance Address by 7 to 0x10525c and Line by 2 to 159
  [0x0000029e]  Set column to 12
  [0x000002a0]  Advance PC by constant 17 to 0x10526d
  [0x000002a1]  Special opcode 76: advance Address by 5 to 0x105272 and Line by 1 to 160
  [0x000002a2]  Set column to 1
  [0x000002a4]  Special opcode 76: advance Address by 5 to 0x105277 and Line by 1 to 161
  [0x000002a5]  Set column to 27
  [0x000002a7]  Special opcode 35: advance Address by 2 to 0x105279 and Line by 2 to 163
  [0x000002a8]  Set column to 20
  [0x000002aa]  Special opcode 146: advance Address by 10 to 0x105283 and Line by 1 to 164
  [0x000002ab]  Set column to 8
  [0x000002ad]  Advance PC by constant 17 to 0x105294
  [0x000002ae]  Special opcode 34: advance Address by 2 to 0x105296 and Line by 1 to 165
  [0x000002af]  Set column to 29
  [0x000002b1]  Extended opcode 4: set Discriminator to 1
  [0x000002b5]  Special opcode 89: advance Address by 6 to 0x10529c and Line by 0 to 165
  [0x000002b6]  Set column to 5
  [0x000002b8]  Special opcode 105: advance Address by 7 to 0x1052a3 and Line by 2 to 167
  [0x000002b9]  Set column to 12
  [0x000002bb]  Advance PC by constant 17 to 0x1052b4
  [0x000002bc]  Special opcode 62: advance Address by 4 to 0x1052b8 and Line by 1 to 168
  [0x000002bd]  Set column to 1
  [0x000002bf]  Special opcode 48: advance Address by 3 to 0x1052bb and Line by 1 to 169
  [0x000002c0]  Set column to 47
  [0x000002c2]  Special opcode 35: advance Address by 2 to 0x1052bd and Line by 2 to 171
  [0x000002c3]  Set column to 24
  [0x000002c5]  Special opcode 146: advance Address by 10 to 0x1052c7 and Line by 1 to 172
  [0x000002c6]  Set column to 8
  [0x000002c8]  Special opcode 187: advance Address by 13 to 0x1052d4 and Line by 0 to 172
  [0x000002c9]  Set column to 41
  [0x000002cb]  Extended opcode 4: set Discriminator to 1
  [0x000002cf]  Special opcode 61: advance Address by 4 to 0x1052d8 and Line by 0 to 172
  [0x000002d0]  Set column to 25
  [0x000002d2]  Special opcode 105: advance Address by 7 to 0x1052df and Line by 2 to 174
  [0x000002d3]  Set column to 8
  [0x000002d5]  Special opcode 118: advance Address by 8 to 0x1052e7 and Line by 1 to 175
  [0x000002d6]  Set column to 28
  [0x000002d8]  Extended opcode 4: set Discriminator to 1
  [0x000002dc]  Special opcode 89: advance Address by 6 to 0x1052ed and Line by 0 to 175
  [0x000002dd]  Set column to 41
  [0x000002df]  Special opcode 105: advance Address by 7 to 0x1052f4 and Line by 2 to 177
  [0x000002e0]  Set column to 48
  [0x000002e2]  Special opcode 173: advance Address by 12 to 0x105300 and Line by 0 to 177
  [0x000002e3]  Set column to 5
  [0x000002e5]  Special opcode 47: advance Address by 3 to 0x105303 and Line by 0 to 177
  [0x000002e6]  Set column to 12
  [0x000002e8]  Advance PC by constant 17 to 0x105314
  [0x000002e9]  Special opcode 48: advance Address by 3 to 0x105317 and Line by 1 to 178
  [0x000002ea]  Set column to 1
  [0x000002ec]  Special opcode 48: advance Address by 3 to 0x10531a and Line by 1 to 179
  [0x000002ed]  Set column to 35
  [0x000002ef]  Special opcode 35: advance Address by 2 to 0x10531c and Line by 2 to 181
  [0x000002f0]  Set column to 20
  [0x000002f2]  Special opcode 146: advance Address by 10 to 0x105326 and Line by 1 to 182
  [0x000002f3]  Set column to 14
  [0x000002f5]  Special opcode 119: advance Address by 8 to 0x10532e and Line by 2 to 184
  [0x000002f6]  Set column to 5
  [0x000002f8]  Special opcode 103: advance Address by 7 to 0x105335 and Line by 0 to 184
  [0x000002f9]  Set column to 9
  [0x000002fb]  Extended opcode 4: set Discriminator to 3
  [0x000002ff]  Special opcode 34: advance Address by 2 to 0x105337 and Line by 1 to 185
  [0x00000300]  Set column to 32
  [0x00000302]  Extended opcode 4: set Discriminator to 3
  [0x00000306]  Advance PC by 35 to 0x10535a
  [0x00000308]  Special opcode 4: advance Address by 0 to 0x10535a and Line by -1 to 184
  [0x00000309]  Set column to 5
  [0x0000030b]  Extended opcode 4: set Discriminator to 1
  [0x0000030f]  Special opcode 61: advance Address by 4 to 0x10535e and Line by 0 to 184
  [0x00000310]  Set column to 12
  [0x00000312]  Special opcode 134: advance Address by 9 to 0x105367 and Line by 3 to 187
  [0x00000313]  Set column to 1
  [0x00000315]  Special opcode 48: advance Address by 3 to 0x10536a and Line by 1 to 188
  [0x00000316]  Set column to 41
  [0x00000318]  Special opcode 35: advance Address by 2 to 0x10536c and Line by 2 to 190
  [0x00000319]  Set column to 20
  [0x0000031b]  Special opcode 146: advance Address by 10 to 0x105376 and Line by 1 to 191
  [0x0000031c]  Set column to 5
  [0x0000031e]  Special opcode 119: advance Address by 8 to 0x10537e and Line by 2 to 193
  [0x0000031f]  Set column to 12
  [0x00000321]  Advance PC by constant 17 to 0x10538f
  [0x00000322]  Special opcode 76: advance Address by 5 to 0x105394 and Line by 1 to 194
  [0x00000323]  Set column to 1
  [0x00000325]  Special opcode 48: advance Address by 3 to 0x105397 and Line by 1 to 195
  [0x00000326]  Set column to 32
  [0x00000328]  Special opcode 35: advance Address by 2 to 0x105399 and Line by 2 to 197
  [0x00000329]  Set column to 5
  [0x0000032b]  Special opcode 146: advance Address by 10 to 0x1053a3 and Line by 1 to 198
  [0x0000032c]  Set column to 20
  [0x0000032e]  Special opcode 230: advance Address by 16 to 0x1053b3 and Line by 1 to 199
  [0x0000032f]  Set column to 5
  [0x00000331]  Advance PC by constant 17 to 0x1053c4
  [0x00000332]  Special opcode 48: advance Address by 3 to 0x1053c7 and Line by 1 to 200
  [0x00000333]  Special opcode 231: advance Address by 16 to 0x1053d7 and Line by 2 to 202
  [0x00000334]  Set column to 12
  [0x00000336]  Special opcode 231: advance Address by 16 to 0x1053e7 and Line by 2 to 204
  [0x00000337]  Set column to 1
  [0x00000339]  Special opcode 48: advance Address by 3 to 0x1053ea and Line by 1 to 205
  [0x0000033a]  Set column to 60
  [0x0000033c]  Special opcode 35: advance Address by 2 to 0x1053ec and Line by 2 to 207
  [0x0000033d]  Set column to 23
  [0x0000033f]  Special opcode 146: advance Address by 10 to 0x1053f6 and Line by 1 to 208
  [0x00000340]  Set column to 8
  [0x00000342]  Special opcode 75: advance Address by 5 to 0x1053fb and Line by 0 to 208
  [0x00000343]  Set column to 36
  [0x00000345]  Extended opcode 4: set Discriminator to 1
  [0x00000349]  Special opcode 61: advance Address by 4 to 0x1053ff and Line by 0 to 208
  [0x0000034a]  Set column to 20
  [0x0000034c]  Special opcode 147: advance Address by 10 to 0x105409 and Line by 2 to 210
  [0x0000034d]  Set column to 8
  [0x0000034f]  Special opcode 118: advance Address by 8 to 0x105411 and Line by 1 to 211
  [0x00000350]  Set column to 29
  [0x00000352]  Extended opcode 4: set Discriminator to 1
  [0x00000356]  Special opcode 89: advance Address by 6 to 0x105417 and Line by 0 to 211
  [0x00000357]  Set column to 23
  [0x00000359]  Special opcode 147: advance Address by 10 to 0x105421 and Line by 2 to 213
  [0x0000035a]  Set column to 9
  [0x0000035c]  Advance PC by constant 17 to 0x105432
  [0x0000035d]  Special opcode 103: advance Address by 7 to 0x105439 and Line by 0 to 213
  [0x0000035e]  Set column to 23
  [0x00000360]  Special opcode 76: advance Address by 5 to 0x10543e and Line by 1 to 214
  [0x00000361]  Set column to 9
  [0x00000363]  Advance PC by constant 17 to 0x10544f
  [0x00000364]  Special opcode 103: advance Address by 7 to 0x105456 and Line by 0 to 214
  [0x00000365]  Special opcode 77: advance Address by 5 to 0x10545b and Line by 2 to 216
  [0x00000366]  Special opcode 104: advance Address by 7 to 0x105462 and Line by 1 to 217
  [0x00000367]  Set column to 14
  [0x00000369]  Special opcode 105: advance Address by 7 to 0x105469 and Line by 2 to 219
  [0x0000036a]  Set column to 5
  [0x0000036c]  Special opcode 103: advance Address by 7 to 0x105470 and Line by 0 to 219
  [0x0000036d]  Set column to 48
  [0x0000036f]  Extended opcode 4: set Discriminator to 3
  [0x00000373]  Special opcode 34: advance Address by 2 to 0x105472 and Line by 1 to 220
  [0x00000374]  Set column to 9
  [0x00000376]  Extended opcode 4: set Discriminator to 3
  [0x0000037a]  Special opcode 117: advance Address by 8 to 0x10547a and Line by 0 to 220
  [0x0000037b]  Set column to 38
  [0x0000037d]  Extended opcode 4: set Discriminator to 3
  [0x00000381]  Advance PC by constant 17 to 0x10548b
  [0x00000382]  Special opcode 46: advance Address by 3 to 0x10548e and Line by -1 to 219
  [0x00000383]  Set column to 23
  [0x00000385]  Extended opcode 4: set Discriminator to 1
  [0x00000389]  Special opcode 61: advance Address by 4 to 0x105492 and Line by 0 to 219
  [0x0000038a]  Set column to 5
  [0x0000038c]  Extended opcode 4: set Discriminator to 1
  [0x00000390]  Special opcode 47: advance Address by 3 to 0x105495 and Line by 0 to 219
  [0x00000391]  Set column to 14
  [0x00000393]  Special opcode 78: advance Address by 5 to 0x10549a and Line by 3 to 222
  [0x00000394]  Set column to 5
  [0x00000396]  Special opcode 103: advance Address by 7 to 0x1054a1 and Line by 0 to 222
  [0x00000397]  Set column to 49
  [0x00000399]  Extended opcode 4: set Discriminator to 3
  [0x0000039d]  Special opcode 34: advance Address by 2 to 0x1054a3 and Line by 1 to 223
  [0x0000039e]  Set column to 9
  [0x000003a0]  Extended opcode 4: set Discriminator to 3
  [0x000003a4]  Special opcode 145: advance Address by 10 to 0x1054ad and Line by 0 to 223
  [0x000003a5]  Set column to 39
  [0x000003a7]  Extended opcode 4: set Discriminator to 3
  [0x000003ab]  Advance PC by constant 17 to 0x1054be
  [0x000003ac]  Special opcode 46: advance Address by 3 to 0x1054c1 and Line by -1 to 222
  [0x000003ad]  Set column to 23
  [0x000003af]  Extended opcode 4: set Discriminator to 1
  [0x000003b3]  Special opcode 61: advance Address by 4 to 0x1054c5 and Line by 0 to 222
  [0x000003b4]  Set column to 5
  [0x000003b6]  Extended opcode 4: set Discriminator to 1
  [0x000003ba]  Special opcode 47: advance Address by 3 to 0x1054c8 and Line by 0 to 222
  [0x000003bb]  Set column to 12
  [0x000003bd]  Special opcode 78: advance Address by 5 to 0x1054cd and Line by 3 to 225
  [0x000003be]  Set column to 1
  [0x000003c0]  Special opcode 48: advance Address by 3 to 0x1054d0 and Line by 1 to 226
  [0x000003c1]  Set column to 36
  [0x000003c3]  Special opcode 35: advance Address by 2 to 0x1054d2 and Line by 2 to 228
  [0x000003c4]  Set column to 8
  [0x000003c6]  Special opcode 160: advance Address by 11 to 0x1054dd and Line by 1 to 229
  [0x000003c7]  Set column to 14
  [0x000003c9]  Special opcode 147: advance Address by 10 to 0x1054e7 and Line by 2 to 231
  [0x000003ca]  Set column to 5
  [0x000003cc]  Special opcode 103: advance Address by 7 to 0x1054ee and Line by 0 to 231
  [0x000003cd]  Set column to 23
  [0x000003cf]  Special opcode 76: advance Address by 5 to 0x1054f3 and Line by 1 to 232
  [0x000003d0]  Set column to 13
  [0x000003d2]  Special opcode 47: advance Address by 3 to 0x1054f6 and Line by 0 to 232
  [0x000003d3]  Set column to 23
  [0x000003d5]  Special opcode 118: advance Address by 8 to 0x1054fe and Line by 1 to 233
  [0x000003d6]  Set column to 13
  [0x000003d8]  Special opcode 89: advance Address by 6 to 0x105504 and Line by 0 to 233
  [0x000003d9]  Set column to 14
  [0x000003db]  Special opcode 63: advance Address by 4 to 0x105508 and Line by 2 to 235
  [0x000003dc]  Set column to 12
  [0x000003de]  Special opcode 229: advance Address by 16 to 0x105518 and Line by 0 to 235
  [0x000003df]  Set column to 24
  [0x000003e1]  Special opcode 62: advance Address by 4 to 0x10551c and Line by 1 to 236
  [0x000003e2]  Set column to 29
  [0x000003e4]  Special opcode 103: advance Address by 7 to 0x105523 and Line by 0 to 236
  [0x000003e5]  Set column to 15
  [0x000003e7]  Special opcode 47: advance Address by 3 to 0x105526 and Line by 0 to 236
  [0x000003e8]  Set column to 13
  [0x000003ea]  Special opcode 48: advance Address by 3 to 0x105529 and Line by 1 to 237
  [0x000003eb]  Set column to 53
  [0x000003ed]  Special opcode 35: advance Address by 2 to 0x10552b and Line by 2 to 239
  [0x000003ee]  Set column to 29
  [0x000003f0]  Special opcode 89: advance Address by 6 to 0x105531 and Line by 0 to 239
  [0x000003f1]  Set column to 32
  [0x000003f3]  Special opcode 216: advance Address by 15 to 0x105540 and Line by 1 to 240
  [0x000003f4]  Set column to 16
  [0x000003f6]  Special opcode 201: advance Address by 14 to 0x10554e and Line by 0 to 240
  [0x000003f7]  Special opcode 63: advance Address by 4 to 0x105552 and Line by 2 to 242
  [0x000003f8]  Set column to 31
  [0x000003fa]  Special opcode 132: advance Address by 9 to 0x10555b and Line by 1 to 243
  [0x000003fb]  Set column to 21
  [0x000003fd]  Special opcode 117: advance Address by 8 to 0x105563 and Line by 0 to 243
  [0x000003fe]  Special opcode 90: advance Address by 6 to 0x105569 and Line by 1 to 244
  [0x000003ff]  Set column to 35
  [0x00000401]  Special opcode 133: advance Address by 9 to 0x105572 and Line by 2 to 246
  [0x00000402]  Set column to 42
  [0x00000404]  Special opcode 229: advance Address by 16 to 0x105582 and Line by 0 to 246
  [0x00000405]  Set column to 35
  [0x00000407]  Special opcode 201: advance Address by 14 to 0x105590 and Line by 0 to 246
  [0x00000408]  Set column to 13
  [0x0000040a]  Advance Line by -6 to 240
  [0x0000040c]  Advance PC by constant 17 to 0x1055a1
  [0x0000040d]  Special opcode 89: advance Address by 6 to 0x1055a7 and Line by 0 to 240
  [0x0000040e]  Set column to 39
  [0x00000410]  Extended opcode 4: set Discriminator to 2
  [0x00000414]  Advance Line by -9 to 231
  [0x00000416]  Special opcode 19: advance Address by 1 to 0x1055a8 and Line by 0 to 231
  [0x00000417]  Set column to 5
  [0x00000419]  Extended opcode 4: set Discriminator to 1
  [0x0000041d]  Special opcode 61: advance Address by 4 to 0x1055ac and Line by 0 to 231
  [0x0000041e]  Set column to 14
  [0x00000420]  Advance Line by 20 to 251
  [0x00000422]  Special opcode 187: advance Address by 13 to 0x1055b9 and Line by 0 to 251
  [0x00000423]  Set column to 5
  [0x00000425]  Special opcode 103: advance Address by 7 to 0x1055c0 and Line by 0 to 251
  [0x00000426]  Set column to 12
  [0x00000428]  Special opcode 34: advance Address by 2 to 0x1055c2 and Line by 1 to 252
  [0x00000429]  Set column to 58
  [0x0000042b]  Extended opcode 4: set Discriminator to 1
  [0x0000042f]  Special opcode 89: advance Address by 6 to 0x1055c8 and Line by 0 to 252
  [0x00000430]  Set column to 55
  [0x00000432]  Extended opcode 4: set Discriminator to 1
  [0x00000436]  Special opcode 201: advance Address by 14 to 0x1055d6 and Line by 0 to 252
  [0x00000437]  Set column to 19
  [0x00000439]  Special opcode 62: advance Address by 4 to 0x1055da and Line by 1 to 253
  [0x0000043a]  Set column to 13
  [0x0000043c]  Special opcode 201: advance Address by 14 to 0x1055e8 and Line by 0 to 253
  [0x0000043d]  Set column to 32
  [0x0000043f]  Extended opcode 4: set Discriminator to 2
  [0x00000443]  Special opcode 171: advance Address by 12 to 0x1055f4 and Line by -2 to 251
  [0x00000444]  Set column to 5
  [0x00000446]  Extended opcode 4: set Discriminator to 1
  [0x0000044a]  Special opcode 61: advance Address by 4 to 0x1055f8 and Line by 0 to 251
  [0x0000044b]  Special opcode 136: advance Address by 9 to 0x105601 and Line by 5 to 256
  [0x0000044c]  Set column to 22
  [0x0000044e]  Advance Line by -27 to 229
  [0x00000450]  Special opcode 229: advance Address by 16 to 0x105611 and Line by 0 to 229
  [0x00000451]  Set column to 1
  [0x00000453]  Advance Line by 28 to 257
  [0x00000455]  Special opcode 19: advance Address by 1 to 0x105612 and Line by 0 to 257
  [0x00000456]  Set column to 38
  [0x00000458]  Special opcode 77: advance Address by 5 to 0x105617 and Line by 2 to 259
  [0x00000459]  Set column to 18
  [0x0000045b]  Special opcode 104: advance Address by 7 to 0x10561e and Line by 1 to 260
  [0x0000045c]  Set column to 5
  [0x0000045e]  Special opcode 118: advance Address by 8 to 0x105626 and Line by 1 to 261
  [0x0000045f]  Set column to 1
  [0x00000461]  Special opcode 90: advance Address by 6 to 0x10562c and Line by 1 to 262
  [0x00000462]  Set column to 20
  [0x00000464]  Special opcode 49: advance Address by 3 to 0x10562f and Line by 2 to 264
  [0x00000465]  Set column to 5
  [0x00000467]  Special opcode 147: advance Address by 10 to 0x105639 and Line by 2 to 266
  [0x00000468]  Set column to 9
  [0x0000046a]  Special opcode 90: advance Address by 6 to 0x10563f and Line by 1 to 267
  [0x0000046b]  Set column to 5
  [0x0000046d]  Special opcode 104: advance Address by 7 to 0x105646 and Line by 1 to 268
  [0x0000046e]  Set column to 1
  [0x00000470]  Special opcode 90: advance Address by 6 to 0x10564c and Line by 1 to 269
  [0x00000471]  Set column to 18
  [0x00000473]  Special opcode 49: advance Address by 3 to 0x10564f and Line by 2 to 271
  [0x00000474]  Set column to 5
  [0x00000476]  Special opcode 146: advance Address by 10 to 0x105659 and Line by 1 to 272
  [0x00000477]  Set column to 21
  [0x00000479]  Special opcode 231: advance Address by 16 to 0x105669 and Line by 2 to 274
  [0x0000047a]  Set column to 19
  [0x0000047c]  Special opcode 75: advance Address by 5 to 0x10566e and Line by 0 to 274
  [0x0000047d]  Set column to 14
  [0x0000047f]  Special opcode 77: advance Address by 5 to 0x105673 and Line by 2 to 276
  [0x00000480]  Set column to 5
  [0x00000482]  Special opcode 103: advance Address by 7 to 0x10567a and Line by 0 to 276
  [0x00000483]  Set column to 9
  [0x00000485]  Extended opcode 4: set Discriminator to 3
  [0x00000489]  Special opcode 34: advance Address by 2 to 0x10567c and Line by 1 to 277
  [0x0000048a]  Set column to 45
  [0x0000048c]  Extended opcode 4: set Discriminator to 3
  [0x00000490]  Advance PC by constant 17 to 0x10568d
  [0x00000491]  Special opcode 242: advance Address by 17 to 0x10569e and Line by -1 to 276
  [0x00000492]  Set column to 5
  [0x00000494]  Extended opcode 4: set Discriminator to 1
  [0x00000498]  Special opcode 61: advance Address by 4 to 0x1056a2 and Line by 0 to 276
  [0x00000499]  Special opcode 134: advance Address by 9 to 0x1056ab and Line by 3 to 279
  [0x0000049a]  Advance PC by constant 17 to 0x1056bc
  [0x0000049b]  Special opcode 6: advance Address by 0 to 0x1056bc and Line by 1 to 280
  [0x0000049c]  Set column to 1
  [0x0000049e]  Special opcode 76: advance Address by 5 to 0x1056c1 and Line by 1 to 281
  [0x0000049f]  Advance PC by 3 to 0x1056c4
  [0x000004a1]  Extended opcode 1: End of Sequence


  Offset:                      0x4a4
  Length:                      425
  DWARF Version:               3
  Prologue Length:             251
  Minimum Instruction Length:  1
  Initial value of 'is_stmt':  1
  Line Base:                   -5
  Line Range:                  14
  Opcode Base:                 13

 Opcodes:
  Opcode 1 has 0 args
  Opcode 2 has 1 arg
  Opcode 3 has 1 arg
  Opcode 4 has 1 arg
  Opcode 5 has 1 arg
  Opcode 6 has 0 args
  Opcode 7 has 0 args
  Opcode 8 has 0 args
  Opcode 9 has 1 arg
  Opcode 10 has 0 args
  Opcode 11 has 0 args
  Opcode 12 has 1 arg

 The Directory Table (offset 0x4bf):
  1	src/kernel
  2	src/kernel/task
  3	src/kernel/int
  4	src/kernel/drv
  5	src/kernel/fs
  6	src/kernel/task/..
  7	src/kernel/shell/..

 The File Name Table (offset 0x52e):
  Entry	Dir	Time	Size	Name
  1	1	0	0	main.cpp
  2	1	0	0	utils.h
  3	2	0	0	fd.h
  4	1	0	0	vga.h
  5	3	0	0	isr.h
  6	3	0	0	idt.h
  7	4	0	0	drive.h
  8	5	0	0	apofs.h
  9	6	0	0	vmem.h
  10	6	0	0	kmm.h
  11	2	0	0	task.h
  12	7	0	0	utils.hpp

 Line Number Statements:
  [0x000005a9]  Set column to 48
  [0x000005ab]  Extended opcode 2: set Address to 0x10affb
  [0x000005b2]  Advance Line by 30 to 31
  [0x000005b4]  Copy
  [0x000005b5]  Set column to 17
  [0x000005b7]  Special opcode 146: advance Address by 10 to 0x10b005 and Line by 1 to 32
  [0x000005b8]  Set column to 18
  [0x000005ba]  Special opcode 216: advance Address by 15 to 0x10b014 and Line by 1 to 33
  [0x000005bb]  Special opcode 230: advance Address by 16 to 0x10b024 and Line by 1 to 34
  [0x000005bc]  Special opcode 202: advance Address by 14 to 0x10b032 and Line by 1 to 35
  [0x000005bd]  Set column to 14
  [0x000005bf]  Special opcode 188: advance Address by 13 to 0x10b03f and Line by 1 to 36
  [0x000005c0]  Special opcode 230: advance Address by 16 to 0x10b04f and Line by 1 to 37
  [0x000005c1]  Special opcode 202: advance Address by 14 to 0x10b05d and Line by 1 to 38
  [0x000005c2]  Set column to 15
  [0x000005c4]  Special opcode 231: advance Address by 16 to 0x10b06d and Line by 2 to 40
  [0x000005c5]  Set column to 5
  [0x000005c7]  Extended opcode 4: set Discriminator to 1
  [0x000005cb]  Special opcode 20: advance Address by 1 to 0x10b06e and Line by 1 to 41
  [0x000005cc]  Set column to 38
  [0x000005ce]  Special opcode 36: advance Address by 2 to 0x10b070 and Line by 3 to 44
  [0x000005cf]  Set column to 10
  [0x000005d1]  Special opcode 146: advance Address by 10 to 0x10b07a and Line by 1 to 45
  [0x000005d2]  Set column to 1
  [0x000005d4]  Special opcode 230: advance Address by 16 to 0x10b08a and Line by 1 to 46
  [0x000005d5]  Set column to 40
  [0x000005d7]  Special opcode 53: advance Address by 3 to 0x10b08d and Line by 6 to 52
  [0x000005d8]  Set column to 23
  [0x000005da]  Special opcode 146: advance Address by 10 to 0x10b097 and Line by 1 to 53
  [0x000005db]  Set column to 14
  [0x000005dd]  Special opcode 119: advance Address by 8 to 0x10b09f and Line by 2 to 55
  [0x000005de]  Special opcode 231: advance Address by 16 to 0x10b0af and Line by 2 to 57
  [0x000005df]  Set column to 13
  [0x000005e1]  Special opcode 230: advance Address by 16 to 0x10b0bf and Line by 1 to 58
  [0x000005e2]  Set column to 14
  [0x000005e4]  Special opcode 76: advance Address by 5 to 0x10b0c4 and Line by 1 to 59
  [0x000005e5]  Set column to 13
  [0x000005e7]  Special opcode 231: advance Address by 16 to 0x10b0d4 and Line by 2 to 61
  [0x000005e8]  Set column to 19
  [0x000005ea]  Special opcode 76: advance Address by 5 to 0x10b0d9 and Line by 1 to 62
  [0x000005eb]  Set column to 17
  [0x000005ed]  Special opcode 231: advance Address by 16 to 0x10b0e9 and Line by 2 to 64
  [0x000005ee]  Set column to 14
  [0x000005f0]  Special opcode 216: advance Address by 15 to 0x10b0f8 and Line by 1 to 65
  [0x000005f1]  Special opcode 79: advance Address by 5 to 0x10b0fd and Line by 4 to 69
  [0x000005f2]  Set column to 13
  [0x000005f4]  Special opcode 230: advance Address by 16 to 0x10b10d and Line by 1 to 70
  [0x000005f5]  Special opcode 76: advance Address by 5 to 0x10b112 and Line by 1 to 71
  [0x000005f6]  Set column to 14
  [0x000005f8]  Special opcode 76: advance Address by 5 to 0x10b117 and Line by 1 to 72
  [0x000005f9]  Special opcode 231: advance Address by 16 to 0x10b127 and Line by 2 to 74
  [0x000005fa]  Set column to 15
  [0x000005fc]  Special opcode 230: advance Address by 16 to 0x10b137 and Line by 1 to 75
  [0x000005fd]  Set column to 18
  [0x000005ff]  Special opcode 76: advance Address by 5 to 0x10b13c and Line by 1 to 76
  [0x00000600]  Set column to 14
  [0x00000602]  Special opcode 76: advance Address by 5 to 0x10b141 and Line by 1 to 77
  [0x00000603]  Special opcode 231: advance Address by 16 to 0x10b151 and Line by 2 to 79
  [0x00000604]  Set column to 13
  [0x00000606]  Special opcode 230: advance Address by 16 to 0x10b161 and Line by 1 to 80
  [0x00000607]  Set column to 14
  [0x00000609]  Special opcode 76: advance Address by 5 to 0x10b166 and Line by 1 to 81
  [0x0000060a]  Set column to 15
  [0x0000060c]  Special opcode 230: advance Address by 16 to 0x10b176 and Line by 1 to 82
  [0x0000060d]  Set column to 13
  [0x0000060f]  Special opcode 76: advance Address by 5 to 0x10b17b and Line by 1 to 83
  [0x00000610]  Set column to 14
  [0x00000612]  Special opcode 77: advance Address by 5 to 0x10b180 and Line by 2 to 85
  [0x00000613]  Set column to 39
  [0x00000615]  Special opcode 231: advance Address by 16 to 0x10b190 and Line by 2 to 87
  [0x00000616]  Set column to 5
  [0x00000618]  Advance PC by constant 17 to 0x10b1a1
  [0x00000619]  Special opcode 160: advance Address by 11 to 0x10b1ac and Line by 1 to 88
  [0x0000061a]  Set column to 21
  [0x0000061c]  Special opcode 90: advance Address by 6 to 0x10b1b2 and Line by 1 to 89
  [0x0000061d]  Set column to 50
  [0x0000061f]  Special opcode 229: advance Address by 16 to 0x10b1c2 and Line by 0 to 89
  [0x00000620]  Set column to 27
  [0x00000622]  Special opcode 77: advance Address by 5 to 0x10b1c7 and Line by 2 to 91
  [0x00000623]  Set column to 14
  [0x00000625]  Special opcode 203: advance Address by 14 to 0x10b1d5 and Line by 2 to 93
  [0x00000626]  Special opcode 230: advance Address by 16 to 0x10b1e5 and Line by 1 to 94
  [0x00000627]  Special opcode 76: advance Address by 5 to 0x10b1ea and Line by 1 to 95
  [0x00000628]  Special opcode 231: advance Address by 16 to 0x10b1fa and Line by 2 to 97
  [0x00000629]  Set column to 17
  [0x0000062b]  Special opcode 230: advance Address by 16 to 0x10b20a and Line by 1 to 98
  [0x0000062c]  Set column to 14
  [0x0000062e]  Special opcode 76: advance Address by 5 to 0x10b20f and Line by 1 to 99
  [0x0000062f]  Special opcode 76: advance Address by 5 to 0x10b214 and Line by 1 to 100
  [0x00000630]  Set column to 26
  [0x00000632]  Advance Line by 9 to 109
  [0x00000634]  Special opcode 229: advance Address by 16 to 0x10b224 and Line by 0 to 109
  [0x00000635]  Set column to 14
  [0x00000637]  Advance PC by constant 17 to 0x10b235
  [0x00000638]  Special opcode 35: advance Address by 2 to 0x10b237 and Line by 2 to 111
  [0x00000639]  Set column to 5
  [0x0000063b]  Special opcode 231: advance Address by 16 to 0x10b247 and Line by 2 to 113
  [0x0000063c]  Set column to 20
  [0x0000063e]  Special opcode 90: advance Address by 6 to 0x10b24d and Line by 1 to 114
  [0x0000063f]  Set column to 15
  [0x00000641]  Special opcode 203: advance Address by 14 to 0x10b25b and Line by 2 to 116
  [0x00000642]  Set column to 5
  [0x00000644]  Extended opcode 4: set Discriminator to 1
  [0x00000648]  Special opcode 21: advance Address by 1 to 0x10b25c and Line by 2 to 118
  [0x00000649]  Set column to 1
  [0x0000064b]  Special opcode 34: advance Address by 2 to 0x10b25e and Line by 1 to 119
  [0x0000064c]  Advance PC by 2 to 0x10b260
  [0x0000064e]  Extended opcode 1: End of Sequence


  Offset:                      0x651
  Length:                      1840
  DWARF Version:               3
  Prologue Length:             228
  Minimum Instruction Length:  1
  Initial value of 'is_stmt':  1
  Line Base:                   -5
  Line Range:                  14
  Opcode Base:                 13

 Opcodes:
  Opcode 1 has 0 args
  Opcode 2 has 1 arg
  Opcode 3 has 1 arg
  Opcode 4 has 1 arg
  Opcode 5 has 1 arg
  Opcode 6 has 0 args
  Opcode 7 has 0 args
  Opcode 8 has 0 args
  Opcode 9 has 1 arg
  Opcode 10 has 0 args
  Opcode 11 has 0 args
  Opcode 12 has 1 arg

 The Directory Table (offset 0x66c):
  1	src/kernel/task
  2	src/kernel/task/..
  3	src/kernel/task/../int
  4	src/kernel/task/../fs/../drv
  5	src/kernel/task/../fs

 The File Name Table (offset 0x6da):
  Entry	Dir	Time	Size	Name
  1	1	0	0	task.cpp
  2	2	0	0	utils.h
  3	2	0	0	vmem.h
  4	3	0	0	isr.h
  5	4	0	0	drive.h
  6	5	0	0	apofs.h
  7	2	0	0	kmm.h
  8	1	0	0	fd.h
  9	1	0	0	task.h
  10	2	0	0	vga.h

 Line Number Statements:
  [0x0000073f]  Set column to 18
  [0x00000741]  Extended opcode 2: set Address to 0x10d61c
  [0x00000748]  Advance Line by 26 to 27
  [0x0000074a]  Copy
  [0x0000074b]  Set column to 15
  [0x0000074d]  Special opcode 146: advance Address by 10 to 0x10d626 and Line by 1 to 28
  [0x0000074e]  Set column to 31
  [0x00000750]  Advance PC by constant 17 to 0x10d637
  [0x00000751]  Special opcode 19: advance Address by 1 to 0x10d638 and Line by 0 to 28
  [0x00000752]  Set column to 5
  [0x00000754]  Special opcode 75: advance Address by 5 to 0x10d63d and Line by 0 to 28
  [0x00000755]  Set column to 14
  [0x00000757]  Special opcode 62: advance Address by 4 to 0x10d641 and Line by 1 to 29
  [0x00000758]  Set column to 1
  [0x0000075a]  Special opcode 230: advance Address by 16 to 0x10d651 and Line by 1 to 30
  [0x0000075b]  Set column to 37
  [0x0000075d]  Special opcode 54: advance Address by 3 to 0x10d654 and Line by 7 to 37
  [0x0000075e]  Set column to 31
  [0x00000760]  Special opcode 146: advance Address by 10 to 0x10d65e and Line by 1 to 38
  [0x00000761]  Set column to 5
  [0x00000763]  Special opcode 230: advance Address by 16 to 0x10d66e and Line by 1 to 39
  [0x00000764]  Set column to 26
  [0x00000766]  Extended opcode 4: set Discriminator to 1
  [0x0000076a]  Special opcode 89: advance Address by 6 to 0x10d674 and Line by 0 to 39
  [0x0000076b]  Set column to 11
  [0x0000076d]  Special opcode 147: advance Address by 10 to 0x10d67e and Line by 2 to 41
  [0x0000076e]  Set column to 34
  [0x00000770]  Special opcode 105: advance Address by 7 to 0x10d685 and Line by 2 to 43
  [0x00000771]  Set column to 20
  [0x00000773]  Special opcode 120: advance Address by 8 to 0x10d68d and Line by 3 to 46
  [0x00000774]  Set column to 9
  [0x00000776]  Advance PC by constant 17 to 0x10d69e
  [0x00000777]  Special opcode 89: advance Address by 6 to 0x10d6a4 and Line by 0 to 46
  [0x00000778]  Set column to 5
  [0x0000077a]  Special opcode 75: advance Address by 5 to 0x10d6a9 and Line by 0 to 46
  [0x0000077b]  Set column to 22
  [0x0000077d]  Special opcode 62: advance Address by 4 to 0x10d6ad and Line by 1 to 47
  [0x0000077e]  Set column to 16
  [0x00000780]  Special opcode 216: advance Address by 15 to 0x10d6bc and Line by 1 to 48
  [0x00000781]  Set column to 15
  [0x00000783]  Special opcode 148: advance Address by 10 to 0x10d6c6 and Line by 3 to 51
  [0x00000784]  Set column to 33
  [0x00000786]  Advance PC by constant 17 to 0x10d6d7
  [0x00000787]  Special opcode 47: advance Address by 3 to 0x10d6da and Line by 0 to 51
  [0x00000788]  Set column to 5
  [0x0000078a]  Special opcode 75: advance Address by 5 to 0x10d6df and Line by 0 to 51
  [0x0000078b]  Set column to 46
  [0x0000078d]  Extended opcode 4: set Discriminator to 1
  [0x00000791]  Special opcode 61: advance Address by 4 to 0x10d6e3 and Line by 0 to 51
  [0x00000792]  Set column to 32
  [0x00000794]  Special opcode 146: advance Address by 10 to 0x10d6ed and Line by 1 to 52
  [0x00000795]  Set column to 18
  [0x00000797]  Special opcode 201: advance Address by 14 to 0x10d6fb and Line by 0 to 52
  [0x00000798]  Special opcode 76: advance Address by 5 to 0x10d700 and Line by 1 to 53
  [0x00000799]  Special opcode 146: advance Address by 10 to 0x10d70a and Line by 1 to 54
  [0x0000079a]  Special opcode 104: advance Address by 7 to 0x10d711 and Line by 1 to 55
  [0x0000079b]  Special opcode 146: advance Address by 10 to 0x10d71b and Line by 1 to 56
  [0x0000079c]  Set column to 36
  [0x0000079e]  Special opcode 147: advance Address by 10 to 0x10d725 and Line by 2 to 58
  [0x0000079f]  Set column to 17
  [0x000007a1]  Special opcode 75: advance Address by 5 to 0x10d72a and Line by 0 to 58
  [0x000007a2]  Special opcode 90: advance Address by 6 to 0x10d730 and Line by 1 to 59
  [0x000007a3]  Special opcode 174: advance Address by 12 to 0x10d73c and Line by 1 to 60
  [0x000007a4]  Set column to 22
  [0x000007a6]  Special opcode 175: advance Address by 12 to 0x10d748 and Line by 2 to 62
  [0x000007a7]  Set column to 10
  [0x000007a9]  Special opcode 203: advance Address by 14 to 0x10d756 and Line by 2 to 64
  [0x000007aa]  Set column to 16
  [0x000007ac]  Advance PC by constant 17 to 0x10d767
  [0x000007ad]  Special opcode 77: advance Address by 5 to 0x10d76c and Line by 2 to 66
  [0x000007ae]  Set column to 12
  [0x000007b0]  Advance PC by constant 17 to 0x10d77d
  [0x000007b1]  Special opcode 34: advance Address by 2 to 0x10d77f and Line by 1 to 67
  [0x000007b2]  Set column to 1
  [0x000007b4]  Extended opcode 4: set Discriminator to 1
  [0x000007b8]  Special opcode 48: advance Address by 3 to 0x10d782 and Line by 1 to 68
  [0x000007b9]  Set column to 25
  [0x000007bb]  Special opcode 35: advance Address by 2 to 0x10d784 and Line by 2 to 70
  [0x000007bc]  Set column to 14
  [0x000007be]  Special opcode 146: advance Address by 10 to 0x10d78e and Line by 1 to 71
  [0x000007bf]  Set column to 34
  [0x000007c1]  Extended opcode 4: set Discriminator to 1
  [0x000007c5]  Special opcode 103: advance Address by 7 to 0x10d795 and Line by 0 to 71
  [0x000007c6]  Set column to 21
  [0x000007c8]  Extended opcode 4: set Discriminator to 1
  [0x000007cc]  Special opcode 89: advance Address by 6 to 0x10d79b and Line by 0 to 71
  [0x000007cd]  Set column to 23
  [0x000007cf]  Extended opcode 4: set Discriminator to 1
  [0x000007d3]  Special opcode 47: advance Address by 3 to 0x10d79e and Line by 0 to 71
  [0x000007d4]  Set column to 36
  [0x000007d6]  Special opcode 62: advance Address by 4 to 0x10d7a2 and Line by 1 to 72
  [0x000007d7]  Set column to 16
  [0x000007d9]  Advance PC by constant 17 to 0x10d7b3
  [0x000007da]  Special opcode 90: advance Address by 6 to 0x10d7b9 and Line by 1 to 73
  [0x000007db]  Set column to 9
  [0x000007dd]  Special opcode 75: advance Address by 5 to 0x10d7be and Line by 0 to 73
  [0x000007de]  Set column to 35
  [0x000007e0]  Extended opcode 4: set Discriminator to 1
  [0x000007e4]  Special opcode 75: advance Address by 5 to 0x10d7c3 and Line by 0 to 73
  [0x000007e5]  Set column to 5
  [0x000007e7]  Extended opcode 4: set Discriminator to 2
  [0x000007eb]  Special opcode 73: advance Address by 5 to 0x10d7c8 and Line by -2 to 71
  [0x000007ec]  Set column to 12
  [0x000007ee]  Special opcode 93: advance Address by 6 to 0x10d7ce and Line by 4 to 75
  [0x000007ef]  Set column to 1
  [0x000007f1]  Special opcode 76: advance Address by 5 to 0x10d7d3 and Line by 1 to 76
  [0x000007f2]  Set column to 36
  [0x000007f4]  Special opcode 35: advance Address by 2 to 0x10d7d5 and Line by 2 to 78
  [0x000007f5]  Set column to 18
  [0x000007f7]  Special opcode 146: advance Address by 10 to 0x10d7df and Line by 1 to 79
  [0x000007f8]  Set column to 14
  [0x000007fa]  Advance PC by constant 17 to 0x10d7f0
  [0x000007fb]  Special opcode 35: advance Address by 2 to 0x10d7f2 and Line by 2 to 81
  [0x000007fc]  Set column to 32
  [0x000007fe]  Extended opcode 4: set Discriminator to 3
  [0x00000802]  Special opcode 103: advance Address by 7 to 0x10d7f9 and Line by 0 to 81
  [0x00000803]  Set column to 21
  [0x00000805]  Extended opcode 4: set Discriminator to 3
  [0x00000809]  Special opcode 89: advance Address by 6 to 0x10d7ff and Line by 0 to 81
  [0x0000080a]  Set column to 23
  [0x0000080c]  Extended opcode 4: set Discriminator to 3
  [0x00000810]  Special opcode 47: advance Address by 3 to 0x10d802 and Line by 0 to 81
  [0x00000811]  Set column to 33
  [0x00000813]  Extended opcode 4: set Discriminator to 2
  [0x00000817]  Special opcode 62: advance Address by 4 to 0x10d806 and Line by 1 to 82
  [0x00000818]  Set column to 17
  [0x0000081a]  Extended opcode 4: set Discriminator to 2
  [0x0000081e]  Advance PC by constant 17 to 0x10d817
  [0x0000081f]  Special opcode 75: advance Address by 5 to 0x10d81c and Line by 0 to 82
  [0x00000820]  Set column to 5
  [0x00000822]  Extended opcode 4: set Discriminator to 2
  [0x00000826]  Special opcode 172: advance Address by 12 to 0x10d828 and Line by -1 to 81
  [0x00000827]  Set column to 16
  [0x00000829]  Special opcode 92: advance Address by 6 to 0x10d82e and Line by 3 to 84
  [0x0000082a]  Set column to 20
  [0x0000082c]  Advance PC by constant 17 to 0x10d83f
  [0x0000082d]  Special opcode 21: advance Address by 1 to 0x10d840 and Line by 2 to 86
  [0x0000082e]  Set column to 15
  [0x00000830]  Advance PC by constant 17 to 0x10d851
  [0x00000831]  Special opcode 20: advance Address by 1 to 0x10d852 and Line by 1 to 87
  [0x00000832]  Set column to 10
  [0x00000834]  Advance PC by constant 17 to 0x10d863
  [0x00000835]  Special opcode 20: advance Address by 1 to 0x10d864 and Line by 1 to 88
  [0x00000836]  Set column to 1
  [0x00000838]  Special opcode 202: advance Address by 14 to 0x10d872 and Line by 1 to 89
  [0x00000839]  Set column to 25
  [0x0000083b]  Special opcode 49: advance Address by 3 to 0x10d875 and Line by 2 to 91
  [0x0000083c]  Set column to 12
  [0x0000083e]  Special opcode 104: advance Address by 7 to 0x10d87c and Line by 1 to 92
  [0x0000083f]  Set column to 1
  [0x00000841]  Special opcode 76: advance Address by 5 to 0x10d881 and Line by 1 to 93
  [0x00000842]  Set column to 34
  [0x00000844]  Special opcode 35: advance Address by 2 to 0x10d883 and Line by 2 to 95
  [0x00000845]  Set column to 16
  [0x00000847]  Special opcode 146: advance Address by 10 to 0x10d88d and Line by 1 to 96
  [0x00000848]  Set column to 1
  [0x0000084a]  Advance PC by constant 17 to 0x10d89e
  [0x0000084b]  Special opcode 62: advance Address by 4 to 0x10d8a2 and Line by 1 to 97
  [0x0000084c]  Set column to 37
  [0x0000084e]  Special opcode 49: advance Address by 3 to 0x10d8a5 and Line by 2 to 99
  [0x0000084f]  Set column to 14
  [0x00000851]  Special opcode 146: advance Address by 10 to 0x10d8af and Line by 1 to 100
  [0x00000852]  Set column to 32
  [0x00000854]  Extended opcode 4: set Discriminator to 1
  [0x00000858]  Special opcode 103: advance Address by 7 to 0x10d8b6 and Line by 0 to 100
  [0x00000859]  Set column to 21
  [0x0000085b]  Extended opcode 4: set Discriminator to 1
  [0x0000085f]  Special opcode 89: advance Address by 6 to 0x10d8bc and Line by 0 to 100
  [0x00000860]  Set column to 23
  [0x00000862]  Extended opcode 4: set Discriminator to 1
  [0x00000866]  Special opcode 47: advance Address by 3 to 0x10d8bf and Line by 0 to 100
  [0x00000867]  Special opcode 62: advance Address by 4 to 0x10d8c3 and Line by 1 to 101
  [0x00000868]  Set column to 38
  [0x0000086a]  Advance PC by constant 17 to 0x10d8d4
  [0x0000086b]  Special opcode 75: advance Address by 5 to 0x10d8d9 and Line by 0 to 101
  [0x0000086c]  Set column to 9
  [0x0000086e]  Special opcode 89: advance Address by 6 to 0x10d8df and Line by 0 to 101
  [0x0000086f]  Set column to 52
  [0x00000871]  Extended opcode 4: set Discriminator to 1
  [0x00000875]  Special opcode 61: advance Address by 4 to 0x10d8e3 and Line by 0 to 101
  [0x00000876]  Set column to 5
  [0x00000878]  Extended opcode 4: set Discriminator to 2
  [0x0000087c]  Special opcode 102: advance Address by 7 to 0x10d8ea and Line by -1 to 100
  [0x0000087d]  Set column to 12
  [0x0000087f]  Special opcode 92: advance Address by 6 to 0x10d8f0 and Line by 3 to 103
  [0x00000880]  Set column to 1
  [0x00000882]  Special opcode 76: advance Address by 5 to 0x10d8f5 and Line by 1 to 104
  [0x00000883]  Set column to 27
  [0x00000885]  Special opcode 35: advance Address by 2 to 0x10d8f7 and Line by 2 to 106
  [0x00000886]  Set column to 22
  [0x00000888]  Special opcode 160: advance Address by 11 to 0x10d902 and Line by 1 to 107
  [0x00000889]  Set column to 18
  [0x0000088b]  Advance PC by constant 17 to 0x10d913
  [0x0000088c]  Special opcode 20: advance Address by 1 to 0x10d914 and Line by 1 to 108
  [0x0000088d]  Set column to 13
  [0x0000088f]  Special opcode 119: advance Address by 8 to 0x10d91c and Line by 2 to 110
  [0x00000890]  Set column to 5
  [0x00000892]  Special opcode 103: advance Address by 7 to 0x10d923 and Line by 0 to 110
  [0x00000893]  Set column to 20
  [0x00000895]  Special opcode 62: advance Address by 4 to 0x10d927 and Line by 1 to 111
  [0x00000896]  Set column to 37
  [0x00000898]  Special opcode 108: advance Address by 7 to 0x10d92e and Line by 5 to 116
  [0x00000899]  Set column to 52
  [0x0000089b]  Special opcode 89: advance Address by 6 to 0x10d934 and Line by 0 to 116
  [0x0000089c]  Set column to 59
  [0x0000089e]  Special opcode 89: advance Address by 6 to 0x10d93a and Line by 0 to 116
  [0x0000089f]  Set column to 1
  [0x000008a1]  Special opcode 138: advance Address by 9 to 0x10d943 and Line by 7 to 123
  [0x000008a2]  Set column to 13
  [0x000008a4]  Special opcode 28: advance Address by 2 to 0x10d945 and Line by -5 to 118
  [0x000008a5]  Special opcode 132: advance Address by 9 to 0x10d94e and Line by 1 to 119
  [0x000008a6]  Set column to 25
  [0x000008a8]  Special opcode 133: advance Address by 9 to 0x10d957 and Line by 2 to 121
  [0x000008a9]  Set column to 1
  [0x000008ab]  Advance PC by constant 17 to 0x10d968
  [0x000008ac]  Special opcode 7: advance Address by 0 to 0x10d968 and Line by 2 to 123
  [0x000008ad]  Set column to 34
  [0x000008af]  Special opcode 91: advance Address by 6 to 0x10d96e and Line by 2 to 125
  [0x000008b0]  Set column to 5
  [0x000008b2]  Special opcode 146: advance Address by 10 to 0x10d978 and Line by 1 to 126
  [0x000008b3]  Set column to 28
  [0x000008b5]  Advance PC by constant 17 to 0x10d989
  [0x000008b6]  Special opcode 132: advance Address by 9 to 0x10d992 and Line by 1 to 127
  [0x000008b7]  Special opcode 118: advance Address by 8 to 0x10d99a and Line by 1 to 128
  [0x000008b8]  Set column to 40
  [0x000008ba]  Special opcode 89: advance Address by 6 to 0x10d9a0 and Line by 0 to 128
  [0x000008bb]  Extended opcode 4: set Discriminator to 1
  [0x000008bf]  Set is_stmt to 0
  [0x000008c0]  Special opcode 61: advance Address by 4 to 0x10d9a4 and Line by 0 to 128
  [0x000008c1]  Set column to 59
  [0x000008c3]  Extended opcode 4: set Discriminator to 1
  [0x000008c7]  Set is_stmt to 1
  [0x000008c8]  Special opcode 89: advance Address by 6 to 0x10d9aa and Line by 0 to 128
  [0x000008c9]  Set column to 40
  [0x000008cb]  Extended opcode 4: set Discriminator to 2
  [0x000008cf]  Special opcode 33: advance Address by 2 to 0x10d9ac and Line by 0 to 128
  [0x000008d0]  Set column to 59
  [0x000008d2]  Extended opcode 4: set Discriminator to 2
  [0x000008d6]  Special opcode 75: advance Address by 5 to 0x10d9b1 and Line by 0 to 128
  [0x000008d7]  Set column to 28
  [0x000008d9]  Special opcode 34: advance Address by 2 to 0x10d9b3 and Line by 1 to 129
  [0x000008da]  Set column to 40
  [0x000008dc]  Special opcode 89: advance Address by 6 to 0x10d9b9 and Line by 0 to 129
  [0x000008dd]  Extended opcode 4: set Discriminator to 1
  [0x000008e1]  Set is_stmt to 0
  [0x000008e2]  Special opcode 61: advance Address by 4 to 0x10d9bd and Line by 0 to 129
  [0x000008e3]  Set column to 59
  [0x000008e5]  Extended opcode 4: set Discriminator to 1
  [0x000008e9]  Set is_stmt to 1
  [0x000008ea]  Special opcode 89: advance Address by 6 to 0x10d9c3 and Line by 0 to 129
  [0x000008eb]  Set column to 40
  [0x000008ed]  Extended opcode 4: set Discriminator to 2
  [0x000008f1]  Special opcode 33: advance Address by 2 to 0x10d9c5 and Line by 0 to 129
  [0x000008f2]  Set column to 59
  [0x000008f4]  Extended opcode 4: set Discriminator to 2
  [0x000008f8]  Special opcode 75: advance Address by 5 to 0x10d9ca and Line by 0 to 129
  [0x000008f9]  Set column to 14
  [0x000008fb]  Special opcode 36: advance Address by 2 to 0x10d9cc and Line by 3 to 132
  [0x000008fc]  Set column to 32
  [0x000008fe]  Extended opcode 4: set Discriminator to 1
  [0x00000902]  Special opcode 103: advance Address by 7 to 0x10d9d3 and Line by 0 to 132
  [0x00000903]  Set column to 21
  [0x00000905]  Extended opcode 4: set Discriminator to 1
  [0x00000909]  Special opcode 89: advance Address by 6 to 0x10d9d9 and Line by 0 to 132
  [0x0000090a]  Set column to 23
  [0x0000090c]  Extended opcode 4: set Discriminator to 1
  [0x00000910]  Special opcode 47: advance Address by 3 to 0x10d9dc and Line by 0 to 132
  [0x00000911]  Set column to 32
  [0x00000913]  Special opcode 62: advance Address by 4 to 0x10d9e0 and Line by 1 to 133
  [0x00000914]  Set column to 15
  [0x00000916]  Advance PC by constant 17 to 0x10d9f1
  [0x00000917]  Special opcode 118: advance Address by 8 to 0x10d9f9 and Line by 1 to 134
  [0x00000918]  Set column to 9
  [0x0000091a]  Special opcode 47: advance Address by 3 to 0x10d9fc and Line by 0 to 134
  [0x0000091b]  Set column to 20
  [0x0000091d]  Special opcode 76: advance Address by 5 to 0x10da01 and Line by 1 to 135
  [0x0000091e]  Set column to 5
  [0x00000920]  Extended opcode 4: set Discriminator to 2
  [0x00000924]  Special opcode 72: advance Address by 5 to 0x10da06 and Line by -3 to 132
  [0x00000925]  Set column to 12
  [0x00000927]  Special opcode 95: advance Address by 6 to 0x10da0c and Line by 6 to 138
  [0x00000928]  Set column to 1
  [0x0000092a]  Special opcode 76: advance Address by 5 to 0x10da11 and Line by 1 to 139
  [0x0000092b]  Set column to 48
  [0x0000092d]  Special opcode 35: advance Address by 2 to 0x10da13 and Line by 2 to 141
  [0x0000092e]  Set column to 5
  [0x00000930]  Special opcode 148: advance Address by 10 to 0x10da1d and Line by 3 to 144
  [0x00000931]  Set column to 34
  [0x00000933]  Advance PC by constant 17 to 0x10da2e
  [0x00000934]  Special opcode 133: advance Address by 9 to 0x10da37 and Line by 2 to 146
  [0x00000935]  Set column to 46
  [0x00000937]  Advance PC by constant 17 to 0x10da48
  [0x00000938]  Special opcode 19: advance Address by 1 to 0x10da49 and Line by 0 to 146
  [0x00000939]  Set column to 32
  [0x0000093b]  Special opcode 35: advance Address by 2 to 0x10da4b and Line by 2 to 148
  [0x0000093c]  Set column to 42
  [0x0000093e]  Special opcode 118: advance Address by 8 to 0x10da53 and Line by 1 to 149
  [0x0000093f]  Set column to 22
  [0x00000941]  Special opcode 201: advance Address by 14 to 0x10da61 and Line by 0 to 149
  [0x00000942]  Set column to 16
  [0x00000944]  Special opcode 90: advance Address by 6 to 0x10da67 and Line by 1 to 150
  [0x00000945]  Set column to 32
  [0x00000947]  Special opcode 77: advance Address by 5 to 0x10da6c and Line by 2 to 152
  [0x00000948]  Set column to 42
  [0x0000094a]  Special opcode 118: advance Address by 8 to 0x10da74 and Line by 1 to 153
  [0x0000094b]  Set column to 22
  [0x0000094d]  Special opcode 201: advance Address by 14 to 0x10da82 and Line by 0 to 153
  [0x0000094e]  Set column to 16
  [0x00000950]  Special opcode 90: advance Address by 6 to 0x10da88 and Line by 1 to 154
  [0x00000951]  Set column to 1
  [0x00000953]  Special opcode 77: advance Address by 5 to 0x10da8d and Line by 2 to 156
  [0x00000954]  Set column to 44
  [0x00000956]  Special opcode 35: advance Address by 2 to 0x10da8f and Line by 2 to 158
  [0x00000957]  Set column to 30
  [0x00000959]  Special opcode 146: advance Address by 10 to 0x10da99 and Line by 1 to 159
  [0x0000095a]  Set column to 5
  [0x0000095c]  Special opcode 118: advance Address by 8 to 0x10daa1 and Line by 1 to 160
  [0x0000095d]  Set column to 24
  [0x0000095f]  Extended opcode 4: set Discriminator to 1
  [0x00000963]  Special opcode 89: advance Address by 6 to 0x10daa7 and Line by 0 to 160
  [0x00000964]  Set column to 15
  [0x00000966]  Special opcode 105: advance Address by 7 to 0x10daae and Line by 2 to 162
  [0x00000967]  Set column to 32
  [0x00000969]  Advance PC by constant 17 to 0x10dabf
  [0x0000096a]  Special opcode 33: advance Address by 2 to 0x10dac1 and Line by 0 to 162
  [0x0000096b]  Set column to 5
  [0x0000096d]  Special opcode 75: advance Address by 5 to 0x10dac6 and Line by 0 to 162
  [0x0000096e]  Set column to 24
  [0x00000970]  Special opcode 62: advance Address by 4 to 0x10daca and Line by 1 to 163
  [0x00000971]  Set column to 25
  [0x00000973]  Special opcode 75: advance Address by 5 to 0x10dacf and Line by 0 to 163
  [0x00000974]  Set column to 12
  [0x00000976]  Special opcode 35: advance Address by 2 to 0x10dad1 and Line by 2 to 165
  [0x00000977]  Set column to 1
  [0x00000979]  Special opcode 76: advance Address by 5 to 0x10dad6 and Line by 1 to 166
  [0x0000097a]  Set column to 47
  [0x0000097c]  Special opcode 35: advance Address by 2 to 0x10dad8 and Line by 2 to 168
  [0x0000097d]  Set column to 20
  [0x0000097f]  Special opcode 146: advance Address by 10 to 0x10dae2 and Line by 1 to 169
  [0x00000980]  Set column to 5
  [0x00000982]  Advance PC by constant 17 to 0x10daf3
  [0x00000983]  Special opcode 104: advance Address by 7 to 0x10dafa and Line by 1 to 170
  [0x00000984]  Set column to 25
  [0x00000986]  Extended opcode 4: set Discriminator to 1
  [0x0000098a]  Special opcode 89: advance Address by 6 to 0x10db00 and Line by 0 to 170
  [0x0000098b]  Set column to 13
  [0x0000098d]  Special opcode 105: advance Address by 7 to 0x10db07 and Line by 2 to 172
  [0x0000098e]  Set column to 5
  [0x00000990]  Special opcode 103: advance Address by 7 to 0x10db0e and Line by 0 to 172
  [0x00000991]  Set column to 42
  [0x00000993]  Extended opcode 4: set Discriminator to 1
  [0x00000997]  Special opcode 61: advance Address by 4 to 0x10db12 and Line by 0 to 172
  [0x00000998]  Set column to 35
  [0x0000099a]  Extended opcode 4: set Discriminator to 1
  [0x0000099e]  Special opcode 103: advance Address by 7 to 0x10db19 and Line by 0 to 172
  [0x0000099f]  Set column to 71
  [0x000009a1]  Extended opcode 4: set Discriminator to 2
  [0x000009a5]  Special opcode 61: advance Address by 4 to 0x10db1d and Line by 0 to 172
  [0x000009a6]  Set column to 64
  [0x000009a8]  Extended opcode 4: set Discriminator to 2
  [0x000009ac]  Special opcode 103: advance Address by 7 to 0x10db24 and Line by 0 to 172
  [0x000009ad]  Set column to 23
  [0x000009af]  Special opcode 62: advance Address by 4 to 0x10db28 and Line by 1 to 173
  [0x000009b0]  Set column to 40
  [0x000009b2]  Advance PC by constant 17 to 0x10db39
  [0x000009b3]  Special opcode 47: advance Address by 3 to 0x10db3c and Line by 0 to 173
  [0x000009b4]  Set column to 1
  [0x000009b6]  Special opcode 34: advance Address by 2 to 0x10db3e and Line by 1 to 174
  [0x000009b7]  Set column to 48
  [0x000009b9]  Special opcode 35: advance Address by 2 to 0x10db40 and Line by 2 to 176
  [0x000009ba]  Set column to 20
  [0x000009bc]  Special opcode 146: advance Address by 10 to 0x10db4a and Line by 1 to 177
  [0x000009bd]  Set column to 5
  [0x000009bf]  Advance PC by constant 17 to 0x10db5b
  [0x000009c0]  Special opcode 105: advance Address by 7 to 0x10db62 and Line by 2 to 179
  [0x000009c1]  Set column to 25
  [0x000009c3]  Extended opcode 4: set Discriminator to 1
  [0x000009c7]  Special opcode 89: advance Address by 6 to 0x10db68 and Line by 0 to 179
  [0x000009c8]  Set column to 13
  [0x000009ca]  Special opcode 105: advance Address by 7 to 0x10db6f and Line by 2 to 181
  [0x000009cb]  Set column to 5
  [0x000009cd]  Special opcode 103: advance Address by 7 to 0x10db76 and Line by 0 to 181
  [0x000009ce]  Set column to 42
  [0x000009d0]  Extended opcode 4: set Discriminator to 1
  [0x000009d4]  Special opcode 61: advance Address by 4 to 0x10db7a and Line by 0 to 181
  [0x000009d5]  Set column to 35
  [0x000009d7]  Extended opcode 4: set Discriminator to 1
  [0x000009db]  Special opcode 103: advance Address by 7 to 0x10db81 and Line by 0 to 181
  [0x000009dc]  Set column to 71
  [0x000009de]  Extended opcode 4: set Discriminator to 2
  [0x000009e2]  Special opcode 61: advance Address by 4 to 0x10db85 and Line by 0 to 181
  [0x000009e3]  Set column to 64
  [0x000009e5]  Extended opcode 4: set Discriminator to 2
  [0x000009e9]  Special opcode 103: advance Address by 7 to 0x10db8c and Line by 0 to 181
  [0x000009ea]  Set column to 24
  [0x000009ec]  Special opcode 62: advance Address by 4 to 0x10db90 and Line by 1 to 182
  [0x000009ed]  Set column to 41
  [0x000009ef]  Advance PC by constant 17 to 0x10dba1
  [0x000009f0]  Special opcode 47: advance Address by 3 to 0x10dba4 and Line by 0 to 182
  [0x000009f1]  Set column to 1
  [0x000009f3]  Special opcode 34: advance Address by 2 to 0x10dba6 and Line by 1 to 183
  [0x000009f4]  Set column to 23
  [0x000009f6]  Special opcode 35: advance Address by 2 to 0x10dba8 and Line by 2 to 185
  [0x000009f7]  Set column to 20
  [0x000009f9]  Special opcode 146: advance Address by 10 to 0x10dbb2 and Line by 1 to 186
  [0x000009fa]  Set column to 5
  [0x000009fc]  Advance PC by constant 17 to 0x10dbc3
  [0x000009fd]  Special opcode 104: advance Address by 7 to 0x10dbca and Line by 1 to 187
  [0x000009fe]  Set column to 25
  [0x00000a00]  Extended opcode 4: set Discriminator to 1
  [0x00000a04]  Special opcode 89: advance Address by 6 to 0x10dbd0 and Line by 0 to 187
  [0x00000a05]  Set column to 19
  [0x00000a07]  Special opcode 105: advance Address by 7 to 0x10dbd7 and Line by 2 to 189
  [0x00000a08]  Set column to 22
  [0x00000a0a]  Special opcode 201: advance Address by 14 to 0x10dbe5 and Line by 0 to 189
  [0x00000a0b]  Set column to 1
  [0x00000a0d]  Special opcode 20: advance Address by 1 to 0x10dbe6 and Line by 1 to 190
  [0x00000a0e]  Set column to 47
  [0x00000a10]  Special opcode 35: advance Address by 2 to 0x10dbe8 and Line by 2 to 192
  [0x00000a11]  Set column to 20
  [0x00000a13]  Special opcode 146: advance Address by 10 to 0x10dbf2 and Line by 1 to 193
  [0x00000a14]  Set column to 5
  [0x00000a16]  Advance PC by constant 17 to 0x10dc03
  [0x00000a17]  Special opcode 104: advance Address by 7 to 0x10dc0a and Line by 1 to 194
  [0x00000a18]  Set column to 25
  [0x00000a1a]  Extended opcode 4: set Discriminator to 1
  [0x00000a1e]  Special opcode 89: advance Address by 6 to 0x10dc10 and Line by 0 to 194
  [0x00000a1f]  Set column to 19
  [0x00000a21]  Special opcode 105: advance Address by 7 to 0x10dc17 and Line by 2 to 196
  [0x00000a22]  Set column to 38
  [0x00000a24]  Advance PC by constant 17 to 0x10dc28
  [0x00000a25]  Special opcode 47: advance Address by 3 to 0x10dc2b and Line by 0 to 196
  [0x00000a26]  Set column to 1
  [0x00000a28]  Special opcode 20: advance Address by 1 to 0x10dc2c and Line by 1 to 197
  [0x00000a29]  Set column to 20
  [0x00000a2b]  Special opcode 35: advance Address by 2 to 0x10dc2e and Line by 2 to 199
  [0x00000a2c]  Set column to 22
  [0x00000a2e]  Special opcode 146: advance Address by 10 to 0x10dc38 and Line by 1 to 200
  [0x00000a2f]  Set column to 5
  [0x00000a31]  Special opcode 75: advance Address by 5 to 0x10dc3d and Line by 0 to 200
  [0x00000a32]  Set column to 23
  [0x00000a34]  Special opcode 62: advance Address by 4 to 0x10dc41 and Line by 1 to 201
  [0x00000a35]  Special opcode 146: advance Address by 10 to 0x10dc4b and Line by 1 to 202
  [0x00000a36]  Set column to 25
  [0x00000a38]  Special opcode 146: advance Address by 10 to 0x10dc55 and Line by 1 to 203
  [0x00000a39]  Set column to 19
  [0x00000a3b]  Advance PC by constant 17 to 0x10dc66
  [0x00000a3c]  Special opcode 106: advance Address by 7 to 0x10dc6d and Line by 3 to 206
  [0x00000a3d]  Set column to 23
  [0x00000a3f]  Special opcode 75: advance Address by 5 to 0x10dc72 and Line by 0 to 206
  [0x00000a40]  Set column to 19
  [0x00000a42]  Special opcode 132: advance Address by 9 to 0x10dc7b and Line by 1 to 207
  [0x00000a43]  Set column to 23
  [0x00000a45]  Special opcode 75: advance Address by 5 to 0x10dc80 and Line by 0 to 207
  [0x00000a46]  Set column to 22
  [0x00000a48]  Special opcode 133: advance Address by 9 to 0x10dc89 and Line by 2 to 209
  [0x00000a49]  Set column to 39
  [0x00000a4b]  Special opcode 188: advance Address by 13 to 0x10dc96 and Line by 1 to 210
  [0x00000a4c]  Set column to 27
  [0x00000a4e]  Special opcode 89: advance Address by 6 to 0x10dc9c and Line by 0 to 210
  [0x00000a4f]  Set column to 5
  [0x00000a51]  Special opcode 75: advance Address by 5 to 0x10dca1 and Line by 0 to 210
  [0x00000a52]  Set column to 64
  [0x00000a54]  Extended opcode 4: set Discriminator to 1
  [0x00000a58]  Special opcode 61: advance Address by 4 to 0x10dca5 and Line by 0 to 210
  [0x00000a59]  Set column to 16
  [0x00000a5b]  Special opcode 147: advance Address by 10 to 0x10dcaf and Line by 2 to 212
  [0x00000a5c]  Set column to 34
  [0x00000a5e]  Special opcode 75: advance Address by 5 to 0x10dcb4 and Line by 0 to 212
  [0x00000a5f]  Set column to 16
  [0x00000a61]  Advance PC by constant 17 to 0x10dcc5
  [0x00000a62]  Special opcode 5: advance Address by 0 to 0x10dcc5 and Line by 0 to 212
  [0x00000a63]  Set column to 1
  [0x00000a65]  Special opcode 174: advance Address by 12 to 0x10dcd1 and Line by 1 to 213
  [0x00000a66]  Set column to 41
  [0x00000a68]  Special opcode 51: advance Address by 3 to 0x10dcd4 and Line by 4 to 217
  [0x00000a69]  Set column to 9
  [0x00000a6b]  Special opcode 146: advance Address by 10 to 0x10dcde and Line by 1 to 218
  [0x00000a6c]  Set column to 37
  [0x00000a6e]  Extended opcode 4: set Discriminator to 1
  [0x00000a72]  Special opcode 104: advance Address by 7 to 0x10dce5 and Line by 1 to 219
  [0x00000a73]  Set column to 12
  [0x00000a75]  Extended opcode 4: set Discriminator to 1
  [0x00000a79]  Special opcode 117: advance Address by 8 to 0x10dced and Line by 0 to 219
  [0x00000a7a]  Set column to 14
  [0x00000a7c]  Extended opcode 4: set Discriminator to 1
  [0x00000a80]  Special opcode 47: advance Address by 3 to 0x10dcf0 and Line by 0 to 219
  [0x00000a81]  Set column to 58
  [0x00000a83]  Special opcode 62: advance Address by 4 to 0x10dcf4 and Line by 1 to 220
  [0x00000a84]  Set column to 20
  [0x00000a86]  Advance PC by constant 17 to 0x10dd05
  [0x00000a87]  Special opcode 20: advance Address by 1 to 0x10dd06 and Line by 1 to 221
  [0x00000a88]  Set column to 9
  [0x00000a8a]  Special opcode 75: advance Address by 5 to 0x10dd0b and Line by 0 to 221
  [0x00000a8b]  Set column to 5
  [0x00000a8d]  Special opcode 73: advance Address by 5 to 0x10dd10 and Line by -2 to 219
  [0x00000a8e]  Set column to 33
  [0x00000a90]  Special opcode 91: advance Address by 6 to 0x10dd16 and Line by 2 to 221
  [0x00000a91]  Set column to 58
  [0x00000a93]  Special opcode 22: advance Address by 1 to 0x10dd17 and Line by 3 to 224
  [0x00000a94]  Set column to 17
  [0x00000a96]  Special opcode 175: advance Address by 12 to 0x10dd23 and Line by 2 to 226
  [0x00000a97]  Set column to 34
  [0x00000a99]  Special opcode 47: advance Address by 3 to 0x10dd26 and Line by 0 to 226
  [0x00000a9a]  Set column to 17
  [0x00000a9c]  Special opcode 89: advance Address by 6 to 0x10dd2c and Line by 0 to 226
  [0x00000a9d]  Set column to 12
  [0x00000a9f]  Advance PC by constant 17 to 0x10dd3d
  [0x00000aa0]  Special opcode 48: advance Address by 3 to 0x10dd40 and Line by 1 to 227
  [0x00000aa1]  Set column to 1
  [0x00000aa3]  Special opcode 76: advance Address by 5 to 0x10dd45 and Line by 1 to 228
  [0x00000aa4]  Set column to 36
  [0x00000aa6]  Special opcode 35: advance Address by 2 to 0x10dd47 and Line by 2 to 230
  [0x00000aa7]  Set column to 9
  [0x00000aa9]  Special opcode 146: advance Address by 10 to 0x10dd51 and Line by 1 to 231
  [0x00000aaa]  Set column to 19
  [0x00000aac]  Special opcode 106: advance Address by 7 to 0x10dd58 and Line by 3 to 234
  [0x00000aad]  Set column to 36
  [0x00000aaf]  Special opcode 47: advance Address by 3 to 0x10dd5b and Line by 0 to 234
  [0x00000ab0]  Set column to 19
  [0x00000ab2]  Special opcode 89: advance Address by 6 to 0x10dd61 and Line by 0 to 234
  [0x00000ab3]  Set column to 9
  [0x00000ab5]  Advance PC by constant 17 to 0x10dd72
  [0x00000ab6]  Special opcode 47: advance Address by 3 to 0x10dd75 and Line by 0 to 234
  [0x00000ab7]  Set column to 5
  [0x00000ab9]  Special opcode 75: advance Address by 5 to 0x10dd7a and Line by 0 to 234
  [0x00000aba]  Set column to 17
  [0x00000abc]  Special opcode 62: advance Address by 4 to 0x10dd7e and Line by 1 to 235
  [0x00000abd]  Set column to 37
  [0x00000abf]  Special opcode 105: advance Address by 7 to 0x10dd85 and Line by 2 to 237
  [0x00000ac0]  Set column to 12
  [0x00000ac2]  Special opcode 117: advance Address by 8 to 0x10dd8d and Line by 0 to 237
  [0x00000ac3]  Set column to 14
  [0x00000ac5]  Special opcode 47: advance Address by 3 to 0x10dd90 and Line by 0 to 237
  [0x00000ac6]  Set column to 19
  [0x00000ac8]  Special opcode 62: advance Address by 4 to 0x10dd94 and Line by 1 to 238
  [0x00000ac9]  Set column to 9
  [0x00000acb]  Special opcode 47: advance Address by 3 to 0x10dd97 and Line by 0 to 238
  [0x00000acc]  Set column to 40
  [0x00000ace]  Extended opcode 4: set Discriminator to 1
  [0x00000ad2]  Special opcode 75: advance Address by 5 to 0x10dd9c and Line by 0 to 238
  [0x00000ad3]  Set column to 17
  [0x00000ad5]  Special opcode 76: advance Address by 5 to 0x10dda1 and Line by 1 to 239
  [0x00000ad6]  Set column to 13
  [0x00000ad8]  Special opcode 61: advance Address by 4 to 0x10dda5 and Line by 0 to 239
  [0x00000ad9]  Set column to 40
  [0x00000adb]  Special opcode 47: advance Address by 3 to 0x10dda8 and Line by 0 to 239
  [0x00000adc]  Set column to 17
  [0x00000ade]  Special opcode 117: advance Address by 8 to 0x10ddb0 and Line by 0 to 239
  [0x00000adf]  Set column to 9
  [0x00000ae1]  Special opcode 75: advance Address by 5 to 0x10ddb5 and Line by 0 to 239
  [0x00000ae2]  Set column to 22
  [0x00000ae4]  Special opcode 62: advance Address by 4 to 0x10ddb9 and Line by 1 to 240
  [0x00000ae5]  Set column to 39
  [0x00000ae7]  Special opcode 47: advance Address by 3 to 0x10ddbc and Line by 0 to 240
  [0x00000ae8]  Set column to 22
  [0x00000aea]  Special opcode 89: advance Address by 6 to 0x10ddc2 and Line by 0 to 240
  [0x00000aeb]  Set column to 5
  [0x00000aed]  Advance PC by constant 17 to 0x10ddd3
  [0x00000aee]  Special opcode 44: advance Address by 3 to 0x10ddd6 and Line by -3 to 237
  [0x00000aef]  Set column to 13
  [0x00000af1]  Special opcode 39: advance Address by 2 to 0x10ddd8 and Line by 6 to 243
  [0x00000af2]  Set column to 1
  [0x00000af4]  Extended opcode 4: set Discriminator to 1
  [0x00000af8]  Special opcode 76: advance Address by 5 to 0x10dddd and Line by 1 to 244
  [0x00000af9]  Set column to 33
  [0x00000afb]  Special opcode 35: advance Address by 2 to 0x10dddf and Line by 2 to 246
  [0x00000afc]  Set column to 35
  [0x00000afe]  Special opcode 146: advance Address by 10 to 0x10dde9 and Line by 1 to 247
  [0x00000aff]  Set column to 5
  [0x00000b01]  Advance PC by constant 17 to 0x10ddfa
  [0x00000b02]  Special opcode 6: advance Address by 0 to 0x10ddfa and Line by 1 to 248
