
iso/boot/kernel.bin:     file format elf32-i386


Disassembly of section .text:

00082e60 <start>:
   82e60:	bc c0 b0 0a 00       	mov    $0xab0c0,%esp
   82e65:	68 c0 b0 09 00       	push   $0x9b0c0
   82e6a:	e8 fa 03 00 00       	call   83269 <kernel_main>
   82e6f:	83 c4 04             	add    $0x4,%esp
   82e72:	fb                   	sti    

00082e73 <loop>:
   82e73:	f4                   	hlt    
   82e74:	eb fd                	jmp    82e73 <loop>
   82e76:	66 90                	xchg   %ax,%ax
   82e78:	66 90                	xchg   %ax,%ax
   82e7a:	66 90                	xchg   %ax,%ax
   82e7c:	66 90                	xchg   %ax,%ax
   82e7e:	66 90                	xchg   %ax,%ax

00082e80 <isr_common_stub>:
   82e80:	60                   	pusha  
   82e81:	66 8c d8             	mov    %ds,%ax
   82e84:	50                   	push   %eax
   82e85:	66 b8 10 00          	mov    $0x10,%ax
   82e89:	8e d8                	mov    %eax,%ds
   82e8b:	8e c0                	mov    %eax,%es
   82e8d:	8e e0                	mov    %eax,%fs
   82e8f:	8e e8                	mov    %eax,%gs
   82e91:	89 e0                	mov    %esp,%eax
   82e93:	a3 90 be 0a 00       	mov    %eax,0xabe90
   82e98:	89 e8                	mov    %ebp,%eax
   82e9a:	a3 94 be 0a 00       	mov    %eax,0xabe94
   82e9f:	a1 e8 b0 0a 00       	mov    0xab0e8,%eax
   82ea4:	89 c4                	mov    %eax,%esp
   82ea6:	e8 1b 1d 00 00       	call   84bc6 <isr_handler>
   82eab:	a1 90 be 0a 00       	mov    0xabe90,%eax
   82eb0:	89 c4                	mov    %eax,%esp
   82eb2:	a1 94 be 0a 00       	mov    0xabe94,%eax
   82eb7:	89 c5                	mov    %eax,%ebp
   82eb9:	58                   	pop    %eax
   82eba:	8e d8                	mov    %eax,%ds
   82ebc:	8e c0                	mov    %eax,%es
   82ebe:	8e e0                	mov    %eax,%fs
   82ec0:	8e e8                	mov    %eax,%gs
   82ec2:	61                   	popa   
   82ec3:	83 c4 08             	add    $0x8,%esp
   82ec6:	fb                   	sti    
   82ec7:	cf                   	iret   

00082ec8 <irq_common_stub>:
   82ec8:	60                   	pusha  
   82ec9:	66 8c d8             	mov    %ds,%ax
   82ecc:	50                   	push   %eax
   82ecd:	66 b8 10 00          	mov    $0x10,%ax
   82ed1:	8e d8                	mov    %eax,%ds
   82ed3:	8e c0                	mov    %eax,%es
   82ed5:	8e e0                	mov    %eax,%fs
   82ed7:	8e e8                	mov    %eax,%gs
   82ed9:	89 e0                	mov    %esp,%eax
   82edb:	a3 90 be 0a 00       	mov    %eax,0xabe90
   82ee0:	89 e8                	mov    %ebp,%eax
   82ee2:	a3 94 be 0a 00       	mov    %eax,0xabe94
   82ee7:	a1 e8 b0 0a 00       	mov    0xab0e8,%eax
   82eec:	89 c4                	mov    %eax,%esp
   82eee:	e8 a5 1f 00 00       	call   84e98 <irq_handler>
   82ef3:	a1 90 be 0a 00       	mov    0xabe90,%eax
   82ef8:	89 c4                	mov    %eax,%esp
   82efa:	a1 94 be 0a 00       	mov    0xabe94,%eax
   82eff:	89 c5                	mov    %eax,%ebp
   82f01:	5b                   	pop    %ebx
   82f02:	8e db                	mov    %ebx,%ds
   82f04:	8e c3                	mov    %ebx,%es
   82f06:	8e e3                	mov    %ebx,%fs
   82f08:	8e eb                	mov    %ebx,%gs
   82f0a:	61                   	popa   
   82f0b:	83 c4 08             	add    $0x8,%esp
   82f0e:	fb                   	sti    
   82f0f:	cf                   	iret   

00082f10 <interrupt_return>:
   82f10:	55                   	push   %ebp
   82f11:	89 e5                	mov    %esp,%ebp
   82f13:	8b 45 08             	mov    0x8(%ebp),%eax
   82f16:	8b 5d 0c             	mov    0xc(%ebp),%ebx
   82f19:	89 c4                	mov    %eax,%esp
   82f1b:	89 d8                	mov    %ebx,%eax
   82f1d:	89 c5                	mov    %eax,%ebp
   82f1f:	5b                   	pop    %ebx
   82f20:	8e db                	mov    %ebx,%ds
   82f22:	8e c3                	mov    %ebx,%es
   82f24:	8e e3                	mov    %ebx,%fs
   82f26:	8e eb                	mov    %ebx,%gs
   82f28:	61                   	popa   
   82f29:	83 c4 08             	add    $0x8,%esp
   82f2c:	fb                   	sti    
   82f2d:	cf                   	iret   
   82f2e:	66 75 63             	data16 jne 82f94 <isr9+0x4>
   82f31:	6b 20 79             	imul   $0x79,(%eax),%esp
   82f34:	6f                   	outsl  %ds:(%esi),(%dx)
   82f35:	75                   	.byte 0x75

00082f36 <isr0>:
   82f36:	fa                   	cli    
   82f37:	6a 00                	push   $0x0
   82f39:	6a 00                	push   $0x0
   82f3b:	e9 40 ff ff ff       	jmp    82e80 <isr_common_stub>

00082f40 <isr1>:
   82f40:	fa                   	cli    
   82f41:	6a 00                	push   $0x0
   82f43:	6a 01                	push   $0x1
   82f45:	e9 36 ff ff ff       	jmp    82e80 <isr_common_stub>

00082f4a <isr2>:
   82f4a:	fa                   	cli    
   82f4b:	6a 00                	push   $0x0
   82f4d:	6a 02                	push   $0x2
   82f4f:	e9 2c ff ff ff       	jmp    82e80 <isr_common_stub>

00082f54 <isr3>:
   82f54:	fa                   	cli    
   82f55:	6a 00                	push   $0x0
   82f57:	6a 03                	push   $0x3
   82f59:	e9 22 ff ff ff       	jmp    82e80 <isr_common_stub>

00082f5e <isr4>:
   82f5e:	fa                   	cli    
   82f5f:	6a 00                	push   $0x0
   82f61:	6a 04                	push   $0x4
   82f63:	e9 18 ff ff ff       	jmp    82e80 <isr_common_stub>

00082f68 <isr5>:
   82f68:	fa                   	cli    
   82f69:	6a 00                	push   $0x0
   82f6b:	6a 05                	push   $0x5
   82f6d:	e9 0e ff ff ff       	jmp    82e80 <isr_common_stub>

00082f72 <isr6>:
   82f72:	fa                   	cli    
   82f73:	6a 00                	push   $0x0
   82f75:	6a 06                	push   $0x6
   82f77:	e9 04 ff ff ff       	jmp    82e80 <isr_common_stub>

00082f7c <isr7>:
   82f7c:	fa                   	cli    
   82f7d:	6a 00                	push   $0x0
   82f7f:	6a 07                	push   $0x7
   82f81:	e9 fa fe ff ff       	jmp    82e80 <isr_common_stub>

00082f86 <isr8>:
   82f86:	fa                   	cli    
   82f87:	90                   	nop
   82f88:	90                   	nop
   82f89:	6a 08                	push   $0x8
   82f8b:	e9 f0 fe ff ff       	jmp    82e80 <isr_common_stub>

00082f90 <isr9>:
   82f90:	fa                   	cli    
   82f91:	6a 00                	push   $0x0
   82f93:	6a 09                	push   $0x9
   82f95:	e9 e6 fe ff ff       	jmp    82e80 <isr_common_stub>

00082f9a <isr10>:
   82f9a:	fa                   	cli    
   82f9b:	90                   	nop
   82f9c:	90                   	nop
   82f9d:	6a 0a                	push   $0xa
   82f9f:	e9 dc fe ff ff       	jmp    82e80 <isr_common_stub>

00082fa4 <isr11>:
   82fa4:	fa                   	cli    
   82fa5:	90                   	nop
   82fa6:	90                   	nop
   82fa7:	6a 0b                	push   $0xb
   82fa9:	e9 d2 fe ff ff       	jmp    82e80 <isr_common_stub>

00082fae <isr12>:
   82fae:	fa                   	cli    
   82faf:	90                   	nop
   82fb0:	90                   	nop
   82fb1:	6a 0c                	push   $0xc
   82fb3:	e9 c8 fe ff ff       	jmp    82e80 <isr_common_stub>

00082fb8 <isr13>:
   82fb8:	fa                   	cli    
   82fb9:	90                   	nop
   82fba:	90                   	nop
   82fbb:	6a 0d                	push   $0xd
   82fbd:	e9 be fe ff ff       	jmp    82e80 <isr_common_stub>

00082fc2 <isr14>:
   82fc2:	fa                   	cli    
   82fc3:	90                   	nop
   82fc4:	90                   	nop
   82fc5:	6a 0e                	push   $0xe
   82fc7:	e9 b4 fe ff ff       	jmp    82e80 <isr_common_stub>

00082fcc <isr15>:
   82fcc:	fa                   	cli    
   82fcd:	6a 00                	push   $0x0
   82fcf:	6a 0f                	push   $0xf
   82fd1:	e9 aa fe ff ff       	jmp    82e80 <isr_common_stub>

00082fd6 <isr16>:
   82fd6:	fa                   	cli    
   82fd7:	6a 00                	push   $0x0
   82fd9:	6a 10                	push   $0x10
   82fdb:	e9 a0 fe ff ff       	jmp    82e80 <isr_common_stub>

00082fe0 <isr17>:
   82fe0:	fa                   	cli    
   82fe1:	6a 00                	push   $0x0
   82fe3:	6a 11                	push   $0x11
   82fe5:	e9 96 fe ff ff       	jmp    82e80 <isr_common_stub>

00082fea <isr18>:
   82fea:	fa                   	cli    
   82feb:	6a 00                	push   $0x0
   82fed:	6a 12                	push   $0x12
   82fef:	e9 8c fe ff ff       	jmp    82e80 <isr_common_stub>

00082ff4 <isr19>:
   82ff4:	fa                   	cli    
   82ff5:	6a 00                	push   $0x0
   82ff7:	6a 13                	push   $0x13
   82ff9:	e9 82 fe ff ff       	jmp    82e80 <isr_common_stub>

00082ffe <isr20>:
   82ffe:	fa                   	cli    
   82fff:	6a 00                	push   $0x0
   83001:	6a 14                	push   $0x14
   83003:	e9 78 fe ff ff       	jmp    82e80 <isr_common_stub>

00083008 <isr21>:
   83008:	fa                   	cli    
   83009:	6a 00                	push   $0x0
   8300b:	6a 15                	push   $0x15
   8300d:	e9 6e fe ff ff       	jmp    82e80 <isr_common_stub>

00083012 <isr22>:
   83012:	fa                   	cli    
   83013:	6a 00                	push   $0x0
   83015:	6a 16                	push   $0x16
   83017:	e9 64 fe ff ff       	jmp    82e80 <isr_common_stub>

0008301c <isr23>:
   8301c:	fa                   	cli    
   8301d:	6a 00                	push   $0x0
   8301f:	6a 17                	push   $0x17
   83021:	e9 5a fe ff ff       	jmp    82e80 <isr_common_stub>

00083026 <isr24>:
   83026:	fa                   	cli    
   83027:	6a 00                	push   $0x0
   83029:	6a 18                	push   $0x18
   8302b:	e9 50 fe ff ff       	jmp    82e80 <isr_common_stub>

00083030 <isr25>:
   83030:	fa                   	cli    
   83031:	6a 00                	push   $0x0
   83033:	6a 19                	push   $0x19
   83035:	e9 46 fe ff ff       	jmp    82e80 <isr_common_stub>

0008303a <isr26>:
   8303a:	fa                   	cli    
   8303b:	6a 00                	push   $0x0
   8303d:	6a 1a                	push   $0x1a
   8303f:	e9 3c fe ff ff       	jmp    82e80 <isr_common_stub>

00083044 <isr27>:
   83044:	fa                   	cli    
   83045:	6a 00                	push   $0x0
   83047:	6a 1b                	push   $0x1b
   83049:	e9 32 fe ff ff       	jmp    82e80 <isr_common_stub>

0008304e <isr28>:
   8304e:	fa                   	cli    
   8304f:	6a 00                	push   $0x0
   83051:	6a 1c                	push   $0x1c
   83053:	e9 28 fe ff ff       	jmp    82e80 <isr_common_stub>

00083058 <isr29>:
   83058:	fa                   	cli    
   83059:	6a 00                	push   $0x0
   8305b:	6a 1d                	push   $0x1d
   8305d:	e9 1e fe ff ff       	jmp    82e80 <isr_common_stub>

00083062 <isr30>:
   83062:	fa                   	cli    
   83063:	6a 00                	push   $0x0
   83065:	6a 1e                	push   $0x1e
   83067:	e9 14 fe ff ff       	jmp    82e80 <isr_common_stub>

0008306c <isr31>:
   8306c:	fa                   	cli    
   8306d:	6a 00                	push   $0x0
   8306f:	6a 1f                	push   $0x1f
   83071:	e9 0a fe ff ff       	jmp    82e80 <isr_common_stub>

00083076 <irq0>:
   83076:	fa                   	cli    
   83077:	6a 00                	push   $0x0
   83079:	6a 20                	push   $0x20
   8307b:	e9 48 fe ff ff       	jmp    82ec8 <irq_common_stub>

00083080 <irq1>:
   83080:	fa                   	cli    
   83081:	6a 01                	push   $0x1
   83083:	6a 21                	push   $0x21
   83085:	e9 3e fe ff ff       	jmp    82ec8 <irq_common_stub>

0008308a <irq2>:
   8308a:	fa                   	cli    
   8308b:	6a 02                	push   $0x2
   8308d:	6a 22                	push   $0x22
   8308f:	e9 34 fe ff ff       	jmp    82ec8 <irq_common_stub>

00083094 <irq3>:
   83094:	fa                   	cli    
   83095:	6a 03                	push   $0x3
   83097:	6a 23                	push   $0x23
   83099:	e9 2a fe ff ff       	jmp    82ec8 <irq_common_stub>

0008309e <irq4>:
   8309e:	fa                   	cli    
   8309f:	6a 04                	push   $0x4
   830a1:	6a 24                	push   $0x24
   830a3:	e9 20 fe ff ff       	jmp    82ec8 <irq_common_stub>

000830a8 <irq5>:
   830a8:	fa                   	cli    
   830a9:	6a 05                	push   $0x5
   830ab:	6a 25                	push   $0x25
   830ad:	e9 16 fe ff ff       	jmp    82ec8 <irq_common_stub>

000830b2 <irq6>:
   830b2:	fa                   	cli    
   830b3:	6a 06                	push   $0x6
   830b5:	6a 26                	push   $0x26
   830b7:	e9 0c fe ff ff       	jmp    82ec8 <irq_common_stub>

000830bc <irq7>:
   830bc:	fa                   	cli    
   830bd:	6a 07                	push   $0x7
   830bf:	6a 27                	push   $0x27
   830c1:	e9 02 fe ff ff       	jmp    82ec8 <irq_common_stub>

000830c6 <irq8>:
   830c6:	fa                   	cli    
   830c7:	6a 08                	push   $0x8
   830c9:	6a 28                	push   $0x28
   830cb:	e9 f8 fd ff ff       	jmp    82ec8 <irq_common_stub>

000830d0 <irq9>:
   830d0:	fa                   	cli    
   830d1:	6a 09                	push   $0x9
   830d3:	6a 29                	push   $0x29
   830d5:	e9 ee fd ff ff       	jmp    82ec8 <irq_common_stub>

000830da <irq10>:
   830da:	fa                   	cli    
   830db:	6a 0a                	push   $0xa
   830dd:	6a 2a                	push   $0x2a
   830df:	e9 e4 fd ff ff       	jmp    82ec8 <irq_common_stub>

000830e4 <irq11>:
   830e4:	fa                   	cli    
   830e5:	6a 0b                	push   $0xb
   830e7:	6a 2b                	push   $0x2b
   830e9:	e9 da fd ff ff       	jmp    82ec8 <irq_common_stub>

000830ee <irq12>:
   830ee:	fa                   	cli    
   830ef:	6a 0c                	push   $0xc
   830f1:	6a 2c                	push   $0x2c
   830f3:	e9 d0 fd ff ff       	jmp    82ec8 <irq_common_stub>

000830f8 <irq13>:
   830f8:	fa                   	cli    
   830f9:	6a 0d                	push   $0xd
   830fb:	6a 2d                	push   $0x2d
   830fd:	e9 c6 fd ff ff       	jmp    82ec8 <irq_common_stub>

00083102 <irq14>:
   83102:	fa                   	cli    
   83103:	6a 0e                	push   $0xe
   83105:	6a 2e                	push   $0x2e
   83107:	e9 bc fd ff ff       	jmp    82ec8 <irq_common_stub>

0008310c <irq15>:
   8310c:	fa                   	cli    
   8310d:	6a 0f                	push   $0xf
   8310f:	6a 2f                	push   $0x2f
   83111:	e9 b2 fd ff ff       	jmp    82ec8 <irq_common_stub>
   83116:	66 90                	xchg   %ax,%ax
   83118:	66 90                	xchg   %ax,%ax
   8311a:	66 90                	xchg   %ax,%ax
   8311c:	66 90                	xchg   %ax,%ax
   8311e:	66 90                	xchg   %ax,%ax

00083120 <check_cpuid_asm>:
   83120:	9c                   	pushf  
   83121:	58                   	pop    %eax
   83122:	89 c1                	mov    %eax,%ecx
   83124:	35 00 00 20 00       	xor    $0x200000,%eax
   83129:	50                   	push   %eax
   8312a:	9d                   	popf   
   8312b:	9c                   	pushf  
   8312c:	58                   	pop    %eax
   8312d:	51                   	push   %ecx
   8312e:	9d                   	popf   
   8312f:	39 c8                	cmp    %ecx,%eax
   83131:	74 06                	je     83139 <no_cpuid>
   83133:	b8 01 00 00 00       	mov    $0x1,%eax
   83138:	c3                   	ret    

00083139 <no_cpuid>:
   83139:	b8 00 00 00 00       	mov    $0x0,%eax
   8313e:	c3                   	ret    

0008313f <memcpy>:
   8313f:	f3 0f 1e fb          	endbr32 
   83143:	55                   	push   %ebp
   83144:	89 e5                	mov    %esp,%ebp
   83146:	83 ec 10             	sub    $0x10,%esp
   83149:	c7 45 fc 00 00 00 00 	movl   $0x0,-0x4(%ebp)
   83150:	eb 19                	jmp    8316b <memcpy+0x2c>
   83152:	8b 55 0c             	mov    0xc(%ebp),%edx
   83155:	8b 45 fc             	mov    -0x4(%ebp),%eax
   83158:	01 d0                	add    %edx,%eax
   8315a:	8b 4d 08             	mov    0x8(%ebp),%ecx
   8315d:	8b 55 fc             	mov    -0x4(%ebp),%edx
   83160:	01 ca                	add    %ecx,%edx
   83162:	0f b6 00             	movzbl (%eax),%eax
   83165:	88 02                	mov    %al,(%edx)
   83167:	83 45 fc 01          	addl   $0x1,-0x4(%ebp)
   8316b:	8b 45 fc             	mov    -0x4(%ebp),%eax
   8316e:	3b 45 10             	cmp    0x10(%ebp),%eax
   83171:	72 df                	jb     83152 <memcpy+0x13>
   83173:	8b 45 08             	mov    0x8(%ebp),%eax
   83176:	c9                   	leave  
   83177:	c3                   	ret    

00083178 <memset>:
   83178:	f3 0f 1e fb          	endbr32 
   8317c:	55                   	push   %ebp
   8317d:	89 e5                	mov    %esp,%ebp
   8317f:	83 ec 10             	sub    $0x10,%esp
   83182:	c7 45 fc 00 00 00 00 	movl   $0x0,-0x4(%ebp)
   83189:	eb 11                	jmp    8319c <memset+0x24>
   8318b:	8b 55 08             	mov    0x8(%ebp),%edx
   8318e:	8b 45 fc             	mov    -0x4(%ebp),%eax
   83191:	01 d0                	add    %edx,%eax
   83193:	8b 55 0c             	mov    0xc(%ebp),%edx
   83196:	88 10                	mov    %dl,(%eax)
   83198:	83 45 fc 01          	addl   $0x1,-0x4(%ebp)
   8319c:	8b 45 fc             	mov    -0x4(%ebp),%eax
   8319f:	3b 45 10             	cmp    0x10(%ebp),%eax
   831a2:	72 e7                	jb     8318b <memset+0x13>
   831a4:	8b 45 08             	mov    0x8(%ebp),%eax
   831a7:	c9                   	leave  
   831a8:	c3                   	ret    

000831a9 <cmpstr>:
   831a9:	f3 0f 1e fb          	endbr32 
   831ad:	55                   	push   %ebp
   831ae:	89 e5                	mov    %esp,%ebp
   831b0:	83 ec 10             	sub    $0x10,%esp
   831b3:	c7 45 fc 00 00 00 00 	movl   $0x0,-0x4(%ebp)
   831ba:	eb 25                	jmp    831e1 <cmpstr+0x38>
   831bc:	8b 55 fc             	mov    -0x4(%ebp),%edx
   831bf:	8b 45 08             	mov    0x8(%ebp),%eax
   831c2:	01 d0                	add    %edx,%eax
   831c4:	0f b6 10             	movzbl (%eax),%edx
   831c7:	8b 4d fc             	mov    -0x4(%ebp),%ecx
   831ca:	8b 45 0c             	mov    0xc(%ebp),%eax
   831cd:	01 c8                	add    %ecx,%eax
   831cf:	0f b6 00             	movzbl (%eax),%eax
   831d2:	38 c2                	cmp    %al,%dl
   831d4:	74 07                	je     831dd <cmpstr+0x34>
   831d6:	b8 00 00 00 00       	mov    $0x0,%eax
   831db:	eb 48                	jmp    83225 <cmpstr+0x7c>
   831dd:	83 45 fc 01          	addl   $0x1,-0x4(%ebp)
   831e1:	8b 55 fc             	mov    -0x4(%ebp),%edx
   831e4:	8b 45 08             	mov    0x8(%ebp),%eax
   831e7:	01 d0                	add    %edx,%eax
   831e9:	0f b6 00             	movzbl (%eax),%eax
   831ec:	84 c0                	test   %al,%al
   831ee:	74 0f                	je     831ff <cmpstr+0x56>
   831f0:	8b 55 fc             	mov    -0x4(%ebp),%edx
   831f3:	8b 45 0c             	mov    0xc(%ebp),%eax
   831f6:	01 d0                	add    %edx,%eax
   831f8:	0f b6 00             	movzbl (%eax),%eax
   831fb:	84 c0                	test   %al,%al
   831fd:	75 bd                	jne    831bc <cmpstr+0x13>
   831ff:	8b 55 fc             	mov    -0x4(%ebp),%edx
   83202:	8b 45 08             	mov    0x8(%ebp),%eax
   83205:	01 d0                	add    %edx,%eax
   83207:	0f b6 10             	movzbl (%eax),%edx
   8320a:	8b 4d fc             	mov    -0x4(%ebp),%ecx
   8320d:	8b 45 0c             	mov    0xc(%ebp),%eax
   83210:	01 c8                	add    %ecx,%eax
   83212:	0f b6 00             	movzbl (%eax),%eax
   83215:	38 c2                	cmp    %al,%dl
   83217:	74 07                	je     83220 <cmpstr+0x77>
   83219:	b8 00 00 00 00       	mov    $0x0,%eax
   8321e:	eb 05                	jmp    83225 <cmpstr+0x7c>
   83220:	b8 01 00 00 00       	mov    $0x1,%eax
   83225:	c9                   	leave  
   83226:	c3                   	ret    

00083227 <error>:
   83227:	f3 0f 1e fb          	endbr32 
   8322b:	55                   	push   %ebp
   8322c:	89 e5                	mov    %esp,%ebp
   8322e:	83 ec 08             	sub    $0x8,%esp
   83231:	a1 c0 b0 0a 00       	mov    0xab0c0,%eax
   83236:	85 c0                	test   %eax,%eax
   83238:	74 10                	je     8324a <error+0x23>
   8323a:	a1 c0 b0 0a 00       	mov    0xab0c0,%eax
   8323f:	83 ec 0c             	sub    $0xc,%esp
   83242:	ff 75 08             	pushl  0x8(%ebp)
   83245:	ff d0                	call   *%eax
   83247:	83 c4 10             	add    $0x10,%esp
   8324a:	90                   	nop
   8324b:	c9                   	leave  
   8324c:	c3                   	ret    

0008324d <error_register>:
   8324d:	f3 0f 1e fb          	endbr32 
   83251:	55                   	push   %ebp
   83252:	89 e5                	mov    %esp,%ebp
   83254:	8b 45 08             	mov    0x8(%ebp),%eax
   83257:	a3 c0 b0 0a 00       	mov    %eax,0xab0c0
   8325c:	90                   	nop
   8325d:	5d                   	pop    %ebp
   8325e:	c3                   	ret    

0008325f <error_handler>:
   8325f:	f3 0f 1e fb          	endbr32 
   83263:	55                   	push   %ebp
   83264:	89 e5                	mov    %esp,%ebp
   83266:	fa                   	cli    
   83267:	eb fe                	jmp    83267 <error_handler+0x8>

00083269 <kernel_main>:
   83269:	f3 0f 1e fb          	endbr32 
   8326d:	55                   	push   %ebp
   8326e:	89 e5                	mov    %esp,%ebp
   83270:	83 ec 08             	sub    $0x8,%esp
   83273:	8b 45 08             	mov    0x8(%ebp),%eax
   83276:	a3 e8 b0 0a 00       	mov    %eax,0xab0e8
   8327b:	e8 e7 3a 00 00       	call   86d67 <vga_init>
   83280:	eb fe                	jmp    83280 <kernel_main+0x17>

00083282 <kmm_init>:
   83282:	f3 0f 1e fb          	endbr32 
   83286:	55                   	push   %ebp
   83287:	89 e5                	mov    %esp,%ebp
   83289:	a1 20 ae 08 00       	mov    0x8ae20,%eax
   8328e:	c7 00 00 00 00 00    	movl   $0x0,(%eax)
   83294:	c7 40 04 00 00 00 00 	movl   $0x0,0x4(%eax)
   8329b:	90                   	nop
   8329c:	5d                   	pop    %ebp
   8329d:	c3                   	ret    

0008329e <parray>:
   8329e:	f3 0f 1e fb          	endbr32 
   832a2:	55                   	push   %ebp
   832a3:	89 e5                	mov    %esp,%ebp
   832a5:	83 ec 08             	sub    $0x8,%esp
   832a8:	8b 45 08             	mov    0x8(%ebp),%eax
   832ab:	c7 40 04 00 00 00 00 	movl   $0x0,0x4(%eax)
   832b2:	8b 45 08             	mov    0x8(%ebp),%eax
   832b5:	8b 55 0c             	mov    0xc(%ebp),%edx
   832b8:	89 50 08             	mov    %edx,0x8(%eax)
   832bb:	8b 45 08             	mov    0x8(%ebp),%eax
   832be:	8b 40 08             	mov    0x8(%eax),%eax
   832c1:	c1 e0 02             	shl    $0x2,%eax
   832c4:	83 ec 0c             	sub    $0xc,%esp
   832c7:	50                   	push   %eax
   832c8:	e8 68 09 00 00       	call   83c35 <kmalloc>
   832cd:	83 c4 10             	add    $0x10,%esp
   832d0:	8b 55 08             	mov    0x8(%ebp),%edx
   832d3:	89 02                	mov    %eax,(%edx)
   832d5:	8b 45 08             	mov    0x8(%ebp),%eax
   832d8:	8b 00                	mov    (%eax),%eax
   832da:	85 c0                	test   %eax,%eax
   832dc:	75 07                	jne    832e5 <parray+0x47>
   832de:	b8 ff ff ff ff       	mov    $0xffffffff,%eax
   832e3:	eb 05                	jmp    832ea <parray+0x4c>
   832e5:	b8 00 00 00 00       	mov    $0x0,%eax
   832ea:	c9                   	leave  
   832eb:	c3                   	ret    

000832ec <parray_push>:
   832ec:	f3 0f 1e fb          	endbr32 
   832f0:	55                   	push   %ebp
   832f1:	89 e5                	mov    %esp,%ebp
   832f3:	53                   	push   %ebx
   832f4:	83 ec 04             	sub    $0x4,%esp
   832f7:	8b 45 08             	mov    0x8(%ebp),%eax
   832fa:	8b 50 04             	mov    0x4(%eax),%edx
   832fd:	8b 45 08             	mov    0x8(%ebp),%eax
   83300:	8b 40 08             	mov    0x8(%eax),%eax
   83303:	39 c2                	cmp    %eax,%edx
   83305:	72 33                	jb     8333a <parray_push+0x4e>
   83307:	8b 45 08             	mov    0x8(%ebp),%eax
   8330a:	8b 40 08             	mov    0x8(%eax),%eax
   8330d:	8d 50 0a             	lea    0xa(%eax),%edx
   83310:	8b 45 08             	mov    0x8(%ebp),%eax
   83313:	89 50 08             	mov    %edx,0x8(%eax)
   83316:	8b 45 08             	mov    0x8(%ebp),%eax
   83319:	8b 40 08             	mov    0x8(%eax),%eax
   8331c:	8d 14 85 00 00 00 00 	lea    0x0(,%eax,4),%edx
   83323:	8b 45 08             	mov    0x8(%ebp),%eax
   83326:	8b 00                	mov    (%eax),%eax
   83328:	83 ec 08             	sub    $0x8,%esp
   8332b:	52                   	push   %edx
   8332c:	50                   	push   %eax
   8332d:	e8 5b 06 00 00       	call   8398d <krealloc>
   83332:	83 c4 10             	add    $0x10,%esp
   83335:	8b 55 08             	mov    0x8(%ebp),%edx
   83338:	89 02                	mov    %eax,(%edx)
   8333a:	8b 45 08             	mov    0x8(%ebp),%eax
   8333d:	8b 18                	mov    (%eax),%ebx
   8333f:	8b 45 08             	mov    0x8(%ebp),%eax
   83342:	8b 40 04             	mov    0x4(%eax),%eax
   83345:	8d 48 01             	lea    0x1(%eax),%ecx
   83348:	8b 55 08             	mov    0x8(%ebp),%edx
   8334b:	89 4a 04             	mov    %ecx,0x4(%edx)
   8334e:	c1 e0 02             	shl    $0x2,%eax
   83351:	8d 14 03             	lea    (%ebx,%eax,1),%edx
   83354:	8b 45 0c             	mov    0xc(%ebp),%eax
   83357:	89 02                	mov    %eax,(%edx)
   83359:	b8 00 00 00 00       	mov    $0x0,%eax
   8335e:	8b 5d fc             	mov    -0x4(%ebp),%ebx
   83361:	c9                   	leave  
   83362:	c3                   	ret    

00083363 <parray_remove>:
   83363:	f3 0f 1e fb          	endbr32 
   83367:	55                   	push   %ebp
   83368:	89 e5                	mov    %esp,%ebp
   8336a:	83 ec 10             	sub    $0x10,%esp
   8336d:	c7 45 fc 00 00 00 00 	movl   $0x0,-0x4(%ebp)
   83374:	eb 63                	jmp    833d9 <parray_remove+0x76>
   83376:	8b 45 08             	mov    0x8(%ebp),%eax
   83379:	8b 00                	mov    (%eax),%eax
   8337b:	8b 55 fc             	mov    -0x4(%ebp),%edx
   8337e:	c1 e2 02             	shl    $0x2,%edx
   83381:	01 d0                	add    %edx,%eax
   83383:	8b 00                	mov    (%eax),%eax
   83385:	39 45 0c             	cmp    %eax,0xc(%ebp)
   83388:	75 4b                	jne    833d5 <parray_remove+0x72>
   8338a:	8b 45 08             	mov    0x8(%ebp),%eax
   8338d:	8b 40 04             	mov    0x4(%eax),%eax
   83390:	8d 50 ff             	lea    -0x1(%eax),%edx
   83393:	8b 45 08             	mov    0x8(%ebp),%eax
   83396:	89 50 04             	mov    %edx,0x4(%eax)
   83399:	eb 26                	jmp    833c1 <parray_remove+0x5e>
   8339b:	8b 45 08             	mov    0x8(%ebp),%eax
   8339e:	8b 00                	mov    (%eax),%eax
   833a0:	8b 55 fc             	mov    -0x4(%ebp),%edx
   833a3:	83 c2 01             	add    $0x1,%edx
   833a6:	c1 e2 02             	shl    $0x2,%edx
   833a9:	8d 0c 10             	lea    (%eax,%edx,1),%ecx
   833ac:	8b 45 08             	mov    0x8(%ebp),%eax
   833af:	8b 00                	mov    (%eax),%eax
   833b1:	8b 55 fc             	mov    -0x4(%ebp),%edx
   833b4:	c1 e2 02             	shl    $0x2,%edx
   833b7:	01 c2                	add    %eax,%edx
   833b9:	8b 01                	mov    (%ecx),%eax
   833bb:	89 02                	mov    %eax,(%edx)
   833bd:	83 45 fc 01          	addl   $0x1,-0x4(%ebp)
   833c1:	8b 45 08             	mov    0x8(%ebp),%eax
   833c4:	8b 50 04             	mov    0x4(%eax),%edx
   833c7:	8b 45 fc             	mov    -0x4(%ebp),%eax
   833ca:	39 c2                	cmp    %eax,%edx
   833cc:	77 cd                	ja     8339b <parray_remove+0x38>
   833ce:	b8 00 00 00 00       	mov    $0x0,%eax
   833d3:	eb 16                	jmp    833eb <parray_remove+0x88>
   833d5:	83 45 fc 01          	addl   $0x1,-0x4(%ebp)
   833d9:	8b 45 08             	mov    0x8(%ebp),%eax
   833dc:	8b 50 04             	mov    0x4(%eax),%edx
   833df:	8b 45 fc             	mov    -0x4(%ebp),%eax
   833e2:	39 c2                	cmp    %eax,%edx
   833e4:	77 90                	ja     83376 <parray_remove+0x13>
   833e6:	b8 ff ff ff ff       	mov    $0xffffffff,%eax
   833eb:	c9                   	leave  
   833ec:	c3                   	ret    

000833ed <parray_get>:
   833ed:	f3 0f 1e fb          	endbr32 
   833f1:	55                   	push   %ebp
   833f2:	89 e5                	mov    %esp,%ebp
   833f4:	8b 45 08             	mov    0x8(%ebp),%eax
   833f7:	8b 40 04             	mov    0x4(%eax),%eax
   833fa:	39 45 0c             	cmp    %eax,0xc(%ebp)
   833fd:	73 11                	jae    83410 <parray_get+0x23>
   833ff:	8b 45 08             	mov    0x8(%ebp),%eax
   83402:	8b 00                	mov    (%eax),%eax
   83404:	8b 55 0c             	mov    0xc(%ebp),%edx
   83407:	c1 e2 02             	shl    $0x2,%edx
   8340a:	01 d0                	add    %edx,%eax
   8340c:	8b 00                	mov    (%eax),%eax
   8340e:	eb 05                	jmp    83415 <parray_get+0x28>
   83410:	b8 00 00 00 00       	mov    $0x0,%eax
   83415:	5d                   	pop    %ebp
   83416:	c3                   	ret    

00083417 <parray_free>:
   83417:	f3 0f 1e fb          	endbr32 
   8341b:	55                   	push   %ebp
   8341c:	89 e5                	mov    %esp,%ebp
   8341e:	83 ec 08             	sub    $0x8,%esp
   83421:	8b 45 08             	mov    0x8(%ebp),%eax
   83424:	8b 00                	mov    (%eax),%eax
   83426:	83 ec 0c             	sub    $0xc,%esp
   83429:	50                   	push   %eax
   8342a:	e8 b0 08 00 00       	call   83cdf <kfree>
   8342f:	83 c4 10             	add    $0x10,%esp
   83432:	90                   	nop
   83433:	c9                   	leave  
   83434:	c3                   	ret    

00083435 <array>:
   83435:	f3 0f 1e fb          	endbr32 
   83439:	55                   	push   %ebp
   8343a:	89 e5                	mov    %esp,%ebp
   8343c:	83 ec 08             	sub    $0x8,%esp
   8343f:	8b 45 08             	mov    0x8(%ebp),%eax
   83442:	c7 40 04 00 00 00 00 	movl   $0x0,0x4(%eax)
   83449:	8b 45 08             	mov    0x8(%ebp),%eax
   8344c:	8b 55 0c             	mov    0xc(%ebp),%edx
   8344f:	89 50 08             	mov    %edx,0x8(%eax)
   83452:	8b 45 08             	mov    0x8(%ebp),%eax
   83455:	8b 55 10             	mov    0x10(%ebp),%edx
   83458:	89 50 0c             	mov    %edx,0xc(%eax)
   8345b:	8b 45 08             	mov    0x8(%ebp),%eax
   8345e:	8b 50 0c             	mov    0xc(%eax),%edx
   83461:	8b 45 08             	mov    0x8(%ebp),%eax
   83464:	8b 40 08             	mov    0x8(%eax),%eax
   83467:	0f af c2             	imul   %edx,%eax
   8346a:	83 ec 0c             	sub    $0xc,%esp
   8346d:	50                   	push   %eax
   8346e:	e8 c2 07 00 00       	call   83c35 <kmalloc>
   83473:	83 c4 10             	add    $0x10,%esp
   83476:	8b 55 08             	mov    0x8(%ebp),%edx
   83479:	89 02                	mov    %eax,(%edx)
   8347b:	8b 45 08             	mov    0x8(%ebp),%eax
   8347e:	8b 00                	mov    (%eax),%eax
   83480:	85 c0                	test   %eax,%eax
   83482:	75 07                	jne    8348b <array+0x56>
   83484:	b8 00 00 00 00       	mov    $0x0,%eax
   83489:	eb 05                	jmp    83490 <array+0x5b>
   8348b:	b8 01 00 00 00       	mov    $0x1,%eax
   83490:	c9                   	leave  
   83491:	c3                   	ret    

00083492 <array_push>:
   83492:	f3 0f 1e fb          	endbr32 
   83496:	55                   	push   %ebp
   83497:	89 e5                	mov    %esp,%ebp
   83499:	53                   	push   %ebx
   8349a:	83 ec 04             	sub    $0x4,%esp
   8349d:	8b 45 08             	mov    0x8(%ebp),%eax
   834a0:	8b 50 04             	mov    0x4(%eax),%edx
   834a3:	8b 45 08             	mov    0x8(%ebp),%eax
   834a6:	8b 40 0c             	mov    0xc(%eax),%eax
   834a9:	39 c2                	cmp    %eax,%edx
   834ab:	72 35                	jb     834e2 <array_push+0x50>
   834ad:	8b 45 08             	mov    0x8(%ebp),%eax
   834b0:	8b 40 0c             	mov    0xc(%eax),%eax
   834b3:	8d 50 0a             	lea    0xa(%eax),%edx
   834b6:	8b 45 08             	mov    0x8(%ebp),%eax
   834b9:	89 50 0c             	mov    %edx,0xc(%eax)
   834bc:	8b 45 08             	mov    0x8(%ebp),%eax
   834bf:	8b 50 0c             	mov    0xc(%eax),%edx
   834c2:	8b 45 08             	mov    0x8(%ebp),%eax
   834c5:	8b 40 08             	mov    0x8(%eax),%eax
   834c8:	0f af d0             	imul   %eax,%edx
   834cb:	8b 45 08             	mov    0x8(%ebp),%eax
   834ce:	8b 00                	mov    (%eax),%eax
   834d0:	83 ec 08             	sub    $0x8,%esp
   834d3:	52                   	push   %edx
   834d4:	50                   	push   %eax
   834d5:	e8 b3 04 00 00       	call   8398d <krealloc>
   834da:	83 c4 10             	add    $0x10,%esp
   834dd:	8b 55 08             	mov    0x8(%ebp),%edx
   834e0:	89 02                	mov    %eax,(%edx)
   834e2:	8b 45 08             	mov    0x8(%ebp),%eax
   834e5:	8b 40 08             	mov    0x8(%eax),%eax
   834e8:	8b 55 08             	mov    0x8(%ebp),%edx
   834eb:	8b 0a                	mov    (%edx),%ecx
   834ed:	8b 55 08             	mov    0x8(%ebp),%edx
   834f0:	8b 5a 04             	mov    0x4(%edx),%ebx
   834f3:	8b 55 08             	mov    0x8(%ebp),%edx
   834f6:	8b 52 08             	mov    0x8(%edx),%edx
   834f9:	0f af d3             	imul   %ebx,%edx
   834fc:	c1 e2 02             	shl    $0x2,%edx
   834ff:	01 ca                	add    %ecx,%edx
   83501:	83 ec 04             	sub    $0x4,%esp
   83504:	50                   	push   %eax
   83505:	ff 75 0c             	pushl  0xc(%ebp)
   83508:	52                   	push   %edx
   83509:	e8 31 fc ff ff       	call   8313f <memcpy>
   8350e:	83 c4 10             	add    $0x10,%esp
   83511:	8b 45 08             	mov    0x8(%ebp),%eax
   83514:	8b 40 04             	mov    0x4(%eax),%eax
   83517:	8d 50 01             	lea    0x1(%eax),%edx
   8351a:	8b 45 08             	mov    0x8(%ebp),%eax
   8351d:	89 50 04             	mov    %edx,0x4(%eax)
   83520:	b8 01 00 00 00       	mov    $0x1,%eax
   83525:	8b 5d fc             	mov    -0x4(%ebp),%ebx
   83528:	c9                   	leave  
   83529:	c3                   	ret    

0008352a <array_insert>:
   8352a:	f3 0f 1e fb          	endbr32 
   8352e:	55                   	push   %ebp
   8352f:	89 e5                	mov    %esp,%ebp
   83531:	56                   	push   %esi
   83532:	53                   	push   %ebx
   83533:	8b 45 08             	mov    0x8(%ebp),%eax
   83536:	8b 50 04             	mov    0x4(%eax),%edx
   83539:	8b 45 08             	mov    0x8(%ebp),%eax
   8353c:	8b 40 0c             	mov    0xc(%eax),%eax
   8353f:	39 c2                	cmp    %eax,%edx
   83541:	72 35                	jb     83578 <array_insert+0x4e>
   83543:	8b 45 08             	mov    0x8(%ebp),%eax
   83546:	8b 40 0c             	mov    0xc(%eax),%eax
   83549:	8d 50 0a             	lea    0xa(%eax),%edx
   8354c:	8b 45 08             	mov    0x8(%ebp),%eax
   8354f:	89 50 0c             	mov    %edx,0xc(%eax)
   83552:	8b 45 08             	mov    0x8(%ebp),%eax
   83555:	8b 50 0c             	mov    0xc(%eax),%edx
   83558:	8b 45 08             	mov    0x8(%ebp),%eax
   8355b:	8b 40 08             	mov    0x8(%eax),%eax
   8355e:	0f af d0             	imul   %eax,%edx
   83561:	8b 45 08             	mov    0x8(%ebp),%eax
   83564:	8b 00                	mov    (%eax),%eax
   83566:	83 ec 08             	sub    $0x8,%esp
   83569:	52                   	push   %edx
   8356a:	50                   	push   %eax
   8356b:	e8 1d 04 00 00       	call   8398d <krealloc>
   83570:	83 c4 10             	add    $0x10,%esp
   83573:	8b 55 08             	mov    0x8(%ebp),%edx
   83576:	89 02                	mov    %eax,(%edx)
   83578:	8b 45 08             	mov    0x8(%ebp),%eax
   8357b:	8b 40 04             	mov    0x4(%eax),%eax
   8357e:	8d 48 01             	lea    0x1(%eax),%ecx
   83581:	8b 55 08             	mov    0x8(%ebp),%edx
   83584:	89 4a 04             	mov    %ecx,0x4(%edx)
   83587:	2b 45 10             	sub    0x10(%ebp),%eax
   8358a:	89 c2                	mov    %eax,%edx
   8358c:	8b 45 08             	mov    0x8(%ebp),%eax
   8358f:	8b 40 08             	mov    0x8(%eax),%eax
   83592:	0f af c2             	imul   %edx,%eax
   83595:	8b 55 08             	mov    0x8(%ebp),%edx
   83598:	8b 0a                	mov    (%edx),%ecx
   8359a:	8b 55 08             	mov    0x8(%ebp),%edx
   8359d:	8b 52 08             	mov    0x8(%edx),%edx
   835a0:	0f af 55 10          	imul   0x10(%ebp),%edx
   835a4:	c1 e2 02             	shl    $0x2,%edx
   835a7:	01 d1                	add    %edx,%ecx
   835a9:	8b 55 08             	mov    0x8(%ebp),%edx
   835ac:	8b 1a                	mov    (%edx),%ebx
   835ae:	8b 55 10             	mov    0x10(%ebp),%edx
   835b1:	8d 72 01             	lea    0x1(%edx),%esi
   835b4:	8b 55 08             	mov    0x8(%ebp),%edx
   835b7:	8b 52 08             	mov    0x8(%edx),%edx
   835ba:	0f af d6             	imul   %esi,%edx
   835bd:	c1 e2 02             	shl    $0x2,%edx
   835c0:	01 da                	add    %ebx,%edx
   835c2:	83 ec 04             	sub    $0x4,%esp
   835c5:	50                   	push   %eax
   835c6:	51                   	push   %ecx
   835c7:	52                   	push   %edx
   835c8:	e8 72 fb ff ff       	call   8313f <memcpy>
   835cd:	83 c4 10             	add    $0x10,%esp
   835d0:	8b 45 08             	mov    0x8(%ebp),%eax
   835d3:	8b 40 08             	mov    0x8(%eax),%eax
   835d6:	8b 55 08             	mov    0x8(%ebp),%edx
   835d9:	8b 0a                	mov    (%edx),%ecx
   835db:	8b 55 08             	mov    0x8(%ebp),%edx
   835de:	8b 52 08             	mov    0x8(%edx),%edx
   835e1:	0f af 55 10          	imul   0x10(%ebp),%edx
   835e5:	c1 e2 02             	shl    $0x2,%edx
   835e8:	01 ca                	add    %ecx,%edx
   835ea:	83 ec 04             	sub    $0x4,%esp
   835ed:	50                   	push   %eax
   835ee:	ff 75 0c             	pushl  0xc(%ebp)
   835f1:	52                   	push   %edx
   835f2:	e8 48 fb ff ff       	call   8313f <memcpy>
   835f7:	83 c4 10             	add    $0x10,%esp
   835fa:	b8 01 00 00 00       	mov    $0x1,%eax
   835ff:	8d 65 f8             	lea    -0x8(%ebp),%esp
   83602:	5b                   	pop    %ebx
   83603:	5e                   	pop    %esi
   83604:	5d                   	pop    %ebp
   83605:	c3                   	ret    

00083606 <array_remove>:
   83606:	f3 0f 1e fb          	endbr32 
   8360a:	55                   	push   %ebp
   8360b:	89 e5                	mov    %esp,%ebp
   8360d:	53                   	push   %ebx
   8360e:	83 ec 04             	sub    $0x4,%esp
   83611:	8b 45 08             	mov    0x8(%ebp),%eax
   83614:	8b 40 04             	mov    0x4(%eax),%eax
   83617:	39 45 0c             	cmp    %eax,0xc(%ebp)
   8361a:	72 07                	jb     83623 <array_remove+0x1d>
   8361c:	b8 00 00 00 00       	mov    $0x0,%eax
   83621:	eb 63                	jmp    83686 <array_remove+0x80>
   83623:	8b 45 08             	mov    0x8(%ebp),%eax
   83626:	8b 40 04             	mov    0x4(%eax),%eax
   83629:	8d 50 ff             	lea    -0x1(%eax),%edx
   8362c:	8b 45 08             	mov    0x8(%ebp),%eax
   8362f:	89 50 04             	mov    %edx,0x4(%eax)
   83632:	8b 45 08             	mov    0x8(%ebp),%eax
   83635:	8b 40 04             	mov    0x4(%eax),%eax
   83638:	2b 45 0c             	sub    0xc(%ebp),%eax
   8363b:	89 c2                	mov    %eax,%edx
   8363d:	8b 45 08             	mov    0x8(%ebp),%eax
   83640:	8b 40 08             	mov    0x8(%eax),%eax
   83643:	0f af c2             	imul   %edx,%eax
   83646:	8b 55 08             	mov    0x8(%ebp),%edx
   83649:	8b 0a                	mov    (%edx),%ecx
   8364b:	8b 55 0c             	mov    0xc(%ebp),%edx
   8364e:	8d 5a 01             	lea    0x1(%edx),%ebx
   83651:	8b 55 08             	mov    0x8(%ebp),%edx
   83654:	8b 52 08             	mov    0x8(%edx),%edx
   83657:	0f af d3             	imul   %ebx,%edx
   8365a:	c1 e2 02             	shl    $0x2,%edx
   8365d:	01 d1                	add    %edx,%ecx
   8365f:	8b 55 08             	mov    0x8(%ebp),%edx
   83662:	8b 1a                	mov    (%edx),%ebx
   83664:	8b 55 08             	mov    0x8(%ebp),%edx
   83667:	8b 52 08             	mov    0x8(%edx),%edx
   8366a:	0f af 55 0c          	imul   0xc(%ebp),%edx
   8366e:	c1 e2 02             	shl    $0x2,%edx
   83671:	01 da                	add    %ebx,%edx
   83673:	83 ec 04             	sub    $0x4,%esp
   83676:	50                   	push   %eax
   83677:	51                   	push   %ecx
   83678:	52                   	push   %edx
   83679:	e8 c1 fa ff ff       	call   8313f <memcpy>
   8367e:	83 c4 10             	add    $0x10,%esp
   83681:	b8 01 00 00 00       	mov    $0x1,%eax
   83686:	8b 5d fc             	mov    -0x4(%ebp),%ebx
   83689:	c9                   	leave  
   8368a:	c3                   	ret    

0008368b <array_get>:
   8368b:	f3 0f 1e fb          	endbr32 
   8368f:	55                   	push   %ebp
   83690:	89 e5                	mov    %esp,%ebp
   83692:	83 ec 08             	sub    $0x8,%esp
   83695:	8b 45 08             	mov    0x8(%ebp),%eax
   83698:	8b 40 04             	mov    0x4(%eax),%eax
   8369b:	39 45 0c             	cmp    %eax,0xc(%ebp)
   8369e:	72 07                	jb     836a7 <array_get+0x1c>
   836a0:	b8 00 00 00 00       	mov    $0x0,%eax
   836a5:	eb 2f                	jmp    836d6 <array_get+0x4b>
   836a7:	8b 45 08             	mov    0x8(%ebp),%eax
   836aa:	8b 40 08             	mov    0x8(%eax),%eax
   836ad:	8b 55 08             	mov    0x8(%ebp),%edx
   836b0:	8b 0a                	mov    (%edx),%ecx
   836b2:	8b 55 08             	mov    0x8(%ebp),%edx
   836b5:	8b 52 08             	mov    0x8(%edx),%edx
   836b8:	0f af 55 0c          	imul   0xc(%ebp),%edx
   836bc:	c1 e2 02             	shl    $0x2,%edx
   836bf:	01 ca                	add    %ecx,%edx
   836c1:	83 ec 04             	sub    $0x4,%esp
   836c4:	50                   	push   %eax
   836c5:	52                   	push   %edx
   836c6:	ff 75 10             	pushl  0x10(%ebp)
   836c9:	e8 71 fa ff ff       	call   8313f <memcpy>
   836ce:	83 c4 10             	add    $0x10,%esp
   836d1:	b8 01 00 00 00       	mov    $0x1,%eax
   836d6:	c9                   	leave  
   836d7:	c3                   	ret    

000836d8 <array_free>:
   836d8:	f3 0f 1e fb          	endbr32 
   836dc:	55                   	push   %ebp
   836dd:	89 e5                	mov    %esp,%ebp
   836df:	83 ec 08             	sub    $0x8,%esp
   836e2:	8b 45 08             	mov    0x8(%ebp),%eax
   836e5:	8b 00                	mov    (%eax),%eax
   836e7:	83 ec 0c             	sub    $0xc,%esp
   836ea:	50                   	push   %eax
   836eb:	e8 ef 05 00 00       	call   83cdf <kfree>
   836f0:	83 c4 10             	add    $0x10,%esp
   836f3:	90                   	nop
   836f4:	c9                   	leave  
   836f5:	c3                   	ret    

000836f6 <kmm_addEntry>:
   836f6:	f3 0f 1e fb          	endbr32 
   836fa:	55                   	push   %ebp
   836fb:	89 e5                	mov    %esp,%ebp
   836fd:	53                   	push   %ebx
   836fe:	83 ec 10             	sub    $0x10,%esp
   83701:	a1 00 b9 0a 00       	mov    0xab900,%eax
   83706:	3d fe ff 00 00       	cmp    $0xfffe,%eax
   8370b:	7e 0a                	jle    83717 <kmm_addEntry+0x21>
   8370d:	b8 00 00 00 00       	mov    $0x0,%eax
   83712:	e9 b5 00 00 00       	jmp    837cc <kmm_addEntry+0xd6>
   83717:	c7 45 f8 00 00 00 00 	movl   $0x0,-0x8(%ebp)
   8371e:	eb 2b                	jmp    8374b <kmm_addEntry+0x55>
   83720:	81 7d f8 fe ff 00 00 	cmpl   $0xfffe,-0x8(%ebp)
   83727:	7e 0a                	jle    83733 <kmm_addEntry+0x3d>
   83729:	b8 00 00 00 00       	mov    $0x0,%eax
   8372e:	e9 99 00 00 00       	jmp    837cc <kmm_addEntry+0xd6>
   83733:	a1 20 ae 08 00       	mov    0x8ae20,%eax
   83738:	8b 55 f8             	mov    -0x8(%ebp),%edx
   8373b:	c1 e2 03             	shl    $0x3,%edx
   8373e:	01 d0                	add    %edx,%eax
   83740:	8b 00                	mov    (%eax),%eax
   83742:	39 45 08             	cmp    %eax,0x8(%ebp)
   83745:	72 19                	jb     83760 <kmm_addEntry+0x6a>
   83747:	83 45 f8 01          	addl   $0x1,-0x8(%ebp)
   8374b:	a1 20 ae 08 00       	mov    0x8ae20,%eax
   83750:	8b 55 f8             	mov    -0x8(%ebp),%edx
   83753:	c1 e2 03             	shl    $0x3,%edx
   83756:	01 d0                	add    %edx,%eax
   83758:	8b 00                	mov    (%eax),%eax
   8375a:	85 c0                	test   %eax,%eax
   8375c:	75 c2                	jne    83720 <kmm_addEntry+0x2a>
   8375e:	eb 01                	jmp    83761 <kmm_addEntry+0x6b>
   83760:	90                   	nop
   83761:	a1 00 b9 0a 00       	mov    0xab900,%eax
   83766:	89 45 f4             	mov    %eax,-0xc(%ebp)
   83769:	eb 2f                	jmp    8379a <kmm_addEntry+0xa4>
   8376b:	a1 20 ae 08 00       	mov    0x8ae20,%eax
   83770:	8b 55 f4             	mov    -0xc(%ebp),%edx
   83773:	81 c2 ff ff ff 1f    	add    $0x1fffffff,%edx
   83779:	c1 e2 03             	shl    $0x3,%edx
   8377c:	01 d0                	add    %edx,%eax
   8377e:	8b 15 20 ae 08 00    	mov    0x8ae20,%edx
   83784:	8b 4d f4             	mov    -0xc(%ebp),%ecx
   83787:	c1 e1 03             	shl    $0x3,%ecx
   8378a:	01 d1                	add    %edx,%ecx
   8378c:	8b 50 04             	mov    0x4(%eax),%edx
   8378f:	8b 00                	mov    (%eax),%eax
   83791:	89 01                	mov    %eax,(%ecx)
   83793:	89 51 04             	mov    %edx,0x4(%ecx)
   83796:	83 6d f4 01          	subl   $0x1,-0xc(%ebp)
   8379a:	8b 45 f4             	mov    -0xc(%ebp),%eax
   8379d:	3b 45 f8             	cmp    -0x8(%ebp),%eax
   837a0:	7d c9                	jge    8376b <kmm_addEntry+0x75>
   837a2:	a1 20 ae 08 00       	mov    0x8ae20,%eax
   837a7:	8b 55 f8             	mov    -0x8(%ebp),%edx
   837aa:	c1 e2 03             	shl    $0x3,%edx
   837ad:	01 d0                	add    %edx,%eax
   837af:	8b 55 08             	mov    0x8(%ebp),%edx
   837b2:	89 10                	mov    %edx,(%eax)
   837b4:	8b 55 0c             	mov    0xc(%ebp),%edx
   837b7:	89 50 04             	mov    %edx,0x4(%eax)
   837ba:	a1 00 b9 0a 00       	mov    0xab900,%eax
   837bf:	83 c0 01             	add    $0x1,%eax
   837c2:	a3 00 b9 0a 00       	mov    %eax,0xab900
   837c7:	b8 01 00 00 00       	mov    $0x1,%eax
   837cc:	83 c4 10             	add    $0x10,%esp
   837cf:	5b                   	pop    %ebx
   837d0:	5d                   	pop    %ebp
   837d1:	c3                   	ret    

000837d2 <kmm_removeEntry>:
   837d2:	f3 0f 1e fb          	endbr32 
   837d6:	55                   	push   %ebp
   837d7:	89 e5                	mov    %esp,%ebp
   837d9:	53                   	push   %ebx
   837da:	83 ec 10             	sub    $0x10,%esp
   837dd:	c7 45 f8 00 00 00 00 	movl   $0x0,-0x8(%ebp)
   837e4:	eb 3f                	jmp    83825 <kmm_removeEntry+0x53>
   837e6:	81 7d f8 fe ff 00 00 	cmpl   $0xfffe,-0x8(%ebp)
   837ed:	7e 0a                	jle    837f9 <kmm_removeEntry+0x27>
   837ef:	b8 00 00 00 00       	mov    $0x0,%eax
   837f4:	e9 b8 00 00 00       	jmp    838b1 <kmm_removeEntry+0xdf>
   837f9:	a1 00 b9 0a 00       	mov    0xab900,%eax
   837fe:	39 45 f8             	cmp    %eax,-0x8(%ebp)
   83801:	7c 0a                	jl     8380d <kmm_removeEntry+0x3b>
   83803:	b8 00 00 00 00       	mov    $0x0,%eax
   83808:	e9 a4 00 00 00       	jmp    838b1 <kmm_removeEntry+0xdf>
   8380d:	a1 20 ae 08 00       	mov    0x8ae20,%eax
   83812:	8b 55 f8             	mov    -0x8(%ebp),%edx
   83815:	c1 e2 03             	shl    $0x3,%edx
   83818:	01 d0                	add    %edx,%eax
   8381a:	8b 00                	mov    (%eax),%eax
   8381c:	39 45 08             	cmp    %eax,0x8(%ebp)
   8381f:	74 19                	je     8383a <kmm_removeEntry+0x68>
   83821:	83 45 f8 01          	addl   $0x1,-0x8(%ebp)
   83825:	a1 20 ae 08 00       	mov    0x8ae20,%eax
   8382a:	8b 55 f8             	mov    -0x8(%ebp),%edx
   8382d:	c1 e2 03             	shl    $0x3,%edx
   83830:	01 d0                	add    %edx,%eax
   83832:	8b 00                	mov    (%eax),%eax
   83834:	85 c0                	test   %eax,%eax
   83836:	75 ae                	jne    837e6 <kmm_removeEntry+0x14>
   83838:	eb 01                	jmp    8383b <kmm_removeEntry+0x69>
   8383a:	90                   	nop
   8383b:	8b 45 f8             	mov    -0x8(%ebp),%eax
   8383e:	89 45 f4             	mov    %eax,-0xc(%ebp)
   83841:	eb 2c                	jmp    8386f <kmm_removeEntry+0x9d>
   83843:	a1 20 ae 08 00       	mov    0x8ae20,%eax
   83848:	8b 55 f4             	mov    -0xc(%ebp),%edx
   8384b:	83 c2 01             	add    $0x1,%edx
   8384e:	c1 e2 03             	shl    $0x3,%edx
   83851:	01 d0                	add    %edx,%eax
   83853:	8b 15 20 ae 08 00    	mov    0x8ae20,%edx
   83859:	8b 4d f4             	mov    -0xc(%ebp),%ecx
   8385c:	c1 e1 03             	shl    $0x3,%ecx
   8385f:	01 d1                	add    %edx,%ecx
   83861:	8b 50 04             	mov    0x4(%eax),%edx
   83864:	8b 00                	mov    (%eax),%eax
   83866:	89 01                	mov    %eax,(%ecx)
   83868:	89 51 04             	mov    %edx,0x4(%ecx)
   8386b:	83 45 f4 01          	addl   $0x1,-0xc(%ebp)
   8386f:	a1 00 b9 0a 00       	mov    0xab900,%eax
   83874:	83 e8 01             	sub    $0x1,%eax
   83877:	39 45 f4             	cmp    %eax,-0xc(%ebp)
   8387a:	7c c7                	jl     83843 <kmm_removeEntry+0x71>
   8387c:	a1 20 ae 08 00       	mov    0x8ae20,%eax
   83881:	8b 15 00 b9 0a 00    	mov    0xab900,%edx
   83887:	81 c2 ff ff ff 1f    	add    $0x1fffffff,%edx
   8388d:	c1 e2 03             	shl    $0x3,%edx
   83890:	01 d0                	add    %edx,%eax
   83892:	c7 00 00 00 00 00    	movl   $0x0,(%eax)
   83898:	c7 40 04 00 00 00 00 	movl   $0x0,0x4(%eax)
   8389f:	a1 00 b9 0a 00       	mov    0xab900,%eax
   838a4:	83 e8 01             	sub    $0x1,%eax
   838a7:	a3 00 b9 0a 00       	mov    %eax,0xab900
   838ac:	b8 01 00 00 00       	mov    $0x1,%eax
   838b1:	83 c4 10             	add    $0x10,%esp
   838b4:	5b                   	pop    %ebx
   838b5:	5d                   	pop    %ebp
   838b6:	c3                   	ret    

000838b7 <kmm_getEntry>:
   838b7:	f3 0f 1e fb          	endbr32 
   838bb:	55                   	push   %ebp
   838bc:	89 e5                	mov    %esp,%ebp
   838be:	83 ec 10             	sub    $0x10,%esp
   838c1:	c7 45 fc 00 00 00 00 	movl   $0x0,-0x4(%ebp)
   838c8:	eb 48                	jmp    83912 <kmm_getEntry+0x5b>
   838ca:	81 7d fc fe ff 00 00 	cmpl   $0xfffe,-0x4(%ebp)
   838d1:	7e 07                	jle    838da <kmm_getEntry+0x23>
   838d3:	b8 00 00 00 00       	mov    $0x0,%eax
   838d8:	eb 4b                	jmp    83925 <kmm_getEntry+0x6e>
   838da:	a1 00 b9 0a 00       	mov    0xab900,%eax
   838df:	39 45 fc             	cmp    %eax,-0x4(%ebp)
   838e2:	7c 07                	jl     838eb <kmm_getEntry+0x34>
   838e4:	b8 00 00 00 00       	mov    $0x0,%eax
   838e9:	eb 3a                	jmp    83925 <kmm_getEntry+0x6e>
   838eb:	a1 20 ae 08 00       	mov    0x8ae20,%eax
   838f0:	8b 55 fc             	mov    -0x4(%ebp),%edx
   838f3:	c1 e2 03             	shl    $0x3,%edx
   838f6:	01 d0                	add    %edx,%eax
   838f8:	8b 00                	mov    (%eax),%eax
   838fa:	39 45 08             	cmp    %eax,0x8(%ebp)
   838fd:	75 0f                	jne    8390e <kmm_getEntry+0x57>
   838ff:	a1 20 ae 08 00       	mov    0x8ae20,%eax
   83904:	8b 55 fc             	mov    -0x4(%ebp),%edx
   83907:	c1 e2 03             	shl    $0x3,%edx
   8390a:	01 d0                	add    %edx,%eax
   8390c:	eb 17                	jmp    83925 <kmm_getEntry+0x6e>
   8390e:	83 45 fc 01          	addl   $0x1,-0x4(%ebp)
   83912:	a1 20 ae 08 00       	mov    0x8ae20,%eax
   83917:	8b 55 fc             	mov    -0x4(%ebp),%edx
   8391a:	c1 e2 03             	shl    $0x3,%edx
   8391d:	01 d0                	add    %edx,%eax
   8391f:	8b 00                	mov    (%eax),%eax
   83921:	85 c0                	test   %eax,%eax
   83923:	75 a5                	jne    838ca <kmm_getEntry+0x13>
   83925:	c9                   	leave  
   83926:	c3                   	ret    

00083927 <kmm_getEntryIndex>:
   83927:	f3 0f 1e fb          	endbr32 
   8392b:	55                   	push   %ebp
   8392c:	89 e5                	mov    %esp,%ebp
   8392e:	83 ec 10             	sub    $0x10,%esp
   83931:	c7 45 fc 00 00 00 00 	movl   $0x0,-0x4(%ebp)
   83938:	eb 3e                	jmp    83978 <kmm_getEntryIndex+0x51>
   8393a:	81 7d fc fe ff 00 00 	cmpl   $0xfffe,-0x4(%ebp)
   83941:	7e 07                	jle    8394a <kmm_getEntryIndex+0x23>
   83943:	b8 ff ff ff ff       	mov    $0xffffffff,%eax
   83948:	eb 41                	jmp    8398b <kmm_getEntryIndex+0x64>
   8394a:	a1 00 b9 0a 00       	mov    0xab900,%eax
   8394f:	39 45 fc             	cmp    %eax,-0x4(%ebp)
   83952:	7c 07                	jl     8395b <kmm_getEntryIndex+0x34>
   83954:	b8 ff ff ff ff       	mov    $0xffffffff,%eax
   83959:	eb 30                	jmp    8398b <kmm_getEntryIndex+0x64>
   8395b:	a1 20 ae 08 00       	mov    0x8ae20,%eax
   83960:	8b 55 fc             	mov    -0x4(%ebp),%edx
   83963:	c1 e2 03             	shl    $0x3,%edx
   83966:	01 d0                	add    %edx,%eax
   83968:	8b 00                	mov    (%eax),%eax
   8396a:	39 45 08             	cmp    %eax,0x8(%ebp)
   8396d:	75 05                	jne    83974 <kmm_getEntryIndex+0x4d>
   8396f:	8b 45 fc             	mov    -0x4(%ebp),%eax
   83972:	eb 17                	jmp    8398b <kmm_getEntryIndex+0x64>
   83974:	83 45 fc 01          	addl   $0x1,-0x4(%ebp)
   83978:	a1 20 ae 08 00       	mov    0x8ae20,%eax
   8397d:	8b 55 fc             	mov    -0x4(%ebp),%edx
   83980:	c1 e2 03             	shl    $0x3,%edx
   83983:	01 d0                	add    %edx,%eax
   83985:	8b 00                	mov    (%eax),%eax
   83987:	85 c0                	test   %eax,%eax
   83989:	75 af                	jne    8393a <kmm_getEntryIndex+0x13>
   8398b:	c9                   	leave  
   8398c:	c3                   	ret    

0008398d <krealloc>:
   8398d:	f3 0f 1e fb          	endbr32 
   83991:	55                   	push   %ebp
   83992:	89 e5                	mov    %esp,%ebp
   83994:	83 ec 38             	sub    $0x38,%esp
   83997:	8b 45 08             	mov    0x8(%ebp),%eax
   8399a:	50                   	push   %eax
   8399b:	e8 87 ff ff ff       	call   83927 <kmm_getEntryIndex>
   839a0:	83 c4 04             	add    $0x4,%esp
   839a3:	89 45 f4             	mov    %eax,-0xc(%ebp)
   839a6:	83 7d f4 ff          	cmpl   $0xffffffff,-0xc(%ebp)
   839aa:	75 13                	jne    839bf <krealloc+0x32>
   839ac:	83 ec 0c             	sub    $0xc,%esp
   839af:	ff 75 0c             	pushl  0xc(%ebp)
   839b2:	e8 7e 02 00 00       	call   83c35 <kmalloc>
   839b7:	83 c4 10             	add    $0x10,%esp
   839ba:	e9 73 01 00 00       	jmp    83b32 <krealloc+0x1a5>
   839bf:	a1 20 ae 08 00       	mov    0x8ae20,%eax
   839c4:	8b 55 f4             	mov    -0xc(%ebp),%edx
   839c7:	c1 e2 03             	shl    $0x3,%edx
   839ca:	01 d0                	add    %edx,%eax
   839cc:	89 45 f0             	mov    %eax,-0x10(%ebp)
   839cf:	8b 45 f4             	mov    -0xc(%ebp),%eax
   839d2:	8d 50 01             	lea    0x1(%eax),%edx
   839d5:	a1 00 b9 0a 00       	mov    0xab900,%eax
   839da:	39 c2                	cmp    %eax,%edx
   839dc:	0f 8c a4 00 00 00    	jl     83a86 <krealloc+0xf9>
   839e2:	8b 45 f0             	mov    -0x10(%ebp),%eax
   839e5:	8b 00                	mov    (%eax),%eax
   839e7:	ba 00 00 00 01       	mov    $0x1000000,%edx
   839ec:	29 c2                	sub    %eax,%edx
   839ee:	89 d0                	mov    %edx,%eax
   839f0:	39 45 0c             	cmp    %eax,0xc(%ebp)
   839f3:	77 18                	ja     83a0d <krealloc+0x80>
   839f5:	8b 45 f0             	mov    -0x10(%ebp),%eax
   839f8:	8b 10                	mov    (%eax),%edx
   839fa:	8b 45 0c             	mov    0xc(%ebp),%eax
   839fd:	01 c2                	add    %eax,%edx
   839ff:	8b 45 f0             	mov    -0x10(%ebp),%eax
   83a02:	89 50 04             	mov    %edx,0x4(%eax)
   83a05:	8b 45 08             	mov    0x8(%ebp),%eax
   83a08:	e9 25 01 00 00       	jmp    83b32 <krealloc+0x1a5>
   83a0d:	8b 45 f0             	mov    -0x10(%ebp),%eax
   83a10:	8b 00                	mov    (%eax),%eax
   83a12:	89 45 dc             	mov    %eax,-0x24(%ebp)
   83a15:	8b 45 f0             	mov    -0x10(%ebp),%eax
   83a18:	8b 50 04             	mov    0x4(%eax),%edx
   83a1b:	8b 45 dc             	mov    -0x24(%ebp),%eax
   83a1e:	29 c2                	sub    %eax,%edx
   83a20:	89 d0                	mov    %edx,%eax
   83a22:	89 45 d8             	mov    %eax,-0x28(%ebp)
   83a25:	8b 45 dc             	mov    -0x24(%ebp),%eax
   83a28:	83 ec 0c             	sub    $0xc,%esp
   83a2b:	50                   	push   %eax
   83a2c:	e8 a1 fd ff ff       	call   837d2 <kmm_removeEntry>
   83a31:	83 c4 10             	add    $0x10,%esp
   83a34:	83 ec 0c             	sub    $0xc,%esp
   83a37:	ff 75 0c             	pushl  0xc(%ebp)
   83a3a:	e8 f6 01 00 00       	call   83c35 <kmalloc>
   83a3f:	83 c4 10             	add    $0x10,%esp
   83a42:	89 45 d4             	mov    %eax,-0x2c(%ebp)
   83a45:	83 7d d4 00          	cmpl   $0x0,-0x2c(%ebp)
   83a49:	74 19                	je     83a64 <krealloc+0xd7>
   83a4b:	83 ec 04             	sub    $0x4,%esp
   83a4e:	ff 75 0c             	pushl  0xc(%ebp)
   83a51:	ff 75 dc             	pushl  -0x24(%ebp)
   83a54:	ff 75 d4             	pushl  -0x2c(%ebp)
   83a57:	e8 e3 f6 ff ff       	call   8313f <memcpy>
   83a5c:	83 c4 10             	add    $0x10,%esp
   83a5f:	e9 ce 00 00 00       	jmp    83b32 <krealloc+0x1a5>
   83a64:	8b 55 dc             	mov    -0x24(%ebp),%edx
   83a67:	8b 45 d8             	mov    -0x28(%ebp),%eax
   83a6a:	01 c2                	add    %eax,%edx
   83a6c:	8b 45 dc             	mov    -0x24(%ebp),%eax
   83a6f:	83 ec 08             	sub    $0x8,%esp
   83a72:	52                   	push   %edx
   83a73:	50                   	push   %eax
   83a74:	e8 7d fc ff ff       	call   836f6 <kmm_addEntry>
   83a79:	83 c4 10             	add    $0x10,%esp
   83a7c:	b8 00 00 00 00       	mov    $0x0,%eax
   83a81:	e9 ac 00 00 00       	jmp    83b32 <krealloc+0x1a5>
   83a86:	a1 20 ae 08 00       	mov    0x8ae20,%eax
   83a8b:	8b 55 f4             	mov    -0xc(%ebp),%edx
   83a8e:	83 c2 01             	add    $0x1,%edx
   83a91:	c1 e2 03             	shl    $0x3,%edx
   83a94:	01 d0                	add    %edx,%eax
   83a96:	89 45 ec             	mov    %eax,-0x14(%ebp)
   83a99:	8b 45 ec             	mov    -0x14(%ebp),%eax
   83a9c:	8b 10                	mov    (%eax),%edx
   83a9e:	8b 45 f0             	mov    -0x10(%ebp),%eax
   83aa1:	8b 00                	mov    (%eax),%eax
   83aa3:	29 c2                	sub    %eax,%edx
   83aa5:	89 d0                	mov    %edx,%eax
   83aa7:	39 45 0c             	cmp    %eax,0xc(%ebp)
   83aaa:	77 15                	ja     83ac1 <krealloc+0x134>
   83aac:	8b 45 f0             	mov    -0x10(%ebp),%eax
   83aaf:	8b 10                	mov    (%eax),%edx
   83ab1:	8b 45 0c             	mov    0xc(%ebp),%eax
   83ab4:	01 c2                	add    %eax,%edx
   83ab6:	8b 45 f0             	mov    -0x10(%ebp),%eax
   83ab9:	89 50 04             	mov    %edx,0x4(%eax)
   83abc:	8b 45 08             	mov    0x8(%ebp),%eax
   83abf:	eb 71                	jmp    83b32 <krealloc+0x1a5>
   83ac1:	8b 45 f0             	mov    -0x10(%ebp),%eax
   83ac4:	8b 00                	mov    (%eax),%eax
   83ac6:	89 45 e8             	mov    %eax,-0x18(%ebp)
   83ac9:	8b 45 f0             	mov    -0x10(%ebp),%eax
   83acc:	8b 50 04             	mov    0x4(%eax),%edx
   83acf:	8b 45 e8             	mov    -0x18(%ebp),%eax
   83ad2:	29 c2                	sub    %eax,%edx
   83ad4:	89 d0                	mov    %edx,%eax
   83ad6:	89 45 e4             	mov    %eax,-0x1c(%ebp)
   83ad9:	8b 45 e8             	mov    -0x18(%ebp),%eax
   83adc:	83 ec 0c             	sub    $0xc,%esp
   83adf:	50                   	push   %eax
   83ae0:	e8 ed fc ff ff       	call   837d2 <kmm_removeEntry>
   83ae5:	83 c4 10             	add    $0x10,%esp
   83ae8:	83 ec 0c             	sub    $0xc,%esp
   83aeb:	ff 75 0c             	pushl  0xc(%ebp)
   83aee:	e8 42 01 00 00       	call   83c35 <kmalloc>
   83af3:	83 c4 10             	add    $0x10,%esp
   83af6:	89 45 e0             	mov    %eax,-0x20(%ebp)
   83af9:	83 7d e0 00          	cmpl   $0x0,-0x20(%ebp)
   83afd:	74 16                	je     83b15 <krealloc+0x188>
   83aff:	83 ec 04             	sub    $0x4,%esp
   83b02:	ff 75 0c             	pushl  0xc(%ebp)
   83b05:	ff 75 e8             	pushl  -0x18(%ebp)
   83b08:	ff 75 e0             	pushl  -0x20(%ebp)
   83b0b:	e8 2f f6 ff ff       	call   8313f <memcpy>
   83b10:	83 c4 10             	add    $0x10,%esp
   83b13:	eb 1d                	jmp    83b32 <krealloc+0x1a5>
   83b15:	8b 55 e8             	mov    -0x18(%ebp),%edx
   83b18:	8b 45 e4             	mov    -0x1c(%ebp),%eax
   83b1b:	01 c2                	add    %eax,%edx
   83b1d:	8b 45 e8             	mov    -0x18(%ebp),%eax
   83b20:	83 ec 08             	sub    $0x8,%esp
   83b23:	52                   	push   %edx
   83b24:	50                   	push   %eax
   83b25:	e8 cc fb ff ff       	call   836f6 <kmm_addEntry>
   83b2a:	83 c4 10             	add    $0x10,%esp
   83b2d:	b8 00 00 00 00       	mov    $0x0,%eax
   83b32:	c9                   	leave  
   83b33:	c3                   	ret    

00083b34 <kmalloc_pa>:
   83b34:	f3 0f 1e fb          	endbr32 
   83b38:	55                   	push   %ebp
   83b39:	89 e5                	mov    %esp,%ebp
   83b3b:	83 ec 20             	sub    $0x20,%esp
   83b3e:	c7 45 fc 00 00 10 00 	movl   $0x100000,-0x4(%ebp)
   83b45:	c7 45 f8 00 00 00 00 	movl   $0x0,-0x8(%ebp)
   83b4c:	eb 78                	jmp    83bc6 <kmalloc_pa+0x92>
   83b4e:	a1 20 ae 08 00       	mov    0x8ae20,%eax
   83b53:	8b 55 f8             	mov    -0x8(%ebp),%edx
   83b56:	c1 e2 03             	shl    $0x3,%edx
   83b59:	01 d0                	add    %edx,%eax
   83b5b:	89 45 f0             	mov    %eax,-0x10(%ebp)
   83b5e:	8b 45 fc             	mov    -0x4(%ebp),%eax
   83b61:	c1 e8 0c             	shr    $0xc,%eax
   83b64:	89 c2                	mov    %eax,%edx
   83b66:	8b 45 fc             	mov    -0x4(%ebp),%eax
   83b69:	25 ff 0f 00 00       	and    $0xfff,%eax
   83b6e:	85 c0                	test   %eax,%eax
   83b70:	0f 95 c0             	setne  %al
   83b73:	0f b6 c0             	movzbl %al,%eax
   83b76:	01 d0                	add    %edx,%eax
   83b78:	c1 e0 0c             	shl    $0xc,%eax
   83b7b:	89 45 ec             	mov    %eax,-0x14(%ebp)
   83b7e:	8b 45 f0             	mov    -0x10(%ebp),%eax
   83b81:	8b 00                	mov    (%eax),%eax
   83b83:	39 45 ec             	cmp    %eax,-0x14(%ebp)
   83b86:	73 31                	jae    83bb9 <kmalloc_pa+0x85>
   83b88:	8b 45 f0             	mov    -0x10(%ebp),%eax
   83b8b:	8b 00                	mov    (%eax),%eax
   83b8d:	2b 45 ec             	sub    -0x14(%ebp),%eax
   83b90:	39 45 08             	cmp    %eax,0x8(%ebp)
   83b93:	77 24                	ja     83bb9 <kmalloc_pa+0x85>
   83b95:	8b 55 ec             	mov    -0x14(%ebp),%edx
   83b98:	8b 45 08             	mov    0x8(%ebp),%eax
   83b9b:	01 d0                	add    %edx,%eax
   83b9d:	50                   	push   %eax
   83b9e:	ff 75 ec             	pushl  -0x14(%ebp)
   83ba1:	e8 50 fb ff ff       	call   836f6 <kmm_addEntry>
   83ba6:	83 c4 08             	add    $0x8,%esp
   83ba9:	84 c0                	test   %al,%al
   83bab:	75 07                	jne    83bb4 <kmalloc_pa+0x80>
   83bad:	b8 00 00 00 00       	mov    $0x0,%eax
   83bb2:	eb 7f                	jmp    83c33 <kmalloc_pa+0xff>
   83bb4:	8b 45 ec             	mov    -0x14(%ebp),%eax
   83bb7:	eb 7a                	jmp    83c33 <kmalloc_pa+0xff>
   83bb9:	8b 45 f0             	mov    -0x10(%ebp),%eax
   83bbc:	8b 40 04             	mov    0x4(%eax),%eax
   83bbf:	89 45 fc             	mov    %eax,-0x4(%ebp)
   83bc2:	83 45 f8 01          	addl   $0x1,-0x8(%ebp)
   83bc6:	a1 00 b9 0a 00       	mov    0xab900,%eax
   83bcb:	39 45 f8             	cmp    %eax,-0x8(%ebp)
   83bce:	0f 8c 7a ff ff ff    	jl     83b4e <kmalloc_pa+0x1a>
   83bd4:	8b 45 fc             	mov    -0x4(%ebp),%eax
   83bd7:	c1 e8 0c             	shr    $0xc,%eax
   83bda:	89 c2                	mov    %eax,%edx
   83bdc:	8b 45 fc             	mov    -0x4(%ebp),%eax
   83bdf:	25 ff 0f 00 00       	and    $0xfff,%eax
   83be4:	85 c0                	test   %eax,%eax
   83be6:	0f 95 c0             	setne  %al
   83be9:	0f b6 c0             	movzbl %al,%eax
   83bec:	01 d0                	add    %edx,%eax
   83bee:	c1 e0 0c             	shl    $0xc,%eax
   83bf1:	89 45 f4             	mov    %eax,-0xc(%ebp)
   83bf4:	81 7d f4 ff ff ff 00 	cmpl   $0xffffff,-0xc(%ebp)
   83bfb:	77 31                	ja     83c2e <kmalloc_pa+0xfa>
   83bfd:	b8 00 00 00 01       	mov    $0x1000000,%eax
   83c02:	2b 45 f4             	sub    -0xc(%ebp),%eax
   83c05:	39 45 08             	cmp    %eax,0x8(%ebp)
   83c08:	77 24                	ja     83c2e <kmalloc_pa+0xfa>
   83c0a:	8b 55 f4             	mov    -0xc(%ebp),%edx
   83c0d:	8b 45 08             	mov    0x8(%ebp),%eax
   83c10:	01 d0                	add    %edx,%eax
   83c12:	50                   	push   %eax
   83c13:	ff 75 f4             	pushl  -0xc(%ebp)
   83c16:	e8 db fa ff ff       	call   836f6 <kmm_addEntry>
   83c1b:	83 c4 08             	add    $0x8,%esp
   83c1e:	84 c0                	test   %al,%al
   83c20:	75 07                	jne    83c29 <kmalloc_pa+0xf5>
   83c22:	b8 00 00 00 00       	mov    $0x0,%eax
   83c27:	eb 0a                	jmp    83c33 <kmalloc_pa+0xff>
   83c29:	8b 45 f4             	mov    -0xc(%ebp),%eax
   83c2c:	eb 05                	jmp    83c33 <kmalloc_pa+0xff>
   83c2e:	b8 00 00 00 00       	mov    $0x0,%eax
   83c33:	c9                   	leave  
   83c34:	c3                   	ret    

00083c35 <kmalloc>:
   83c35:	f3 0f 1e fb          	endbr32 
   83c39:	55                   	push   %ebp
   83c3a:	89 e5                	mov    %esp,%ebp
   83c3c:	83 ec 10             	sub    $0x10,%esp
   83c3f:	c7 45 fc 00 00 10 00 	movl   $0x100000,-0x4(%ebp)
   83c46:	c7 45 f8 00 00 00 00 	movl   $0x0,-0x8(%ebp)
   83c4d:	eb 4e                	jmp    83c9d <kmalloc+0x68>
   83c4f:	a1 20 ae 08 00       	mov    0x8ae20,%eax
   83c54:	8b 55 f8             	mov    -0x8(%ebp),%edx
   83c57:	c1 e2 03             	shl    $0x3,%edx
   83c5a:	01 d0                	add    %edx,%eax
   83c5c:	89 45 f4             	mov    %eax,-0xc(%ebp)
   83c5f:	8b 45 f4             	mov    -0xc(%ebp),%eax
   83c62:	8b 00                	mov    (%eax),%eax
   83c64:	2b 45 fc             	sub    -0x4(%ebp),%eax
   83c67:	39 45 08             	cmp    %eax,0x8(%ebp)
   83c6a:	77 24                	ja     83c90 <kmalloc+0x5b>
   83c6c:	8b 55 fc             	mov    -0x4(%ebp),%edx
   83c6f:	8b 45 08             	mov    0x8(%ebp),%eax
   83c72:	01 d0                	add    %edx,%eax
   83c74:	50                   	push   %eax
   83c75:	ff 75 fc             	pushl  -0x4(%ebp)
   83c78:	e8 79 fa ff ff       	call   836f6 <kmm_addEntry>
   83c7d:	83 c4 08             	add    $0x8,%esp
   83c80:	84 c0                	test   %al,%al
   83c82:	75 07                	jne    83c8b <kmalloc+0x56>
   83c84:	b8 00 00 00 00       	mov    $0x0,%eax
   83c89:	eb 52                	jmp    83cdd <kmalloc+0xa8>
   83c8b:	8b 45 fc             	mov    -0x4(%ebp),%eax
   83c8e:	eb 4d                	jmp    83cdd <kmalloc+0xa8>
   83c90:	8b 45 f4             	mov    -0xc(%ebp),%eax
   83c93:	8b 40 04             	mov    0x4(%eax),%eax
   83c96:	89 45 fc             	mov    %eax,-0x4(%ebp)
   83c99:	83 45 f8 01          	addl   $0x1,-0x8(%ebp)
   83c9d:	a1 00 b9 0a 00       	mov    0xab900,%eax
   83ca2:	39 45 f8             	cmp    %eax,-0x8(%ebp)
   83ca5:	7c a8                	jl     83c4f <kmalloc+0x1a>
   83ca7:	b8 00 00 00 01       	mov    $0x1000000,%eax
   83cac:	2b 45 fc             	sub    -0x4(%ebp),%eax
   83caf:	39 45 08             	cmp    %eax,0x8(%ebp)
   83cb2:	77 24                	ja     83cd8 <kmalloc+0xa3>
   83cb4:	8b 55 fc             	mov    -0x4(%ebp),%edx
   83cb7:	8b 45 08             	mov    0x8(%ebp),%eax
   83cba:	01 d0                	add    %edx,%eax
   83cbc:	50                   	push   %eax
   83cbd:	ff 75 fc             	pushl  -0x4(%ebp)
   83cc0:	e8 31 fa ff ff       	call   836f6 <kmm_addEntry>
   83cc5:	83 c4 08             	add    $0x8,%esp
   83cc8:	84 c0                	test   %al,%al
   83cca:	75 07                	jne    83cd3 <kmalloc+0x9e>
   83ccc:	b8 00 00 00 00       	mov    $0x0,%eax
   83cd1:	eb 0a                	jmp    83cdd <kmalloc+0xa8>
   83cd3:	8b 45 fc             	mov    -0x4(%ebp),%eax
   83cd6:	eb 05                	jmp    83cdd <kmalloc+0xa8>
   83cd8:	b8 00 00 00 00       	mov    $0x0,%eax
   83cdd:	c9                   	leave  
   83cde:	c3                   	ret    

00083cdf <kfree>:
   83cdf:	f3 0f 1e fb          	endbr32 
   83ce3:	55                   	push   %ebp
   83ce4:	89 e5                	mov    %esp,%ebp
   83ce6:	8b 45 08             	mov    0x8(%ebp),%eax
   83ce9:	50                   	push   %eax
   83cea:	e8 e3 fa ff ff       	call   837d2 <kmm_removeEntry>
   83cef:	83 c4 04             	add    $0x4,%esp
   83cf2:	90                   	nop
   83cf3:	c9                   	leave  
   83cf4:	c3                   	ret    

00083cf5 <vmem_current>:
   83cf5:	f3 0f 1e fb          	endbr32 
   83cf9:	55                   	push   %ebp
   83cfa:	89 e5                	mov    %esp,%ebp
   83cfc:	a1 0c b9 0a 00       	mov    0xab90c,%eax
   83d01:	5d                   	pop    %ebp
   83d02:	c3                   	ret    

00083d03 <vmem_tablePresent>:
   83d03:	f3 0f 1e fb          	endbr32 
   83d07:	55                   	push   %ebp
   83d08:	89 e5                	mov    %esp,%ebp
   83d0a:	8b 45 08             	mov    0x8(%ebp),%eax
   83d0d:	8b 55 0c             	mov    0xc(%ebp),%edx
   83d10:	0f b6 04 90          	movzbl (%eax,%edx,4),%eax
   83d14:	83 e0 01             	and    $0x1,%eax
   83d17:	5d                   	pop    %ebp
   83d18:	c3                   	ret    

00083d19 <vmem_getTable>:
   83d19:	f3 0f 1e fb          	endbr32 
   83d1d:	55                   	push   %ebp
   83d1e:	89 e5                	mov    %esp,%ebp
   83d20:	8b 45 08             	mov    0x8(%ebp),%eax
   83d23:	8b 55 0c             	mov    0xc(%ebp),%edx
   83d26:	8b 04 90             	mov    (%eax,%edx,4),%eax
   83d29:	c1 e8 0c             	shr    $0xc,%eax
   83d2c:	c1 e0 0c             	shl    $0xc,%eax
   83d2f:	5d                   	pop    %ebp
   83d30:	c3                   	ret    

00083d31 <vmem_getPage>:
   83d31:	f3 0f 1e fb          	endbr32 
   83d35:	55                   	push   %ebp
   83d36:	89 e5                	mov    %esp,%ebp
   83d38:	83 ec 10             	sub    $0x10,%esp
   83d3b:	8b 45 0c             	mov    0xc(%ebp),%eax
   83d3e:	c1 e8 0c             	shr    $0xc,%eax
   83d41:	25 ff 03 00 00       	and    $0x3ff,%eax
   83d46:	89 45 fc             	mov    %eax,-0x4(%ebp)
   83d49:	8b 45 0c             	mov    0xc(%ebp),%eax
   83d4c:	c1 e8 16             	shr    $0x16,%eax
   83d4f:	89 45 f8             	mov    %eax,-0x8(%ebp)
   83d52:	8b 45 f8             	mov    -0x8(%ebp),%eax
   83d55:	50                   	push   %eax
   83d56:	ff 75 08             	pushl  0x8(%ebp)
   83d59:	e8 a5 ff ff ff       	call   83d03 <vmem_tablePresent>
   83d5e:	83 c4 08             	add    $0x8,%esp
   83d61:	84 c0                	test   %al,%al
   83d63:	75 07                	jne    83d6c <vmem_getPage+0x3b>
   83d65:	b8 00 00 00 00       	mov    $0x0,%eax
   83d6a:	eb 39                	jmp    83da5 <vmem_getPage+0x74>
   83d6c:	8b 45 f8             	mov    -0x8(%ebp),%eax
   83d6f:	50                   	push   %eax
   83d70:	ff 75 08             	pushl  0x8(%ebp)
   83d73:	e8 a1 ff ff ff       	call   83d19 <vmem_getTable>
   83d78:	83 c4 08             	add    $0x8,%esp
   83d7b:	89 45 f4             	mov    %eax,-0xc(%ebp)
   83d7e:	8b 45 f4             	mov    -0xc(%ebp),%eax
   83d81:	8b 55 fc             	mov    -0x4(%ebp),%edx
   83d84:	0f b6 04 90          	movzbl (%eax,%edx,4),%eax
   83d88:	83 e0 01             	and    $0x1,%eax
   83d8b:	84 c0                	test   %al,%al
   83d8d:	74 11                	je     83da0 <vmem_getPage+0x6f>
   83d8f:	8b 45 fc             	mov    -0x4(%ebp),%eax
   83d92:	8d 14 85 00 00 00 00 	lea    0x0(,%eax,4),%edx
   83d99:	8b 45 f4             	mov    -0xc(%ebp),%eax
   83d9c:	01 d0                	add    %edx,%eax
   83d9e:	eb 05                	jmp    83da5 <vmem_getPage+0x74>
   83da0:	b8 00 00 00 00       	mov    $0x0,%eax
   83da5:	c9                   	leave  
   83da6:	c3                   	ret    

00083da7 <vmem_allocTable>:
   83da7:	f3 0f 1e fb          	endbr32 
   83dab:	55                   	push   %ebp
   83dac:	89 e5                	mov    %esp,%ebp
   83dae:	83 ec 18             	sub    $0x18,%esp
   83db1:	83 ec 0c             	sub    $0xc,%esp
   83db4:	68 00 10 00 00       	push   $0x1000
   83db9:	e8 76 fd ff ff       	call   83b34 <kmalloc_pa>
   83dbe:	83 c4 10             	add    $0x10,%esp
   83dc1:	89 45 f4             	mov    %eax,-0xc(%ebp)
   83dc4:	83 7d f4 00          	cmpl   $0x0,-0xc(%ebp)
   83dc8:	75 07                	jne    83dd1 <vmem_allocTable+0x2a>
   83dca:	b8 00 00 00 00       	mov    $0x0,%eax
   83dcf:	eb 18                	jmp    83de9 <vmem_allocTable+0x42>
   83dd1:	83 ec 04             	sub    $0x4,%esp
   83dd4:	68 00 10 00 00       	push   $0x1000
   83dd9:	6a 00                	push   $0x0
   83ddb:	ff 75 f4             	pushl  -0xc(%ebp)
   83dde:	e8 95 f3 ff ff       	call   83178 <memset>
   83de3:	83 c4 10             	add    $0x10,%esp
   83de6:	8b 45 f4             	mov    -0xc(%ebp),%eax
   83de9:	c9                   	leave  
   83dea:	c3                   	ret    

00083deb <vmem_setTable>:
   83deb:	f3 0f 1e fb          	endbr32 
   83def:	55                   	push   %ebp
   83df0:	89 e5                	mov    %esp,%ebp
   83df2:	53                   	push   %ebx
   83df3:	83 7d 10 00          	cmpl   $0x0,0x10(%ebp)
   83df7:	75 0d                	jne    83e06 <vmem_setTable+0x1b>
   83df9:	8b 45 08             	mov    0x8(%ebp),%eax
   83dfc:	8b 55 0c             	mov    0xc(%ebp),%edx
   83dff:	c7 04 90 00 00 00 00 	movl   $0x0,(%eax,%edx,4)
   83e06:	8b 45 10             	mov    0x10(%ebp),%eax
   83e09:	c1 e8 0c             	shr    $0xc,%eax
   83e0c:	25 ff ff 0f 00       	and    $0xfffff,%eax
   83e11:	89 c3                	mov    %eax,%ebx
   83e13:	8b 45 08             	mov    0x8(%ebp),%eax
   83e16:	8b 55 0c             	mov    0xc(%ebp),%edx
   83e19:	0f b6 0c 90          	movzbl (%eax,%edx,4),%ecx
   83e1d:	83 c9 01             	or     $0x1,%ecx
   83e20:	88 0c 90             	mov    %cl,(%eax,%edx,4)
   83e23:	8b 45 08             	mov    0x8(%ebp),%eax
   83e26:	8b 55 0c             	mov    0xc(%ebp),%edx
   83e29:	0f b6 0c 90          	movzbl (%eax,%edx,4),%ecx
   83e2d:	83 c9 02             	or     $0x2,%ecx
   83e30:	88 0c 90             	mov    %cl,(%eax,%edx,4)
   83e33:	8b 45 08             	mov    0x8(%ebp),%eax
   83e36:	8b 55 0c             	mov    0xc(%ebp),%edx
   83e39:	0f b6 0c 90          	movzbl (%eax,%edx,4),%ecx
   83e3d:	83 e1 fb             	and    $0xfffffffb,%ecx
   83e40:	88 0c 90             	mov    %cl,(%eax,%edx,4)
   83e43:	8b 45 08             	mov    0x8(%ebp),%eax
   83e46:	8b 55 0c             	mov    0xc(%ebp),%edx
   83e49:	0f b6 0c 90          	movzbl (%eax,%edx,4),%ecx
   83e4d:	83 e1 f7             	and    $0xfffffff7,%ecx
   83e50:	88 0c 90             	mov    %cl,(%eax,%edx,4)
   83e53:	8b 45 08             	mov    0x8(%ebp),%eax
   83e56:	8b 55 0c             	mov    0xc(%ebp),%edx
   83e59:	0f b6 0c 90          	movzbl (%eax,%edx,4),%ecx
   83e5d:	83 e1 ef             	and    $0xffffffef,%ecx
   83e60:	88 0c 90             	mov    %cl,(%eax,%edx,4)
   83e63:	8b 45 08             	mov    0x8(%ebp),%eax
   83e66:	8b 55 0c             	mov    0xc(%ebp),%edx
   83e69:	0f b6 0c 90          	movzbl (%eax,%edx,4),%ecx
   83e6d:	83 e1 df             	and    $0xffffffdf,%ecx
   83e70:	88 0c 90             	mov    %cl,(%eax,%edx,4)
   83e73:	8b 45 08             	mov    0x8(%ebp),%eax
   83e76:	8b 55 0c             	mov    0xc(%ebp),%edx
   83e79:	0f b6 0c 90          	movzbl (%eax,%edx,4),%ecx
   83e7d:	83 e1 bf             	and    $0xffffffbf,%ecx
   83e80:	88 0c 90             	mov    %cl,(%eax,%edx,4)
   83e83:	8b 45 08             	mov    0x8(%ebp),%eax
   83e86:	8b 55 0c             	mov    0xc(%ebp),%edx
   83e89:	0f b6 0c 90          	movzbl (%eax,%edx,4),%ecx
   83e8d:	83 e1 7f             	and    $0x7f,%ecx
   83e90:	88 0c 90             	mov    %cl,(%eax,%edx,4)
   83e93:	8b 45 08             	mov    0x8(%ebp),%eax
   83e96:	8b 55 0c             	mov    0xc(%ebp),%edx
   83e99:	0f b6 4c 90 01       	movzbl 0x1(%eax,%edx,4),%ecx
   83e9e:	83 e1 fe             	and    $0xfffffffe,%ecx
   83ea1:	88 4c 90 01          	mov    %cl,0x1(%eax,%edx,4)
   83ea5:	8b 45 08             	mov    0x8(%ebp),%eax
   83ea8:	8b 55 0c             	mov    0xc(%ebp),%edx
   83eab:	0f b6 4c 90 01       	movzbl 0x1(%eax,%edx,4),%ecx
   83eb0:	83 e1 f1             	and    $0xfffffff1,%ecx
   83eb3:	88 4c 90 01          	mov    %cl,0x1(%eax,%edx,4)
   83eb7:	8b 45 08             	mov    0x8(%ebp),%eax
   83eba:	8b 55 0c             	mov    0xc(%ebp),%edx
   83ebd:	c1 e3 0c             	shl    $0xc,%ebx
   83ec0:	8b 0c 90             	mov    (%eax,%edx,4),%ecx
   83ec3:	81 e1 ff 0f 00 00    	and    $0xfff,%ecx
   83ec9:	09 d9                	or     %ebx,%ecx
   83ecb:	89 0c 90             	mov    %ecx,(%eax,%edx,4)
   83ece:	b8 00 00 00 00       	mov    $0x0,%eax
   83ed3:	5b                   	pop    %ebx
   83ed4:	5d                   	pop    %ebp
   83ed5:	c3                   	ret    

00083ed6 <vmem_createTable>:
   83ed6:	f3 0f 1e fb          	endbr32 
   83eda:	55                   	push   %ebp
   83edb:	89 e5                	mov    %esp,%ebp
   83edd:	83 ec 18             	sub    $0x18,%esp
   83ee0:	ff 75 0c             	pushl  0xc(%ebp)
   83ee3:	ff 75 08             	pushl  0x8(%ebp)
   83ee6:	e8 18 fe ff ff       	call   83d03 <vmem_tablePresent>
   83eeb:	83 c4 08             	add    $0x8,%esp
   83eee:	84 c0                	test   %al,%al
   83ef0:	74 07                	je     83ef9 <vmem_createTable+0x23>
   83ef2:	b8 00 00 00 00       	mov    $0x0,%eax
   83ef7:	eb 29                	jmp    83f22 <vmem_createTable+0x4c>
   83ef9:	e8 a9 fe ff ff       	call   83da7 <vmem_allocTable>
   83efe:	89 45 f4             	mov    %eax,-0xc(%ebp)
   83f01:	83 7d f4 00          	cmpl   $0x0,-0xc(%ebp)
   83f05:	75 07                	jne    83f0e <vmem_createTable+0x38>
   83f07:	b8 01 00 00 00       	mov    $0x1,%eax
   83f0c:	eb 14                	jmp    83f22 <vmem_createTable+0x4c>
   83f0e:	83 ec 04             	sub    $0x4,%esp
   83f11:	ff 75 f4             	pushl  -0xc(%ebp)
   83f14:	ff 75 0c             	pushl  0xc(%ebp)
   83f17:	ff 75 08             	pushl  0x8(%ebp)
   83f1a:	e8 cc fe ff ff       	call   83deb <vmem_setTable>
   83f1f:	83 c4 10             	add    $0x10,%esp
   83f22:	c9                   	leave  
   83f23:	c3                   	ret    

00083f24 <vmem_freeTable>:
   83f24:	f3 0f 1e fb          	endbr32 
   83f28:	55                   	push   %ebp
   83f29:	89 e5                	mov    %esp,%ebp
   83f2b:	83 ec 18             	sub    $0x18,%esp
   83f2e:	ff 75 0c             	pushl  0xc(%ebp)
   83f31:	ff 75 08             	pushl  0x8(%ebp)
   83f34:	e8 ca fd ff ff       	call   83d03 <vmem_tablePresent>
   83f39:	83 c4 08             	add    $0x8,%esp
   83f3c:	84 c0                	test   %al,%al
   83f3e:	74 2e                	je     83f6e <vmem_freeTable+0x4a>
   83f40:	ff 75 0c             	pushl  0xc(%ebp)
   83f43:	ff 75 08             	pushl  0x8(%ebp)
   83f46:	e8 ce fd ff ff       	call   83d19 <vmem_getTable>
   83f4b:	83 c4 08             	add    $0x8,%esp
   83f4e:	89 45 f4             	mov    %eax,-0xc(%ebp)
   83f51:	83 ec 0c             	sub    $0xc,%esp
   83f54:	ff 75 f4             	pushl  -0xc(%ebp)
   83f57:	e8 83 fd ff ff       	call   83cdf <kfree>
   83f5c:	83 c4 10             	add    $0x10,%esp
   83f5f:	8b 45 08             	mov    0x8(%ebp),%eax
   83f62:	8b 55 0c             	mov    0xc(%ebp),%edx
   83f65:	c7 04 90 00 00 00 00 	movl   $0x0,(%eax,%edx,4)
   83f6c:	eb 01                	jmp    83f6f <vmem_freeTable+0x4b>
   83f6e:	90                   	nop
   83f6f:	c9                   	leave  
   83f70:	c3                   	ret    

00083f71 <vmem_createPage>:
   83f71:	f3 0f 1e fb          	endbr32 
   83f75:	55                   	push   %ebp
   83f76:	89 e5                	mov    %esp,%ebp
   83f78:	53                   	push   %ebx
   83f79:	8b 45 08             	mov    0x8(%ebp),%eax
   83f7c:	8b 55 0c             	mov    0xc(%ebp),%edx
   83f7f:	0f b6 04 90          	movzbl (%eax,%edx,4),%eax
   83f83:	83 e0 01             	and    $0x1,%eax
   83f86:	84 c0                	test   %al,%al
   83f88:	74 0a                	je     83f94 <vmem_createPage+0x23>
   83f8a:	b8 00 00 00 00       	mov    $0x0,%eax
   83f8f:	e9 97 00 00 00       	jmp    8402b <vmem_createPage+0xba>
   83f94:	8b 45 14             	mov    0x14(%ebp),%eax
   83f97:	83 e0 01             	and    $0x1,%eax
   83f9a:	85 c0                	test   %eax,%eax
   83f9c:	0f 95 c1             	setne  %cl
   83f9f:	8b 45 08             	mov    0x8(%ebp),%eax
   83fa2:	8b 55 0c             	mov    0xc(%ebp),%edx
   83fa5:	89 cb                	mov    %ecx,%ebx
   83fa7:	83 e3 01             	and    $0x1,%ebx
   83faa:	0f b6 0c 90          	movzbl (%eax,%edx,4),%ecx
   83fae:	83 e1 fe             	and    $0xfffffffe,%ecx
   83fb1:	09 d9                	or     %ebx,%ecx
   83fb3:	88 0c 90             	mov    %cl,(%eax,%edx,4)
   83fb6:	8b 45 14             	mov    0x14(%ebp),%eax
   83fb9:	83 e0 02             	and    $0x2,%eax
   83fbc:	85 c0                	test   %eax,%eax
   83fbe:	0f 95 c1             	setne  %cl
   83fc1:	8b 45 08             	mov    0x8(%ebp),%eax
   83fc4:	8b 55 0c             	mov    0xc(%ebp),%edx
   83fc7:	83 e1 01             	and    $0x1,%ecx
   83fca:	8d 1c 09             	lea    (%ecx,%ecx,1),%ebx
   83fcd:	0f b6 0c 90          	movzbl (%eax,%edx,4),%ecx
   83fd1:	83 e1 fd             	and    $0xfffffffd,%ecx
   83fd4:	09 d9                	or     %ebx,%ecx
   83fd6:	88 0c 90             	mov    %cl,(%eax,%edx,4)
   83fd9:	8b 45 14             	mov    0x14(%ebp),%eax
   83fdc:	83 e0 04             	and    $0x4,%eax
   83fdf:	85 c0                	test   %eax,%eax
   83fe1:	0f 95 c1             	setne  %cl
   83fe4:	8b 45 08             	mov    0x8(%ebp),%eax
   83fe7:	8b 55 0c             	mov    0xc(%ebp),%edx
   83fea:	83 e1 01             	and    $0x1,%ecx
   83fed:	8d 1c 8d 00 00 00 00 	lea    0x0(,%ecx,4),%ebx
   83ff4:	0f b6 0c 90          	movzbl (%eax,%edx,4),%ecx
   83ff8:	83 e1 fb             	and    $0xfffffffb,%ecx
   83ffb:	09 d9                	or     %ebx,%ecx
   83ffd:	88 0c 90             	mov    %cl,(%eax,%edx,4)
   84000:	8b 45 10             	mov    0x10(%ebp),%eax
   84003:	c1 e8 0c             	shr    $0xc,%eax
   84006:	25 ff ff 0f 00       	and    $0xfffff,%eax
   8400b:	89 c1                	mov    %eax,%ecx
   8400d:	8b 45 08             	mov    0x8(%ebp),%eax
   84010:	8b 55 0c             	mov    0xc(%ebp),%edx
   84013:	89 cb                	mov    %ecx,%ebx
   84015:	c1 e3 0c             	shl    $0xc,%ebx
   84018:	8b 0c 90             	mov    (%eax,%edx,4),%ecx
   8401b:	81 e1 ff 0f 00 00    	and    $0xfff,%ecx
   84021:	09 d9                	or     %ebx,%ecx
   84023:	89 0c 90             	mov    %ecx,(%eax,%edx,4)
   84026:	b8 00 00 00 00       	mov    $0x0,%eax
   8402b:	5b                   	pop    %ebx
   8402c:	5d                   	pop    %ebp
   8402d:	c3                   	ret    

0008402e <vmem_mapPage>:
   8402e:	f3 0f 1e fb          	endbr32 
   84032:	55                   	push   %ebp
   84033:	89 e5                	mov    %esp,%ebp
   84035:	83 ec 18             	sub    $0x18,%esp
   84038:	8b 45 0c             	mov    0xc(%ebp),%eax
   8403b:	c1 e8 0c             	shr    $0xc,%eax
   8403e:	25 ff 03 00 00       	and    $0x3ff,%eax
   84043:	89 45 f4             	mov    %eax,-0xc(%ebp)
   84046:	8b 45 0c             	mov    0xc(%ebp),%eax
   84049:	c1 e8 16             	shr    $0x16,%eax
   8404c:	89 45 f0             	mov    %eax,-0x10(%ebp)
   8404f:	8b 45 f0             	mov    -0x10(%ebp),%eax
   84052:	50                   	push   %eax
   84053:	ff 75 08             	pushl  0x8(%ebp)
   84056:	e8 a8 fc ff ff       	call   83d03 <vmem_tablePresent>
   8405b:	83 c4 08             	add    $0x8,%esp
   8405e:	84 c0                	test   %al,%al
   84060:	75 12                	jne    84074 <vmem_mapPage+0x46>
   84062:	8b 45 f0             	mov    -0x10(%ebp),%eax
   84065:	83 ec 08             	sub    $0x8,%esp
   84068:	50                   	push   %eax
   84069:	ff 75 08             	pushl  0x8(%ebp)
   8406c:	e8 65 fe ff ff       	call   83ed6 <vmem_createTable>
   84071:	83 c4 10             	add    $0x10,%esp
   84074:	8b 45 f0             	mov    -0x10(%ebp),%eax
   84077:	83 ec 08             	sub    $0x8,%esp
   8407a:	50                   	push   %eax
   8407b:	ff 75 08             	pushl  0x8(%ebp)
   8407e:	e8 96 fc ff ff       	call   83d19 <vmem_getTable>
   84083:	83 c4 10             	add    $0x10,%esp
   84086:	89 45 ec             	mov    %eax,-0x14(%ebp)
   84089:	8b 45 f4             	mov    -0xc(%ebp),%eax
   8408c:	ff 75 14             	pushl  0x14(%ebp)
   8408f:	ff 75 10             	pushl  0x10(%ebp)
   84092:	50                   	push   %eax
   84093:	ff 75 ec             	pushl  -0x14(%ebp)
   84096:	e8 d6 fe ff ff       	call   83f71 <vmem_createPage>
   8409b:	83 c4 10             	add    $0x10,%esp
   8409e:	c9                   	leave  
   8409f:	c3                   	ret    

000840a0 <vmem_freePage>:
   840a0:	f3 0f 1e fb          	endbr32 
   840a4:	55                   	push   %ebp
   840a5:	89 e5                	mov    %esp,%ebp
   840a7:	83 ec 18             	sub    $0x18,%esp
   840aa:	8b 45 0c             	mov    0xc(%ebp),%eax
   840ad:	c1 e8 0c             	shr    $0xc,%eax
   840b0:	25 ff 03 00 00       	and    $0x3ff,%eax
   840b5:	89 45 f0             	mov    %eax,-0x10(%ebp)
   840b8:	8b 45 0c             	mov    0xc(%ebp),%eax
   840bb:	c1 e8 16             	shr    $0x16,%eax
   840be:	89 45 ec             	mov    %eax,-0x14(%ebp)
   840c1:	8b 45 ec             	mov    -0x14(%ebp),%eax
   840c4:	50                   	push   %eax
   840c5:	ff 75 08             	pushl  0x8(%ebp)
   840c8:	e8 36 fc ff ff       	call   83d03 <vmem_tablePresent>
   840cd:	83 c4 08             	add    $0x8,%esp
   840d0:	84 c0                	test   %al,%al
   840d2:	74 75                	je     84149 <vmem_freePage+0xa9>
   840d4:	8b 45 ec             	mov    -0x14(%ebp),%eax
   840d7:	50                   	push   %eax
   840d8:	ff 75 08             	pushl  0x8(%ebp)
   840db:	e8 39 fc ff ff       	call   83d19 <vmem_getTable>
   840e0:	83 c4 08             	add    $0x8,%esp
   840e3:	89 45 e8             	mov    %eax,-0x18(%ebp)
   840e6:	8b 45 e8             	mov    -0x18(%ebp),%eax
   840e9:	8b 55 f0             	mov    -0x10(%ebp),%edx
   840ec:	8b 04 90             	mov    (%eax,%edx,4),%eax
   840ef:	c1 e8 0c             	shr    $0xc,%eax
   840f2:	c1 e0 0c             	shl    $0xc,%eax
   840f5:	83 ec 0c             	sub    $0xc,%esp
   840f8:	50                   	push   %eax
   840f9:	e8 10 01 00 00       	call   8420e <vmem_freeFrame>
   840fe:	83 c4 10             	add    $0x10,%esp
   84101:	8b 45 e8             	mov    -0x18(%ebp),%eax
   84104:	8b 55 f0             	mov    -0x10(%ebp),%edx
   84107:	c7 04 90 00 00 00 00 	movl   $0x0,(%eax,%edx,4)
   8410e:	c7 45 f4 00 00 00 00 	movl   $0x0,-0xc(%ebp)
   84115:	eb 15                	jmp    8412c <vmem_freePage+0x8c>
   84117:	8b 45 e8             	mov    -0x18(%ebp),%eax
   8411a:	8b 55 f4             	mov    -0xc(%ebp),%edx
   8411d:	0f b6 04 90          	movzbl (%eax,%edx,4),%eax
   84121:	83 e0 01             	and    $0x1,%eax
   84124:	84 c0                	test   %al,%al
   84126:	75 24                	jne    8414c <vmem_freePage+0xac>
   84128:	83 45 f4 01          	addl   $0x1,-0xc(%ebp)
   8412c:	81 7d f4 ff 03 00 00 	cmpl   $0x3ff,-0xc(%ebp)
   84133:	7e e2                	jle    84117 <vmem_freePage+0x77>
   84135:	8b 45 ec             	mov    -0x14(%ebp),%eax
   84138:	83 ec 08             	sub    $0x8,%esp
   8413b:	50                   	push   %eax
   8413c:	ff 75 08             	pushl  0x8(%ebp)
   8413f:	e8 e0 fd ff ff       	call   83f24 <vmem_freeTable>
   84144:	83 c4 10             	add    $0x10,%esp
   84147:	eb 04                	jmp    8414d <vmem_freePage+0xad>
   84149:	90                   	nop
   8414a:	eb 01                	jmp    8414d <vmem_freePage+0xad>
   8414c:	90                   	nop
   8414d:	c9                   	leave  
   8414e:	c3                   	ret    

0008414f <vmem_allocFrame>:
   8414f:	f3 0f 1e fb          	endbr32 
   84153:	55                   	push   %ebp
   84154:	89 e5                	mov    %esp,%ebp
   84156:	53                   	push   %ebx
   84157:	83 ec 10             	sub    $0x10,%esp
   8415a:	c7 45 f8 00 00 00 00 	movl   $0x0,-0x8(%ebp)
   84161:	e9 8d 00 00 00       	jmp    841f3 <vmem_allocFrame+0xa4>
   84166:	8b 45 f8             	mov    -0x8(%ebp),%eax
   84169:	8d 50 07             	lea    0x7(%eax),%edx
   8416c:	85 c0                	test   %eax,%eax
   8416e:	0f 48 c2             	cmovs  %edx,%eax
   84171:	c1 f8 03             	sar    $0x3,%eax
   84174:	89 45 f4             	mov    %eax,-0xc(%ebp)
   84177:	8b 45 f8             	mov    -0x8(%ebp),%eax
   8417a:	99                   	cltd   
   8417b:	c1 ea 1d             	shr    $0x1d,%edx
   8417e:	01 d0                	add    %edx,%eax
   84180:	83 e0 07             	and    $0x7,%eax
   84183:	29 d0                	sub    %edx,%eax
   84185:	89 45 f0             	mov    %eax,-0x10(%ebp)
   84188:	8b 15 04 b9 0a 00    	mov    0xab904,%edx
   8418e:	8b 45 f4             	mov    -0xc(%ebp),%eax
   84191:	01 d0                	add    %edx,%eax
   84193:	0f b6 00             	movzbl (%eax),%eax
   84196:	89 c2                	mov    %eax,%edx
   84198:	8b 45 f0             	mov    -0x10(%ebp),%eax
   8419b:	bb 01 00 00 00       	mov    $0x1,%ebx
   841a0:	89 c1                	mov    %eax,%ecx
   841a2:	d3 e3                	shl    %cl,%ebx
   841a4:	89 d8                	mov    %ebx,%eax
   841a6:	21 d0                	and    %edx,%eax
   841a8:	88 45 ef             	mov    %al,-0x11(%ebp)
   841ab:	80 7d ef 00          	cmpb   $0x0,-0x11(%ebp)
   841af:	75 3e                	jne    841ef <vmem_allocFrame+0xa0>
   841b1:	8b 15 04 b9 0a 00    	mov    0xab904,%edx
   841b7:	8b 45 f4             	mov    -0xc(%ebp),%eax
   841ba:	01 d0                	add    %edx,%eax
   841bc:	0f b6 00             	movzbl (%eax),%eax
   841bf:	89 c3                	mov    %eax,%ebx
   841c1:	8b 45 f0             	mov    -0x10(%ebp),%eax
   841c4:	ba 01 00 00 00       	mov    $0x1,%edx
   841c9:	89 c1                	mov    %eax,%ecx
   841cb:	d3 e2                	shl    %cl,%edx
   841cd:	89 d0                	mov    %edx,%eax
   841cf:	09 c3                	or     %eax,%ebx
   841d1:	89 d9                	mov    %ebx,%ecx
   841d3:	8b 15 04 b9 0a 00    	mov    0xab904,%edx
   841d9:	8b 45 f4             	mov    -0xc(%ebp),%eax
   841dc:	01 d0                	add    %edx,%eax
   841de:	89 ca                	mov    %ecx,%edx
   841e0:	88 10                	mov    %dl,(%eax)
   841e2:	8b 45 f8             	mov    -0x8(%ebp),%eax
   841e5:	05 00 10 00 00       	add    $0x1000,%eax
   841ea:	c1 e0 0c             	shl    $0xc,%eax
   841ed:	eb 19                	jmp    84208 <vmem_allocFrame+0xb9>
   841ef:	83 45 f8 01          	addl   $0x1,-0x8(%ebp)
   841f3:	8b 55 f8             	mov    -0x8(%ebp),%edx
   841f6:	a1 08 b9 0a 00       	mov    0xab908,%eax
   841fb:	39 c2                	cmp    %eax,%edx
   841fd:	0f 82 63 ff ff ff    	jb     84166 <vmem_allocFrame+0x17>
   84203:	b8 00 00 00 00       	mov    $0x0,%eax
   84208:	83 c4 10             	add    $0x10,%esp
   8420b:	5b                   	pop    %ebx
   8420c:	5d                   	pop    %ebp
   8420d:	c3                   	ret    

0008420e <vmem_freeFrame>:
   8420e:	f3 0f 1e fb          	endbr32 
   84212:	55                   	push   %ebp
   84213:	89 e5                	mov    %esp,%ebp
   84215:	56                   	push   %esi
   84216:	53                   	push   %ebx
   84217:	83 ec 10             	sub    $0x10,%esp
   8421a:	8b 45 08             	mov    0x8(%ebp),%eax
   8421d:	c1 e8 0c             	shr    $0xc,%eax
   84220:	2d 00 10 00 00       	sub    $0x1000,%eax
   84225:	89 45 f4             	mov    %eax,-0xc(%ebp)
   84228:	8b 15 04 b9 0a 00    	mov    0xab904,%edx
   8422e:	8b 45 f4             	mov    -0xc(%ebp),%eax
   84231:	c1 e8 03             	shr    $0x3,%eax
   84234:	01 c2                	add    %eax,%edx
   84236:	0f b6 12             	movzbl (%edx),%edx
   84239:	89 d3                	mov    %edx,%ebx
   8423b:	8b 55 f4             	mov    -0xc(%ebp),%edx
   8423e:	83 e2 07             	and    $0x7,%edx
   84241:	be 01 00 00 00       	mov    $0x1,%esi
   84246:	89 d1                	mov    %edx,%ecx
   84248:	d3 e6                	shl    %cl,%esi
   8424a:	89 f2                	mov    %esi,%edx
   8424c:	f7 d2                	not    %edx
   8424e:	21 d3                	and    %edx,%ebx
   84250:	89 d9                	mov    %ebx,%ecx
   84252:	8b 15 04 b9 0a 00    	mov    0xab904,%edx
   84258:	01 d0                	add    %edx,%eax
   8425a:	89 ca                	mov    %ecx,%edx
   8425c:	88 10                	mov    %dl,(%eax)
   8425e:	90                   	nop
   8425f:	83 c4 10             	add    $0x10,%esp
   84262:	5b                   	pop    %ebx
   84263:	5e                   	pop    %esi
   84264:	5d                   	pop    %ebp
   84265:	c3                   	ret    

00084266 <vmem_allocPage>:
   84266:	f3 0f 1e fb          	endbr32 
   8426a:	55                   	push   %ebp
   8426b:	89 e5                	mov    %esp,%ebp
   8426d:	83 ec 18             	sub    $0x18,%esp
   84270:	e8 da fe ff ff       	call   8414f <vmem_allocFrame>
   84275:	89 45 f4             	mov    %eax,-0xc(%ebp)
   84278:	83 7d f4 00          	cmpl   $0x0,-0xc(%ebp)
   8427c:	75 07                	jne    84285 <vmem_allocPage+0x1f>
   8427e:	b8 01 00 00 00       	mov    $0x1,%eax
   84283:	eb 19                	jmp    8429e <vmem_allocPage+0x38>
   84285:	ff 75 10             	pushl  0x10(%ebp)
   84288:	ff 75 f4             	pushl  -0xc(%ebp)
   8428b:	ff 75 0c             	pushl  0xc(%ebp)
   8428e:	ff 75 08             	pushl  0x8(%ebp)
   84291:	e8 98 fd ff ff       	call   8402e <vmem_mapPage>
   84296:	83 c4 10             	add    $0x10,%esp
   84299:	b8 00 00 00 00       	mov    $0x0,%eax
   8429e:	c9                   	leave  
   8429f:	c3                   	ret    

000842a0 <vmem_initBitmap>:
   842a0:	f3 0f 1e fb          	endbr32 
   842a4:	55                   	push   %ebp
   842a5:	89 e5                	mov    %esp,%ebp
   842a7:	83 ec 18             	sub    $0x18,%esp
   842aa:	8b 45 08             	mov    0x8(%ebp),%eax
   842ad:	2d 00 10 00 00       	sub    $0x1000,%eax
   842b2:	89 45 f4             	mov    %eax,-0xc(%ebp)
   842b5:	8b 45 f4             	mov    -0xc(%ebp),%eax
   842b8:	a3 08 b9 0a 00       	mov    %eax,0xab908
   842bd:	a1 08 b9 0a 00       	mov    0xab908,%eax
   842c2:	c1 e8 03             	shr    $0x3,%eax
   842c5:	83 c0 01             	add    $0x1,%eax
   842c8:	89 45 f0             	mov    %eax,-0x10(%ebp)
   842cb:	83 ec 0c             	sub    $0xc,%esp
   842ce:	ff 75 f0             	pushl  -0x10(%ebp)
   842d1:	e8 5f f9 ff ff       	call   83c35 <kmalloc>
   842d6:	83 c4 10             	add    $0x10,%esp
   842d9:	a3 04 b9 0a 00       	mov    %eax,0xab904
   842de:	a1 04 b9 0a 00       	mov    0xab904,%eax
   842e3:	85 c0                	test   %eax,%eax
   842e5:	75 07                	jne    842ee <vmem_initBitmap+0x4e>
   842e7:	b8 01 00 00 00       	mov    $0x1,%eax
   842ec:	eb 1b                	jmp    84309 <vmem_initBitmap+0x69>
   842ee:	a1 04 b9 0a 00       	mov    0xab904,%eax
   842f3:	83 ec 04             	sub    $0x4,%esp
   842f6:	ff 75 f0             	pushl  -0x10(%ebp)
   842f9:	6a 00                	push   $0x0
   842fb:	50                   	push   %eax
   842fc:	e8 77 ee ff ff       	call   83178 <memset>
   84301:	83 c4 10             	add    $0x10,%esp
   84304:	b8 00 00 00 00       	mov    $0x0,%eax
   84309:	c9                   	leave  
   8430a:	c3                   	ret    

0008430b <vmem_createMemory>:
   8430b:	f3 0f 1e fb          	endbr32 
   8430f:	55                   	push   %ebp
   84310:	89 e5                	mov    %esp,%ebp
   84312:	83 ec 18             	sub    $0x18,%esp
   84315:	83 ec 0c             	sub    $0xc,%esp
   84318:	68 00 10 00 00       	push   $0x1000
   8431d:	e8 12 f8 ff ff       	call   83b34 <kmalloc_pa>
   84322:	83 c4 10             	add    $0x10,%esp
   84325:	89 45 f4             	mov    %eax,-0xc(%ebp)
   84328:	83 7d f4 00          	cmpl   $0x0,-0xc(%ebp)
   8432c:	75 07                	jne    84335 <vmem_createMemory+0x2a>
   8432e:	b8 00 00 00 00       	mov    $0x0,%eax
   84333:	eb 15                	jmp    8434a <vmem_createMemory+0x3f>
   84335:	83 ec 04             	sub    $0x4,%esp
   84338:	6a 04                	push   $0x4
   8433a:	6a 00                	push   $0x0
   8433c:	ff 75 f4             	pushl  -0xc(%ebp)
   8433f:	e8 34 ee ff ff       	call   83178 <memset>
   84344:	83 c4 10             	add    $0x10,%esp
   84347:	8b 45 f4             	mov    -0xc(%ebp),%eax
   8434a:	c9                   	leave  
   8434b:	c3                   	ret    

0008434c <vmem_cloneTable>:
   8434c:	f3 0f 1e fb          	endbr32 
   84350:	55                   	push   %ebp
   84351:	89 e5                	mov    %esp,%ebp
   84353:	83 ec 18             	sub    $0x18,%esp
   84356:	8b 45 08             	mov    0x8(%ebp),%eax
   84359:	8b 55 0c             	mov    0xc(%ebp),%edx
   8435c:	0f b6 04 90          	movzbl (%eax,%edx,4),%eax
   84360:	83 e0 01             	and    $0x1,%eax
   84363:	84 c0                	test   %al,%al
   84365:	75 07                	jne    8436e <vmem_cloneTable+0x22>
   84367:	b8 00 00 00 00       	mov    $0x0,%eax
   8436c:	eb 3b                	jmp    843a9 <vmem_cloneTable+0x5d>
   8436e:	e8 34 fa ff ff       	call   83da7 <vmem_allocTable>
   84373:	89 45 f4             	mov    %eax,-0xc(%ebp)
   84376:	83 7d f4 00          	cmpl   $0x0,-0xc(%ebp)
   8437a:	75 07                	jne    84383 <vmem_cloneTable+0x37>
   8437c:	b8 00 00 00 00       	mov    $0x0,%eax
   84381:	eb 26                	jmp    843a9 <vmem_cloneTable+0x5d>
   84383:	8b 45 08             	mov    0x8(%ebp),%eax
   84386:	8b 55 0c             	mov    0xc(%ebp),%edx
   84389:	8b 04 90             	mov    (%eax,%edx,4),%eax
   8438c:	c1 e8 0c             	shr    $0xc,%eax
   8438f:	c1 e0 0c             	shl    $0xc,%eax
   84392:	83 ec 04             	sub    $0x4,%esp
   84395:	68 00 10 00 00       	push   $0x1000
   8439a:	50                   	push   %eax
   8439b:	ff 75 f4             	pushl  -0xc(%ebp)
   8439e:	e8 9c ed ff ff       	call   8313f <memcpy>
   843a3:	83 c4 10             	add    $0x10,%esp
   843a6:	8b 45 f4             	mov    -0xc(%ebp),%eax
   843a9:	c9                   	leave  
   843aa:	c3                   	ret    

000843ab <vmem_cloneMemory>:
   843ab:	f3 0f 1e fb          	endbr32 
   843af:	55                   	push   %ebp
   843b0:	89 e5                	mov    %esp,%ebp
   843b2:	83 ec 18             	sub    $0x18,%esp
   843b5:	e8 51 ff ff ff       	call   8430b <vmem_createMemory>
   843ba:	89 45 f0             	mov    %eax,-0x10(%ebp)
   843bd:	c7 45 f4 00 00 00 00 	movl   $0x0,-0xc(%ebp)
   843c4:	eb 27                	jmp    843ed <vmem_cloneMemory+0x42>
   843c6:	83 ec 08             	sub    $0x8,%esp
   843c9:	ff 75 f4             	pushl  -0xc(%ebp)
   843cc:	ff 75 08             	pushl  0x8(%ebp)
   843cf:	e8 78 ff ff ff       	call   8434c <vmem_cloneTable>
   843d4:	83 c4 10             	add    $0x10,%esp
   843d7:	83 ec 04             	sub    $0x4,%esp
   843da:	50                   	push   %eax
   843db:	ff 75 f4             	pushl  -0xc(%ebp)
   843de:	ff 75 f0             	pushl  -0x10(%ebp)
   843e1:	e8 05 fa ff ff       	call   83deb <vmem_setTable>
   843e6:	83 c4 10             	add    $0x10,%esp
   843e9:	83 45 f4 01          	addl   $0x1,-0xc(%ebp)
   843ed:	81 7d f4 ff 03 00 00 	cmpl   $0x3ff,-0xc(%ebp)
   843f4:	7e d0                	jle    843c6 <vmem_cloneMemory+0x1b>
   843f6:	8b 45 f0             	mov    -0x10(%ebp),%eax
   843f9:	c9                   	leave  
   843fa:	c3                   	ret    

000843fb <vmem_cloneKernelMemory>:
   843fb:	f3 0f 1e fb          	endbr32 
   843ff:	55                   	push   %ebp
   84400:	89 e5                	mov    %esp,%ebp
   84402:	83 ec 18             	sub    $0x18,%esp
   84405:	e8 01 ff ff ff       	call   8430b <vmem_createMemory>
   8440a:	89 45 f0             	mov    %eax,-0x10(%ebp)
   8440d:	c7 45 f4 00 00 00 00 	movl   $0x0,-0xc(%ebp)
   84414:	eb 21                	jmp    84437 <vmem_cloneKernelMemory+0x3c>
   84416:	8b 45 f4             	mov    -0xc(%ebp),%eax
   84419:	c1 e0 0c             	shl    $0xc,%eax
   8441c:	89 c2                	mov    %eax,%edx
   8441e:	8b 45 f4             	mov    -0xc(%ebp),%eax
   84421:	c1 e0 0c             	shl    $0xc,%eax
   84424:	6a 01                	push   $0x1
   84426:	52                   	push   %edx
   84427:	50                   	push   %eax
   84428:	ff 75 f0             	pushl  -0x10(%ebp)
   8442b:	e8 fe fb ff ff       	call   8402e <vmem_mapPage>
   84430:	83 c4 10             	add    $0x10,%esp
   84433:	83 45 f4 01          	addl   $0x1,-0xc(%ebp)
   84437:	81 7d f4 ff 0f 00 00 	cmpl   $0xfff,-0xc(%ebp)
   8443e:	76 d6                	jbe    84416 <vmem_cloneKernelMemory+0x1b>
   84440:	8b 45 f0             	mov    -0x10(%ebp),%eax
   84443:	c9                   	leave  
   84444:	c3                   	ret    

00084445 <vmem_createTaskMemory>:
   84445:	f3 0f 1e fb          	endbr32 
   84449:	55                   	push   %ebp
   8444a:	89 e5                	mov    %esp,%ebp
   8444c:	83 ec 28             	sub    $0x28,%esp
   8444f:	a1 10 b9 0a 00       	mov    0xab910,%eax
   84454:	85 c0                	test   %eax,%eax
   84456:	75 0a                	jne    84462 <vmem_createTaskMemory+0x1d>
   84458:	b8 00 00 00 00       	mov    $0x0,%eax
   8445d:	e9 c7 00 00 00       	jmp    84529 <vmem_createTaskMemory+0xe4>
   84462:	e8 94 ff ff ff       	call   843fb <vmem_cloneKernelMemory>
   84467:	89 45 ec             	mov    %eax,-0x14(%ebp)
   8446a:	83 7d ec 00          	cmpl   $0x0,-0x14(%ebp)
   8446e:	75 0a                	jne    8447a <vmem_createTaskMemory+0x35>
   84470:	b8 00 00 00 00       	mov    $0x0,%eax
   84475:	e9 af 00 00 00       	jmp    84529 <vmem_createTaskMemory+0xe4>
   8447a:	8b 45 08             	mov    0x8(%ebp),%eax
   8447d:	c1 e8 0c             	shr    $0xc,%eax
   84480:	89 c2                	mov    %eax,%edx
   84482:	8b 45 08             	mov    0x8(%ebp),%eax
   84485:	25 ff 0f 00 00       	and    $0xfff,%eax
   8448a:	85 c0                	test   %eax,%eax
   8448c:	0f 95 c0             	setne  %al
   8448f:	0f b6 c0             	movzbl %al,%eax
   84492:	01 d0                	add    %edx,%eax
   84494:	89 45 e8             	mov    %eax,-0x18(%ebp)
   84497:	8b 45 0c             	mov    0xc(%ebp),%eax
   8449a:	c1 e8 0c             	shr    $0xc,%eax
   8449d:	89 c2                	mov    %eax,%edx
   8449f:	8b 45 0c             	mov    0xc(%ebp),%eax
   844a2:	25 ff 0f 00 00       	and    $0xfff,%eax
   844a7:	85 c0                	test   %eax,%eax
   844a9:	0f 95 c0             	setne  %al
   844ac:	0f b6 c0             	movzbl %al,%eax
   844af:	01 d0                	add    %edx,%eax
   844b1:	89 45 e4             	mov    %eax,-0x1c(%ebp)
   844b4:	c7 45 e0 00 40 00 00 	movl   $0x4000,-0x20(%ebp)
   844bb:	c7 45 dc 00 00 0c 00 	movl   $0xc0000,-0x24(%ebp)
   844c2:	c7 45 f4 00 00 00 00 	movl   $0x0,-0xc(%ebp)
   844c9:	eb 20                	jmp    844eb <vmem_createTaskMemory+0xa6>
   844cb:	8b 55 f4             	mov    -0xc(%ebp),%edx
   844ce:	8b 45 e0             	mov    -0x20(%ebp),%eax
   844d1:	01 d0                	add    %edx,%eax
   844d3:	c1 e0 0c             	shl    $0xc,%eax
   844d6:	83 ec 04             	sub    $0x4,%esp
   844d9:	6a 07                	push   $0x7
   844db:	50                   	push   %eax
   844dc:	ff 75 ec             	pushl  -0x14(%ebp)
   844df:	e8 82 fd ff ff       	call   84266 <vmem_allocPage>
   844e4:	83 c4 10             	add    $0x10,%esp
   844e7:	83 45 f4 01          	addl   $0x1,-0xc(%ebp)
   844eb:	8b 45 f4             	mov    -0xc(%ebp),%eax
   844ee:	39 45 e8             	cmp    %eax,-0x18(%ebp)
   844f1:	77 d8                	ja     844cb <vmem_createTaskMemory+0x86>
   844f3:	c7 45 f0 00 00 00 00 	movl   $0x0,-0x10(%ebp)
   844fa:	eb 22                	jmp    8451e <vmem_createTaskMemory+0xd9>
   844fc:	8b 45 f0             	mov    -0x10(%ebp),%eax
   844ff:	8b 55 dc             	mov    -0x24(%ebp),%edx
   84502:	29 c2                	sub    %eax,%edx
   84504:	89 d0                	mov    %edx,%eax
   84506:	c1 e0 0c             	shl    $0xc,%eax
   84509:	83 ec 04             	sub    $0x4,%esp
   8450c:	6a 07                	push   $0x7
   8450e:	50                   	push   %eax
   8450f:	ff 75 ec             	pushl  -0x14(%ebp)
   84512:	e8 4f fd ff ff       	call   84266 <vmem_allocPage>
   84517:	83 c4 10             	add    $0x10,%esp
   8451a:	83 45 f0 01          	addl   $0x1,-0x10(%ebp)
   8451e:	8b 45 f0             	mov    -0x10(%ebp),%eax
   84521:	39 45 e4             	cmp    %eax,-0x1c(%ebp)
   84524:	77 d6                	ja     844fc <vmem_createTaskMemory+0xb7>
   84526:	8b 45 ec             	mov    -0x14(%ebp),%eax
   84529:	c9                   	leave  
   8452a:	c3                   	ret    

0008452b <vmem_freeMemory>:
   8452b:	f3 0f 1e fb          	endbr32 
   8452f:	55                   	push   %ebp
   84530:	89 e5                	mov    %esp,%ebp
   84532:	53                   	push   %ebx
   84533:	83 ec 24             	sub    $0x24,%esp
   84536:	83 7d 08 00          	cmpl   $0x0,0x8(%ebp)
   8453a:	0f 84 2a 01 00 00    	je     8466a <vmem_freeMemory+0x13f>
   84540:	c7 45 f4 00 00 00 00 	movl   $0x0,-0xc(%ebp)
   84547:	e9 b9 00 00 00       	jmp    84605 <vmem_freeMemory+0xda>
   8454c:	8b 45 f4             	mov    -0xc(%ebp),%eax
   8454f:	66 25 ff 03          	and    $0x3ff,%ax
   84553:	66 89 45 ee          	mov    %ax,-0x12(%ebp)
   84557:	8b 45 f4             	mov    -0xc(%ebp),%eax
   8455a:	c1 e8 0a             	shr    $0xa,%eax
   8455d:	66 89 45 ec          	mov    %ax,-0x14(%ebp)
   84561:	0f b7 45 ec          	movzwl -0x14(%ebp),%eax
   84565:	50                   	push   %eax
   84566:	ff 75 08             	pushl  0x8(%ebp)
   84569:	e8 95 f7 ff ff       	call   83d03 <vmem_tablePresent>
   8456e:	83 c4 08             	add    $0x8,%esp
   84571:	84 c0                	test   %al,%al
   84573:	75 0f                	jne    84584 <vmem_freeMemory+0x59>
   84575:	0f b7 45 ec          	movzwl -0x14(%ebp),%eax
   84579:	83 c0 01             	add    $0x1,%eax
   8457c:	c1 e0 0a             	shl    $0xa,%eax
   8457f:	89 45 f4             	mov    %eax,-0xc(%ebp)
   84582:	eb 7d                	jmp    84601 <vmem_freeMemory+0xd6>
   84584:	8b 45 f4             	mov    -0xc(%ebp),%eax
   84587:	c1 e8 0a             	shr    $0xa,%eax
   8458a:	50                   	push   %eax
   8458b:	ff 75 08             	pushl  0x8(%ebp)
   8458e:	e8 86 f7 ff ff       	call   83d19 <vmem_getTable>
   84593:	83 c4 08             	add    $0x8,%esp
   84596:	89 45 e8             	mov    %eax,-0x18(%ebp)
   84599:	0f b7 55 ee          	movzwl -0x12(%ebp),%edx
   8459d:	8b 45 e8             	mov    -0x18(%ebp),%eax
   845a0:	0f b6 04 90          	movzbl (%eax,%edx,4),%eax
   845a4:	83 e0 01             	and    $0x1,%eax
   845a7:	84 c0                	test   %al,%al
   845a9:	74 55                	je     84600 <vmem_freeMemory+0xd5>
   845ab:	81 7d f4 ff 0f 00 00 	cmpl   $0xfff,-0xc(%ebp)
   845b2:	76 4d                	jbe    84601 <vmem_freeMemory+0xd6>
   845b4:	8b 45 f4             	mov    -0xc(%ebp),%eax
   845b7:	2d 00 10 00 00       	sub    $0x1000,%eax
   845bc:	c1 e8 03             	shr    $0x3,%eax
   845bf:	89 45 e4             	mov    %eax,-0x1c(%ebp)
   845c2:	8b 45 f4             	mov    -0xc(%ebp),%eax
   845c5:	83 e0 07             	and    $0x7,%eax
   845c8:	89 45 e0             	mov    %eax,-0x20(%ebp)
   845cb:	8b 15 04 b9 0a 00    	mov    0xab904,%edx
   845d1:	8b 45 e4             	mov    -0x1c(%ebp),%eax
   845d4:	01 d0                	add    %edx,%eax
   845d6:	0f b6 00             	movzbl (%eax),%eax
   845d9:	89 c2                	mov    %eax,%edx
   845db:	8b 45 e0             	mov    -0x20(%ebp),%eax
   845de:	bb 01 00 00 00       	mov    $0x1,%ebx
   845e3:	89 c1                	mov    %eax,%ecx
   845e5:	d3 e3                	shl    %cl,%ebx
   845e7:	89 d8                	mov    %ebx,%eax
   845e9:	f7 d0                	not    %eax
   845eb:	89 d1                	mov    %edx,%ecx
   845ed:	21 c1                	and    %eax,%ecx
   845ef:	8b 15 04 b9 0a 00    	mov    0xab904,%edx
   845f5:	8b 45 e4             	mov    -0x1c(%ebp),%eax
   845f8:	01 d0                	add    %edx,%eax
   845fa:	89 ca                	mov    %ecx,%edx
   845fc:	88 10                	mov    %dl,(%eax)
   845fe:	eb 01                	jmp    84601 <vmem_freeMemory+0xd6>
   84600:	90                   	nop
   84601:	83 45 f4 01          	addl   $0x1,-0xc(%ebp)
   84605:	81 7d f4 ff ff 0f 00 	cmpl   $0xfffff,-0xc(%ebp)
   8460c:	0f 86 3a ff ff ff    	jbe    8454c <vmem_freeMemory+0x21>
   84612:	c7 45 f0 00 00 00 00 	movl   $0x0,-0x10(%ebp)
   84619:	eb 36                	jmp    84651 <vmem_freeMemory+0x126>
   8461b:	83 7d f0 03          	cmpl   $0x3,-0x10(%ebp)
   8461f:	7e 2c                	jle    8464d <vmem_freeMemory+0x122>
   84621:	ff 75 f0             	pushl  -0x10(%ebp)
   84624:	ff 75 08             	pushl  0x8(%ebp)
   84627:	e8 d7 f6 ff ff       	call   83d03 <vmem_tablePresent>
   8462c:	83 c4 08             	add    $0x8,%esp
   8462f:	84 c0                	test   %al,%al
   84631:	74 1a                	je     8464d <vmem_freeMemory+0x122>
   84633:	ff 75 f0             	pushl  -0x10(%ebp)
   84636:	ff 75 08             	pushl  0x8(%ebp)
   84639:	e8 db f6 ff ff       	call   83d19 <vmem_getTable>
   8463e:	83 c4 08             	add    $0x8,%esp
   84641:	83 ec 0c             	sub    $0xc,%esp
   84644:	50                   	push   %eax
   84645:	e8 95 f6 ff ff       	call   83cdf <kfree>
   8464a:	83 c4 10             	add    $0x10,%esp
   8464d:	83 45 f0 01          	addl   $0x1,-0x10(%ebp)
   84651:	81 7d f0 ff 03 00 00 	cmpl   $0x3ff,-0x10(%ebp)
   84658:	7e c1                	jle    8461b <vmem_freeMemory+0xf0>
   8465a:	83 ec 0c             	sub    $0xc,%esp
   8465d:	ff 75 08             	pushl  0x8(%ebp)
   84660:	e8 7a f6 ff ff       	call   83cdf <kfree>
   84665:	83 c4 10             	add    $0x10,%esp
   84668:	eb 01                	jmp    8466b <vmem_freeMemory+0x140>
   8466a:	90                   	nop
   8466b:	8b 5d fc             	mov    -0x4(%ebp),%ebx
   8466e:	c9                   	leave  
   8466f:	c3                   	ret    

00084670 <vmem_switchMemory>:
   84670:	f3 0f 1e fb          	endbr32 
   84674:	55                   	push   %ebp
   84675:	89 e5                	mov    %esp,%ebp
   84677:	8b 45 08             	mov    0x8(%ebp),%eax
   8467a:	a3 0c b9 0a 00       	mov    %eax,0xab90c
   8467f:	8b 45 08             	mov    0x8(%ebp),%eax
   84682:	0f 22 d8             	mov    %eax,%cr3
   84685:	90                   	nop
   84686:	5d                   	pop    %ebp
   84687:	c3                   	ret    

00084688 <vmem_enable>:
   84688:	f3 0f 1e fb          	endbr32 
   8468c:	55                   	push   %ebp
   8468d:	89 e5                	mov    %esp,%ebp
   8468f:	83 ec 10             	sub    $0x10,%esp
   84692:	0f 20 c0             	mov    %cr0,%eax
   84695:	89 45 fc             	mov    %eax,-0x4(%ebp)
   84698:	81 4d fc 00 00 00 80 	orl    $0x80000000,-0x4(%ebp)
   8469f:	8b 45 fc             	mov    -0x4(%ebp),%eax
   846a2:	0f 22 c0             	mov    %eax,%cr0
   846a5:	90                   	nop
   846a6:	c9                   	leave  
   846a7:	c3                   	ret    

000846a8 <vmem_init>:
   846a8:	f3 0f 1e fb          	endbr32 
   846ac:	55                   	push   %ebp
   846ad:	89 e5                	mov    %esp,%ebp
   846af:	83 ec 18             	sub    $0x18,%esp
   846b2:	83 ec 0c             	sub    $0xc,%esp
   846b5:	68 00 00 10 00       	push   $0x100000
   846ba:	e8 e1 fb ff ff       	call   842a0 <vmem_initBitmap>
   846bf:	83 c4 10             	add    $0x10,%esp
   846c2:	e8 44 fc ff ff       	call   8430b <vmem_createMemory>
   846c7:	a3 10 b9 0a 00       	mov    %eax,0xab910
   846cc:	c7 45 f4 00 00 00 00 	movl   $0x0,-0xc(%ebp)
   846d3:	eb 26                	jmp    846fb <vmem_init+0x53>
   846d5:	8b 45 f4             	mov    -0xc(%ebp),%eax
   846d8:	c1 e0 0c             	shl    $0xc,%eax
   846db:	89 c1                	mov    %eax,%ecx
   846dd:	8b 45 f4             	mov    -0xc(%ebp),%eax
   846e0:	c1 e0 0c             	shl    $0xc,%eax
   846e3:	89 c2                	mov    %eax,%edx
   846e5:	a1 10 b9 0a 00       	mov    0xab910,%eax
   846ea:	6a 01                	push   $0x1
   846ec:	51                   	push   %ecx
   846ed:	52                   	push   %edx
   846ee:	50                   	push   %eax
   846ef:	e8 3a f9 ff ff       	call   8402e <vmem_mapPage>
   846f4:	83 c4 10             	add    $0x10,%esp
   846f7:	83 45 f4 01          	addl   $0x1,-0xc(%ebp)
   846fb:	81 7d f4 ff 0f 00 00 	cmpl   $0xfff,-0xc(%ebp)
   84702:	76 d1                	jbe    846d5 <vmem_init+0x2d>
   84704:	a1 10 b9 0a 00       	mov    0xab910,%eax
   84709:	83 ec 0c             	sub    $0xc,%esp
   8470c:	50                   	push   %eax
   8470d:	e8 5e ff ff ff       	call   84670 <vmem_switchMemory>
   84712:	83 c4 10             	add    $0x10,%esp
   84715:	e8 6e ff ff ff       	call   84688 <vmem_enable>
   8471a:	90                   	nop
   8471b:	c9                   	leave  
   8471c:	c3                   	ret    

0008471d <outb>:
   8471d:	55                   	push   %ebp
   8471e:	89 e5                	mov    %esp,%ebp
   84720:	83 ec 08             	sub    $0x8,%esp
   84723:	8b 45 08             	mov    0x8(%ebp),%eax
   84726:	8b 55 0c             	mov    0xc(%ebp),%edx
   84729:	66 89 45 fc          	mov    %ax,-0x4(%ebp)
   8472d:	89 d0                	mov    %edx,%eax
   8472f:	88 45 f8             	mov    %al,-0x8(%ebp)
   84732:	0f b6 45 f8          	movzbl -0x8(%ebp),%eax
   84736:	0f b7 55 fc          	movzwl -0x4(%ebp),%edx
   8473a:	ee                   	out    %al,(%dx)
   8473b:	90                   	nop
   8473c:	c9                   	leave  
   8473d:	c3                   	ret    

0008473e <inb>:
   8473e:	55                   	push   %ebp
   8473f:	89 e5                	mov    %esp,%ebp
   84741:	83 ec 14             	sub    $0x14,%esp
   84744:	8b 45 08             	mov    0x8(%ebp),%eax
   84747:	66 89 45 ec          	mov    %ax,-0x14(%ebp)
   8474b:	0f b7 45 ec          	movzwl -0x14(%ebp),%eax
   8474f:	89 c2                	mov    %eax,%edx
   84751:	ec                   	in     (%dx),%al
   84752:	88 45 ff             	mov    %al,-0x1(%ebp)
   84755:	0f b6 45 ff          	movzbl -0x1(%ebp),%eax
   84759:	c9                   	leave  
   8475a:	c3                   	ret    

0008475b <isr_init>:
   8475b:	f3 0f 1e fb          	endbr32 
   8475f:	55                   	push   %ebp
   84760:	89 e5                	mov    %esp,%ebp
   84762:	83 ec 18             	sub    $0x18,%esp
   84765:	b8 36 2f 08 00       	mov    $0x82f36,%eax
   8476a:	83 ec 08             	sub    $0x8,%esp
   8476d:	50                   	push   %eax
   8476e:	6a 00                	push   $0x0
   84770:	e8 ad 07 00 00       	call   84f22 <idt_setGate>
   84775:	83 c4 10             	add    $0x10,%esp
   84778:	b8 40 2f 08 00       	mov    $0x82f40,%eax
   8477d:	83 ec 08             	sub    $0x8,%esp
   84780:	50                   	push   %eax
   84781:	6a 01                	push   $0x1
   84783:	e8 9a 07 00 00       	call   84f22 <idt_setGate>
   84788:	83 c4 10             	add    $0x10,%esp
   8478b:	b8 4a 2f 08 00       	mov    $0x82f4a,%eax
   84790:	83 ec 08             	sub    $0x8,%esp
   84793:	50                   	push   %eax
   84794:	6a 02                	push   $0x2
   84796:	e8 87 07 00 00       	call   84f22 <idt_setGate>
   8479b:	83 c4 10             	add    $0x10,%esp
   8479e:	b8 54 2f 08 00       	mov    $0x82f54,%eax
   847a3:	83 ec 08             	sub    $0x8,%esp
   847a6:	50                   	push   %eax
   847a7:	6a 03                	push   $0x3
   847a9:	e8 74 07 00 00       	call   84f22 <idt_setGate>
   847ae:	83 c4 10             	add    $0x10,%esp
   847b1:	b8 5e 2f 08 00       	mov    $0x82f5e,%eax
   847b6:	83 ec 08             	sub    $0x8,%esp
   847b9:	50                   	push   %eax
   847ba:	6a 04                	push   $0x4
   847bc:	e8 61 07 00 00       	call   84f22 <idt_setGate>
   847c1:	83 c4 10             	add    $0x10,%esp
   847c4:	b8 68 2f 08 00       	mov    $0x82f68,%eax
   847c9:	83 ec 08             	sub    $0x8,%esp
   847cc:	50                   	push   %eax
   847cd:	6a 05                	push   $0x5
   847cf:	e8 4e 07 00 00       	call   84f22 <idt_setGate>
   847d4:	83 c4 10             	add    $0x10,%esp
   847d7:	b8 72 2f 08 00       	mov    $0x82f72,%eax
   847dc:	83 ec 08             	sub    $0x8,%esp
   847df:	50                   	push   %eax
   847e0:	6a 06                	push   $0x6
   847e2:	e8 3b 07 00 00       	call   84f22 <idt_setGate>
   847e7:	83 c4 10             	add    $0x10,%esp
   847ea:	b8 7c 2f 08 00       	mov    $0x82f7c,%eax
   847ef:	83 ec 08             	sub    $0x8,%esp
   847f2:	50                   	push   %eax
   847f3:	6a 07                	push   $0x7
   847f5:	e8 28 07 00 00       	call   84f22 <idt_setGate>
   847fa:	83 c4 10             	add    $0x10,%esp
   847fd:	b8 86 2f 08 00       	mov    $0x82f86,%eax
   84802:	83 ec 08             	sub    $0x8,%esp
   84805:	50                   	push   %eax
   84806:	6a 08                	push   $0x8
   84808:	e8 15 07 00 00       	call   84f22 <idt_setGate>
   8480d:	83 c4 10             	add    $0x10,%esp
   84810:	b8 90 2f 08 00       	mov    $0x82f90,%eax
   84815:	83 ec 08             	sub    $0x8,%esp
   84818:	50                   	push   %eax
   84819:	6a 09                	push   $0x9
   8481b:	e8 02 07 00 00       	call   84f22 <idt_setGate>
   84820:	83 c4 10             	add    $0x10,%esp
   84823:	b8 9a 2f 08 00       	mov    $0x82f9a,%eax
   84828:	83 ec 08             	sub    $0x8,%esp
   8482b:	50                   	push   %eax
   8482c:	6a 0a                	push   $0xa
   8482e:	e8 ef 06 00 00       	call   84f22 <idt_setGate>
   84833:	83 c4 10             	add    $0x10,%esp
   84836:	b8 a4 2f 08 00       	mov    $0x82fa4,%eax
   8483b:	83 ec 08             	sub    $0x8,%esp
   8483e:	50                   	push   %eax
   8483f:	6a 0b                	push   $0xb
   84841:	e8 dc 06 00 00       	call   84f22 <idt_setGate>
   84846:	83 c4 10             	add    $0x10,%esp
   84849:	b8 ae 2f 08 00       	mov    $0x82fae,%eax
   8484e:	83 ec 08             	sub    $0x8,%esp
   84851:	50                   	push   %eax
   84852:	6a 0c                	push   $0xc
   84854:	e8 c9 06 00 00       	call   84f22 <idt_setGate>
   84859:	83 c4 10             	add    $0x10,%esp
   8485c:	b8 b8 2f 08 00       	mov    $0x82fb8,%eax
   84861:	83 ec 08             	sub    $0x8,%esp
   84864:	50                   	push   %eax
   84865:	6a 0d                	push   $0xd
   84867:	e8 b6 06 00 00       	call   84f22 <idt_setGate>
   8486c:	83 c4 10             	add    $0x10,%esp
   8486f:	b8 c2 2f 08 00       	mov    $0x82fc2,%eax
   84874:	83 ec 08             	sub    $0x8,%esp
   84877:	50                   	push   %eax
   84878:	6a 0e                	push   $0xe
   8487a:	e8 a3 06 00 00       	call   84f22 <idt_setGate>
   8487f:	83 c4 10             	add    $0x10,%esp
   84882:	b8 cc 2f 08 00       	mov    $0x82fcc,%eax
   84887:	83 ec 08             	sub    $0x8,%esp
   8488a:	50                   	push   %eax
   8488b:	6a 0f                	push   $0xf
   8488d:	e8 90 06 00 00       	call   84f22 <idt_setGate>
   84892:	83 c4 10             	add    $0x10,%esp
   84895:	b8 d6 2f 08 00       	mov    $0x82fd6,%eax
   8489a:	83 ec 08             	sub    $0x8,%esp
   8489d:	50                   	push   %eax
   8489e:	6a 10                	push   $0x10
   848a0:	e8 7d 06 00 00       	call   84f22 <idt_setGate>
   848a5:	83 c4 10             	add    $0x10,%esp
   848a8:	b8 e0 2f 08 00       	mov    $0x82fe0,%eax
   848ad:	83 ec 08             	sub    $0x8,%esp
   848b0:	50                   	push   %eax
   848b1:	6a 11                	push   $0x11
   848b3:	e8 6a 06 00 00       	call   84f22 <idt_setGate>
   848b8:	83 c4 10             	add    $0x10,%esp
   848bb:	b8 ea 2f 08 00       	mov    $0x82fea,%eax
   848c0:	83 ec 08             	sub    $0x8,%esp
   848c3:	50                   	push   %eax
   848c4:	6a 12                	push   $0x12
   848c6:	e8 57 06 00 00       	call   84f22 <idt_setGate>
   848cb:	83 c4 10             	add    $0x10,%esp
   848ce:	b8 f4 2f 08 00       	mov    $0x82ff4,%eax
   848d3:	83 ec 08             	sub    $0x8,%esp
   848d6:	50                   	push   %eax
   848d7:	6a 13                	push   $0x13
   848d9:	e8 44 06 00 00       	call   84f22 <idt_setGate>
   848de:	83 c4 10             	add    $0x10,%esp
   848e1:	b8 fe 2f 08 00       	mov    $0x82ffe,%eax
   848e6:	83 ec 08             	sub    $0x8,%esp
   848e9:	50                   	push   %eax
   848ea:	6a 14                	push   $0x14
   848ec:	e8 31 06 00 00       	call   84f22 <idt_setGate>
   848f1:	83 c4 10             	add    $0x10,%esp
   848f4:	b8 08 30 08 00       	mov    $0x83008,%eax
   848f9:	83 ec 08             	sub    $0x8,%esp
   848fc:	50                   	push   %eax
   848fd:	6a 15                	push   $0x15
   848ff:	e8 1e 06 00 00       	call   84f22 <idt_setGate>
   84904:	83 c4 10             	add    $0x10,%esp
   84907:	b8 12 30 08 00       	mov    $0x83012,%eax
   8490c:	83 ec 08             	sub    $0x8,%esp
   8490f:	50                   	push   %eax
   84910:	6a 16                	push   $0x16
   84912:	e8 0b 06 00 00       	call   84f22 <idt_setGate>
   84917:	83 c4 10             	add    $0x10,%esp
   8491a:	b8 1c 30 08 00       	mov    $0x8301c,%eax
   8491f:	83 ec 08             	sub    $0x8,%esp
   84922:	50                   	push   %eax
   84923:	6a 17                	push   $0x17
   84925:	e8 f8 05 00 00       	call   84f22 <idt_setGate>
   8492a:	83 c4 10             	add    $0x10,%esp
   8492d:	b8 26 30 08 00       	mov    $0x83026,%eax
   84932:	83 ec 08             	sub    $0x8,%esp
   84935:	50                   	push   %eax
   84936:	6a 18                	push   $0x18
   84938:	e8 e5 05 00 00       	call   84f22 <idt_setGate>
   8493d:	83 c4 10             	add    $0x10,%esp
   84940:	b8 30 30 08 00       	mov    $0x83030,%eax
   84945:	83 ec 08             	sub    $0x8,%esp
   84948:	50                   	push   %eax
   84949:	6a 19                	push   $0x19
   8494b:	e8 d2 05 00 00       	call   84f22 <idt_setGate>
   84950:	83 c4 10             	add    $0x10,%esp
   84953:	b8 3a 30 08 00       	mov    $0x8303a,%eax
   84958:	83 ec 08             	sub    $0x8,%esp
   8495b:	50                   	push   %eax
   8495c:	6a 1a                	push   $0x1a
   8495e:	e8 bf 05 00 00       	call   84f22 <idt_setGate>
   84963:	83 c4 10             	add    $0x10,%esp
   84966:	b8 44 30 08 00       	mov    $0x83044,%eax
   8496b:	83 ec 08             	sub    $0x8,%esp
   8496e:	50                   	push   %eax
   8496f:	6a 1b                	push   $0x1b
   84971:	e8 ac 05 00 00       	call   84f22 <idt_setGate>
   84976:	83 c4 10             	add    $0x10,%esp
   84979:	b8 4e 30 08 00       	mov    $0x8304e,%eax
   8497e:	83 ec 08             	sub    $0x8,%esp
   84981:	50                   	push   %eax
   84982:	6a 1c                	push   $0x1c
   84984:	e8 99 05 00 00       	call   84f22 <idt_setGate>
   84989:	83 c4 10             	add    $0x10,%esp
   8498c:	b8 58 30 08 00       	mov    $0x83058,%eax
   84991:	83 ec 08             	sub    $0x8,%esp
   84994:	50                   	push   %eax
   84995:	6a 1d                	push   $0x1d
   84997:	e8 86 05 00 00       	call   84f22 <idt_setGate>
   8499c:	83 c4 10             	add    $0x10,%esp
   8499f:	b8 62 30 08 00       	mov    $0x83062,%eax
   849a4:	83 ec 08             	sub    $0x8,%esp
   849a7:	50                   	push   %eax
   849a8:	6a 1e                	push   $0x1e
   849aa:	e8 73 05 00 00       	call   84f22 <idt_setGate>
   849af:	83 c4 10             	add    $0x10,%esp
   849b2:	b8 6c 30 08 00       	mov    $0x8306c,%eax
   849b7:	83 ec 08             	sub    $0x8,%esp
   849ba:	50                   	push   %eax
   849bb:	6a 1f                	push   $0x1f
   849bd:	e8 60 05 00 00       	call   84f22 <idt_setGate>
   849c2:	83 c4 10             	add    $0x10,%esp
   849c5:	83 ec 0c             	sub    $0xc,%esp
   849c8:	6a 21                	push   $0x21
   849ca:	e8 6f fd ff ff       	call   8473e <inb>
   849cf:	83 c4 10             	add    $0x10,%esp
   849d2:	88 45 f7             	mov    %al,-0x9(%ebp)
   849d5:	83 ec 0c             	sub    $0xc,%esp
   849d8:	68 a1 00 00 00       	push   $0xa1
   849dd:	e8 5c fd ff ff       	call   8473e <inb>
   849e2:	83 c4 10             	add    $0x10,%esp
   849e5:	88 45 f6             	mov    %al,-0xa(%ebp)
   849e8:	83 ec 08             	sub    $0x8,%esp
   849eb:	6a 11                	push   $0x11
   849ed:	6a 20                	push   $0x20
   849ef:	e8 29 fd ff ff       	call   8471d <outb>
   849f4:	83 c4 10             	add    $0x10,%esp
   849f7:	83 ec 08             	sub    $0x8,%esp
   849fa:	6a 11                	push   $0x11
   849fc:	68 a0 00 00 00       	push   $0xa0
   84a01:	e8 17 fd ff ff       	call   8471d <outb>
   84a06:	83 c4 10             	add    $0x10,%esp
   84a09:	83 ec 08             	sub    $0x8,%esp
   84a0c:	6a 20                	push   $0x20
   84a0e:	6a 21                	push   $0x21
   84a10:	e8 08 fd ff ff       	call   8471d <outb>
   84a15:	83 c4 10             	add    $0x10,%esp
   84a18:	83 ec 08             	sub    $0x8,%esp
   84a1b:	6a 28                	push   $0x28
   84a1d:	68 a1 00 00 00       	push   $0xa1
   84a22:	e8 f6 fc ff ff       	call   8471d <outb>
   84a27:	83 c4 10             	add    $0x10,%esp
   84a2a:	83 ec 08             	sub    $0x8,%esp
   84a2d:	6a 04                	push   $0x4
   84a2f:	6a 21                	push   $0x21
   84a31:	e8 e7 fc ff ff       	call   8471d <outb>
   84a36:	83 c4 10             	add    $0x10,%esp
   84a39:	83 ec 08             	sub    $0x8,%esp
   84a3c:	6a 02                	push   $0x2
   84a3e:	68 a1 00 00 00       	push   $0xa1
   84a43:	e8 d5 fc ff ff       	call   8471d <outb>
   84a48:	83 c4 10             	add    $0x10,%esp
   84a4b:	83 ec 08             	sub    $0x8,%esp
   84a4e:	6a 01                	push   $0x1
   84a50:	6a 21                	push   $0x21
   84a52:	e8 c6 fc ff ff       	call   8471d <outb>
   84a57:	83 c4 10             	add    $0x10,%esp
   84a5a:	83 ec 08             	sub    $0x8,%esp
   84a5d:	6a 01                	push   $0x1
   84a5f:	68 a1 00 00 00       	push   $0xa1
   84a64:	e8 b4 fc ff ff       	call   8471d <outb>
   84a69:	83 c4 10             	add    $0x10,%esp
   84a6c:	0f b6 45 f7          	movzbl -0x9(%ebp),%eax
   84a70:	83 ec 08             	sub    $0x8,%esp
   84a73:	50                   	push   %eax
   84a74:	6a 21                	push   $0x21
   84a76:	e8 a2 fc ff ff       	call   8471d <outb>
   84a7b:	83 c4 10             	add    $0x10,%esp
   84a7e:	0f b6 45 f6          	movzbl -0xa(%ebp),%eax
   84a82:	83 ec 08             	sub    $0x8,%esp
   84a85:	50                   	push   %eax
   84a86:	68 a1 00 00 00       	push   $0xa1
   84a8b:	e8 8d fc ff ff       	call   8471d <outb>
   84a90:	83 c4 10             	add    $0x10,%esp
   84a93:	b8 76 30 08 00       	mov    $0x83076,%eax
   84a98:	83 ec 08             	sub    $0x8,%esp
   84a9b:	50                   	push   %eax
   84a9c:	6a 20                	push   $0x20
   84a9e:	e8 7f 04 00 00       	call   84f22 <idt_setGate>
   84aa3:	83 c4 10             	add    $0x10,%esp
   84aa6:	b8 80 30 08 00       	mov    $0x83080,%eax
   84aab:	83 ec 08             	sub    $0x8,%esp
   84aae:	50                   	push   %eax
   84aaf:	6a 21                	push   $0x21
   84ab1:	e8 6c 04 00 00       	call   84f22 <idt_setGate>
   84ab6:	83 c4 10             	add    $0x10,%esp
   84ab9:	b8 8a 30 08 00       	mov    $0x8308a,%eax
   84abe:	83 ec 08             	sub    $0x8,%esp
   84ac1:	50                   	push   %eax
   84ac2:	6a 22                	push   $0x22
   84ac4:	e8 59 04 00 00       	call   84f22 <idt_setGate>
   84ac9:	83 c4 10             	add    $0x10,%esp
   84acc:	b8 94 30 08 00       	mov    $0x83094,%eax
   84ad1:	83 ec 08             	sub    $0x8,%esp
   84ad4:	50                   	push   %eax
   84ad5:	6a 23                	push   $0x23
   84ad7:	e8 46 04 00 00       	call   84f22 <idt_setGate>
   84adc:	83 c4 10             	add    $0x10,%esp
   84adf:	b8 9e 30 08 00       	mov    $0x8309e,%eax
   84ae4:	83 ec 08             	sub    $0x8,%esp
   84ae7:	50                   	push   %eax
   84ae8:	6a 24                	push   $0x24
   84aea:	e8 33 04 00 00       	call   84f22 <idt_setGate>
   84aef:	83 c4 10             	add    $0x10,%esp
   84af2:	b8 a8 30 08 00       	mov    $0x830a8,%eax
   84af7:	83 ec 08             	sub    $0x8,%esp
   84afa:	50                   	push   %eax
   84afb:	6a 25                	push   $0x25
   84afd:	e8 20 04 00 00       	call   84f22 <idt_setGate>
   84b02:	83 c4 10             	add    $0x10,%esp
   84b05:	b8 b2 30 08 00       	mov    $0x830b2,%eax
   84b0a:	83 ec 08             	sub    $0x8,%esp
   84b0d:	50                   	push   %eax
   84b0e:	6a 26                	push   $0x26
   84b10:	e8 0d 04 00 00       	call   84f22 <idt_setGate>
   84b15:	83 c4 10             	add    $0x10,%esp
   84b18:	b8 bc 30 08 00       	mov    $0x830bc,%eax
   84b1d:	83 ec 08             	sub    $0x8,%esp
   84b20:	50                   	push   %eax
   84b21:	6a 27                	push   $0x27
   84b23:	e8 fa 03 00 00       	call   84f22 <idt_setGate>
   84b28:	83 c4 10             	add    $0x10,%esp
   84b2b:	b8 c6 30 08 00       	mov    $0x830c6,%eax
   84b30:	83 ec 08             	sub    $0x8,%esp
   84b33:	50                   	push   %eax
   84b34:	6a 28                	push   $0x28
   84b36:	e8 e7 03 00 00       	call   84f22 <idt_setGate>
   84b3b:	83 c4 10             	add    $0x10,%esp
   84b3e:	b8 d0 30 08 00       	mov    $0x830d0,%eax
   84b43:	83 ec 08             	sub    $0x8,%esp
   84b46:	50                   	push   %eax
   84b47:	6a 29                	push   $0x29
   84b49:	e8 d4 03 00 00       	call   84f22 <idt_setGate>
   84b4e:	83 c4 10             	add    $0x10,%esp
   84b51:	b8 da 30 08 00       	mov    $0x830da,%eax
   84b56:	83 ec 08             	sub    $0x8,%esp
   84b59:	50                   	push   %eax
   84b5a:	6a 2a                	push   $0x2a
   84b5c:	e8 c1 03 00 00       	call   84f22 <idt_setGate>
   84b61:	83 c4 10             	add    $0x10,%esp
   84b64:	b8 e4 30 08 00       	mov    $0x830e4,%eax
   84b69:	83 ec 08             	sub    $0x8,%esp
   84b6c:	50                   	push   %eax
   84b6d:	6a 2b                	push   $0x2b
   84b6f:	e8 ae 03 00 00       	call   84f22 <idt_setGate>
   84b74:	83 c4 10             	add    $0x10,%esp
   84b77:	b8 ee 30 08 00       	mov    $0x830ee,%eax
   84b7c:	83 ec 08             	sub    $0x8,%esp
   84b7f:	50                   	push   %eax
   84b80:	6a 2c                	push   $0x2c
   84b82:	e8 9b 03 00 00       	call   84f22 <idt_setGate>
   84b87:	83 c4 10             	add    $0x10,%esp
   84b8a:	b8 f8 30 08 00       	mov    $0x830f8,%eax
   84b8f:	83 ec 08             	sub    $0x8,%esp
   84b92:	50                   	push   %eax
   84b93:	6a 2d                	push   $0x2d
   84b95:	e8 88 03 00 00       	call   84f22 <idt_setGate>
   84b9a:	83 c4 10             	add    $0x10,%esp
   84b9d:	b8 02 31 08 00       	mov    $0x83102,%eax
   84ba2:	83 ec 08             	sub    $0x8,%esp
   84ba5:	50                   	push   %eax
   84ba6:	6a 2e                	push   $0x2e
   84ba8:	e8 75 03 00 00       	call   84f22 <idt_setGate>
   84bad:	83 c4 10             	add    $0x10,%esp
   84bb0:	b8 0c 31 08 00       	mov    $0x8310c,%eax
   84bb5:	83 ec 08             	sub    $0x8,%esp
   84bb8:	50                   	push   %eax
   84bb9:	6a 2f                	push   $0x2f
   84bbb:	e8 62 03 00 00       	call   84f22 <idt_setGate>
   84bc0:	83 c4 10             	add    $0x10,%esp
   84bc3:	90                   	nop
   84bc4:	c9                   	leave  
   84bc5:	c3                   	ret    

00084bc6 <isr_handler>:
   84bc6:	f3 0f 1e fb          	endbr32 
   84bca:	55                   	push   %ebp
   84bcb:	89 e5                	mov    %esp,%ebp
   84bcd:	83 ec 18             	sub    $0x18,%esp
   84bd0:	a1 90 be 0a 00       	mov    0xabe90,%eax
   84bd5:	89 45 f4             	mov    %eax,-0xc(%ebp)
   84bd8:	8b 45 f4             	mov    -0xc(%ebp),%eax
   84bdb:	8b 40 24             	mov    0x24(%eax),%eax
   84bde:	8b 04 85 20 b9 0a 00 	mov    0xab920(,%eax,4),%eax
   84be5:	85 c0                	test   %eax,%eax
   84be7:	74 22                	je     84c0b <isr_handler+0x45>
   84be9:	8b 45 f4             	mov    -0xc(%ebp),%eax
   84bec:	8b 40 24             	mov    0x24(%eax),%eax
   84bef:	8b 04 85 20 b9 0a 00 	mov    0xab920(,%eax,4),%eax
   84bf6:	83 ec 0c             	sub    $0xc,%esp
   84bf9:	ff 75 f4             	pushl  -0xc(%ebp)
   84bfc:	ff d0                	call   *%eax
   84bfe:	83 c4 10             	add    $0x10,%esp
   84c01:	e8 29 5b 00 00       	call   8a72f <task_switch>
   84c06:	e9 8b 02 00 00       	jmp    84e96 <isr_handler+0x2d0>
   84c0b:	8b 45 f4             	mov    -0xc(%ebp),%eax
   84c0e:	8b 40 28             	mov    0x28(%eax),%eax
   84c11:	89 c2                	mov    %eax,%edx
   84c13:	8b 45 f4             	mov    -0xc(%ebp),%eax
   84c16:	8b 40 24             	mov    0x24(%eax),%eax
   84c19:	83 ec 08             	sub    $0x8,%esp
   84c1c:	52                   	push   %edx
   84c1d:	50                   	push   %eax
   84c1e:	e8 bd 61 00 00       	call   8ade0 <task_exception>
   84c23:	83 c4 10             	add    $0x10,%esp
   84c26:	83 ec 08             	sub    $0x8,%esp
   84c29:	6a 00                	push   $0x0
   84c2b:	6a 04                	push   $0x4
   84c2d:	e8 6b 19 00 00       	call   8659d <vga_setColor>
   84c32:	83 c4 10             	add    $0x10,%esp
   84c35:	83 ec 0c             	sub    $0xc,%esp
   84c38:	68 68 1c 08 00       	push   $0x81c68
   84c3d:	e8 88 19 00 00       	call   865ca <vga_writeText>
   84c42:	83 c4 10             	add    $0x10,%esp
   84c45:	8b 45 f4             	mov    -0xc(%ebp),%eax
   84c48:	8b 40 24             	mov    0x24(%eax),%eax
   84c4b:	8b 04 85 40 ae 08 00 	mov    0x8ae40(,%eax,4),%eax
   84c52:	83 ec 0c             	sub    $0xc,%esp
   84c55:	50                   	push   %eax
   84c56:	e8 6f 19 00 00       	call   865ca <vga_writeText>
   84c5b:	83 c4 10             	add    $0x10,%esp
   84c5e:	8b 45 f4             	mov    -0xc(%ebp),%eax
   84c61:	8b 40 24             	mov    0x24(%eax),%eax
   84c64:	83 f8 0e             	cmp    $0xe,%eax
   84c67:	0f 85 ca 00 00 00    	jne    84d37 <isr_handler+0x171>
   84c6d:	83 ec 0c             	sub    $0xc,%esp
   84c70:	68 71 1c 08 00       	push   $0x81c71
   84c75:	e8 50 19 00 00       	call   865ca <vga_writeText>
   84c7a:	83 c4 10             	add    $0x10,%esp
   84c7d:	8b 45 f4             	mov    -0xc(%ebp),%eax
   84c80:	83 c0 28             	add    $0x28,%eax
   84c83:	8b 00                	mov    (%eax),%eax
   84c85:	89 45 f0             	mov    %eax,-0x10(%ebp)
   84c88:	0f b6 45 f0          	movzbl -0x10(%ebp),%eax
   84c8c:	83 e0 01             	and    $0x1,%eax
   84c8f:	84 c0                	test   %al,%al
   84c91:	75 07                	jne    84c9a <isr_handler+0xd4>
   84c93:	b8 75 1c 08 00       	mov    $0x81c75,%eax
   84c98:	eb 05                	jmp    84c9f <isr_handler+0xd9>
   84c9a:	b8 87 1c 08 00       	mov    $0x81c87,%eax
   84c9f:	83 ec 0c             	sub    $0xc,%esp
   84ca2:	50                   	push   %eax
   84ca3:	e8 22 19 00 00       	call   865ca <vga_writeText>
   84ca8:	83 c4 10             	add    $0x10,%esp
   84cab:	0f b6 45 f0          	movzbl -0x10(%ebp),%eax
   84caf:	83 e0 02             	and    $0x2,%eax
   84cb2:	84 c0                	test   %al,%al
   84cb4:	74 07                	je     84cbd <isr_handler+0xf7>
   84cb6:	b8 88 1c 08 00       	mov    $0x81c88,%eax
   84cbb:	eb 05                	jmp    84cc2 <isr_handler+0xfc>
   84cbd:	b8 8f 1c 08 00       	mov    $0x81c8f,%eax
   84cc2:	83 ec 0c             	sub    $0xc,%esp
   84cc5:	50                   	push   %eax
   84cc6:	e8 ff 18 00 00       	call   865ca <vga_writeText>
   84ccb:	83 c4 10             	add    $0x10,%esp
   84cce:	0f b6 45 f0          	movzbl -0x10(%ebp),%eax
   84cd2:	83 e0 04             	and    $0x4,%eax
   84cd5:	84 c0                	test   %al,%al
   84cd7:	74 07                	je     84ce0 <isr_handler+0x11a>
   84cd9:	b8 95 1c 08 00       	mov    $0x81c95,%eax
   84cde:	eb 05                	jmp    84ce5 <isr_handler+0x11f>
   84ce0:	b8 a0 1c 08 00       	mov    $0x81ca0,%eax
   84ce5:	83 ec 0c             	sub    $0xc,%esp
   84ce8:	50                   	push   %eax
   84ce9:	e8 dc 18 00 00       	call   865ca <vga_writeText>
   84cee:	83 c4 10             	add    $0x10,%esp
   84cf1:	0f b6 45 f0          	movzbl -0x10(%ebp),%eax
   84cf5:	83 e0 08             	and    $0x8,%eax
   84cf8:	84 c0                	test   %al,%al
   84cfa:	74 07                	je     84d03 <isr_handler+0x13d>
   84cfc:	b8 ad 1c 08 00       	mov    $0x81cad,%eax
   84d01:	eb 05                	jmp    84d08 <isr_handler+0x142>
   84d03:	b8 87 1c 08 00       	mov    $0x81c87,%eax
   84d08:	83 ec 0c             	sub    $0xc,%esp
   84d0b:	50                   	push   %eax
   84d0c:	e8 b9 18 00 00       	call   865ca <vga_writeText>
   84d11:	83 c4 10             	add    $0x10,%esp
   84d14:	0f b6 45 f0          	movzbl -0x10(%ebp),%eax
   84d18:	83 e0 10             	and    $0x10,%eax
   84d1b:	84 c0                	test   %al,%al
   84d1d:	74 07                	je     84d26 <isr_handler+0x160>
   84d1f:	b8 c1 1c 08 00       	mov    $0x81cc1,%eax
   84d24:	eb 05                	jmp    84d2b <isr_handler+0x165>
   84d26:	b8 87 1c 08 00       	mov    $0x81c87,%eax
   84d2b:	83 ec 0c             	sub    $0xc,%esp
   84d2e:	50                   	push   %eax
   84d2f:	e8 96 18 00 00       	call   865ca <vga_writeText>
   84d34:	83 c4 10             	add    $0x10,%esp
   84d37:	83 ec 0c             	sub    $0xc,%esp
   84d3a:	6a 0a                	push   $0xa
   84d3c:	e8 b1 17 00 00       	call   864f2 <vga_writeChar>
   84d41:	83 c4 10             	add    $0x10,%esp
   84d44:	83 ec 0c             	sub    $0xc,%esp
   84d47:	68 d4 1c 08 00       	push   $0x81cd4
   84d4c:	e8 79 18 00 00       	call   865ca <vga_writeText>
   84d51:	83 c4 10             	add    $0x10,%esp
   84d54:	8b 45 f4             	mov    -0xc(%ebp),%eax
   84d57:	8b 40 2c             	mov    0x2c(%eax),%eax
   84d5a:	83 ec 0c             	sub    $0xc,%esp
   84d5d:	50                   	push   %eax
   84d5e:	e8 68 19 00 00       	call   866cb <vga_writeDWord>
   84d63:	83 c4 10             	add    $0x10,%esp
   84d66:	83 ec 0c             	sub    $0xc,%esp
   84d69:	68 db 1c 08 00       	push   $0x81cdb
   84d6e:	e8 57 18 00 00       	call   865ca <vga_writeText>
   84d73:	83 c4 10             	add    $0x10,%esp
   84d76:	83 ec 0c             	sub    $0xc,%esp
   84d79:	68 de 1c 08 00       	push   $0x81cde
   84d7e:	e8 47 18 00 00       	call   865ca <vga_writeText>
   84d83:	83 c4 10             	add    $0x10,%esp
   84d86:	8b 45 f4             	mov    -0xc(%ebp),%eax
   84d89:	8b 40 20             	mov    0x20(%eax),%eax
   84d8c:	83 ec 0c             	sub    $0xc,%esp
   84d8f:	50                   	push   %eax
   84d90:	e8 36 19 00 00       	call   866cb <vga_writeDWord>
   84d95:	83 c4 10             	add    $0x10,%esp
   84d98:	83 ec 0c             	sub    $0xc,%esp
   84d9b:	6a 0a                	push   $0xa
   84d9d:	e8 50 17 00 00       	call   864f2 <vga_writeChar>
   84da2:	83 c4 10             	add    $0x10,%esp
   84da5:	83 ec 0c             	sub    $0xc,%esp
   84da8:	68 e5 1c 08 00       	push   $0x81ce5
   84dad:	e8 18 18 00 00       	call   865ca <vga_writeText>
   84db2:	83 c4 10             	add    $0x10,%esp
   84db5:	8b 45 f4             	mov    -0xc(%ebp),%eax
   84db8:	8b 40 14             	mov    0x14(%eax),%eax
   84dbb:	83 ec 0c             	sub    $0xc,%esp
   84dbe:	50                   	push   %eax
   84dbf:	e8 07 19 00 00       	call   866cb <vga_writeDWord>
   84dc4:	83 c4 10             	add    $0x10,%esp
   84dc7:	83 ec 0c             	sub    $0xc,%esp
   84dca:	6a 0a                	push   $0xa
   84dcc:	e8 21 17 00 00       	call   864f2 <vga_writeChar>
   84dd1:	83 c4 10             	add    $0x10,%esp
   84dd4:	83 ec 0c             	sub    $0xc,%esp
   84dd7:	68 ec 1c 08 00       	push   $0x81cec
   84ddc:	e8 e9 17 00 00       	call   865ca <vga_writeText>
   84de1:	83 c4 10             	add    $0x10,%esp
   84de4:	8b 45 f4             	mov    -0xc(%ebp),%eax
   84de7:	8b 40 1c             	mov    0x1c(%eax),%eax
   84dea:	83 ec 0c             	sub    $0xc,%esp
   84ded:	50                   	push   %eax
   84dee:	e8 d8 18 00 00       	call   866cb <vga_writeDWord>
   84df3:	83 c4 10             	add    $0x10,%esp
   84df6:	83 ec 0c             	sub    $0xc,%esp
   84df9:	6a 0a                	push   $0xa
   84dfb:	e8 f2 16 00 00       	call   864f2 <vga_writeChar>
   84e00:	83 c4 10             	add    $0x10,%esp
   84e03:	83 ec 0c             	sub    $0xc,%esp
   84e06:	68 f3 1c 08 00       	push   $0x81cf3
   84e0b:	e8 ba 17 00 00       	call   865ca <vga_writeText>
   84e10:	83 c4 10             	add    $0x10,%esp
   84e13:	8b 45 f4             	mov    -0xc(%ebp),%eax
   84e16:	8b 40 18             	mov    0x18(%eax),%eax
   84e19:	83 ec 0c             	sub    $0xc,%esp
   84e1c:	50                   	push   %eax
   84e1d:	e8 a9 18 00 00       	call   866cb <vga_writeDWord>
   84e22:	83 c4 10             	add    $0x10,%esp
   84e25:	83 ec 0c             	sub    $0xc,%esp
   84e28:	68 db 1c 08 00       	push   $0x81cdb
   84e2d:	e8 98 17 00 00       	call   865ca <vga_writeText>
   84e32:	83 c4 10             	add    $0x10,%esp
   84e35:	83 ec 0c             	sub    $0xc,%esp
   84e38:	68 fa 1c 08 00       	push   $0x81cfa
   84e3d:	e8 88 17 00 00       	call   865ca <vga_writeText>
   84e42:	83 c4 10             	add    $0x10,%esp
   84e45:	8b 45 f4             	mov    -0xc(%ebp),%eax
   84e48:	8b 40 10             	mov    0x10(%eax),%eax
   84e4b:	83 ec 0c             	sub    $0xc,%esp
   84e4e:	50                   	push   %eax
   84e4f:	e8 77 18 00 00       	call   866cb <vga_writeDWord>
   84e54:	83 c4 10             	add    $0x10,%esp
   84e57:	83 ec 0c             	sub    $0xc,%esp
   84e5a:	6a 0a                	push   $0xa
   84e5c:	e8 91 16 00 00       	call   864f2 <vga_writeChar>
   84e61:	83 c4 10             	add    $0x10,%esp
   84e64:	83 ec 0c             	sub    $0xc,%esp
   84e67:	68 01 1d 08 00       	push   $0x81d01
   84e6c:	e8 59 17 00 00       	call   865ca <vga_writeText>
   84e71:	83 c4 10             	add    $0x10,%esp
   84e74:	8b 45 f4             	mov    -0xc(%ebp),%eax
   84e77:	8b 40 0c             	mov    0xc(%eax),%eax
   84e7a:	83 ec 0c             	sub    $0xc,%esp
   84e7d:	50                   	push   %eax
   84e7e:	e8 48 18 00 00       	call   866cb <vga_writeDWord>
   84e83:	83 c4 10             	add    $0x10,%esp
   84e86:	83 ec 0c             	sub    $0xc,%esp
   84e89:	6a 0a                	push   $0xa
   84e8b:	e8 62 16 00 00       	call   864f2 <vga_writeChar>
   84e90:	83 c4 10             	add    $0x10,%esp
   84e93:	fa                   	cli    
   84e94:	eb fe                	jmp    84e94 <isr_handler+0x2ce>
   84e96:	c9                   	leave  
   84e97:	c3                   	ret    

00084e98 <irq_handler>:
   84e98:	f3 0f 1e fb          	endbr32 
   84e9c:	55                   	push   %ebp
   84e9d:	89 e5                	mov    %esp,%ebp
   84e9f:	83 ec 18             	sub    $0x18,%esp
   84ea2:	a1 90 be 0a 00       	mov    0xabe90,%eax
   84ea7:	89 45 f4             	mov    %eax,-0xc(%ebp)
   84eaa:	8b 45 f4             	mov    -0xc(%ebp),%eax
   84ead:	8b 40 24             	mov    0x24(%eax),%eax
   84eb0:	83 f8 27             	cmp    $0x27,%eax
   84eb3:	76 0f                	jbe    84ec4 <irq_handler+0x2c>
   84eb5:	6a 20                	push   $0x20
   84eb7:	68 a0 00 00 00       	push   $0xa0
   84ebc:	e8 5c f8 ff ff       	call   8471d <outb>
   84ec1:	83 c4 08             	add    $0x8,%esp
   84ec4:	6a 20                	push   $0x20
   84ec6:	6a 20                	push   $0x20
   84ec8:	e8 50 f8 ff ff       	call   8471d <outb>
   84ecd:	83 c4 08             	add    $0x8,%esp
   84ed0:	8b 45 f4             	mov    -0xc(%ebp),%eax
   84ed3:	8b 40 24             	mov    0x24(%eax),%eax
   84ed6:	8b 04 85 20 b9 0a 00 	mov    0xab920(,%eax,4),%eax
   84edd:	85 c0                	test   %eax,%eax
   84edf:	74 18                	je     84ef9 <irq_handler+0x61>
   84ee1:	8b 45 f4             	mov    -0xc(%ebp),%eax
   84ee4:	8b 40 24             	mov    0x24(%eax),%eax
   84ee7:	8b 04 85 20 b9 0a 00 	mov    0xab920(,%eax,4),%eax
   84eee:	83 ec 0c             	sub    $0xc,%esp
   84ef1:	ff 75 f4             	pushl  -0xc(%ebp)
   84ef4:	ff d0                	call   *%eax
   84ef6:	83 c4 10             	add    $0x10,%esp
   84ef9:	e8 31 58 00 00       	call   8a72f <task_switch>
   84efe:	90                   	nop
   84eff:	c9                   	leave  
   84f00:	c3                   	ret    

00084f01 <isr_register>:
   84f01:	f3 0f 1e fb          	endbr32 
   84f05:	55                   	push   %ebp
   84f06:	89 e5                	mov    %esp,%ebp
   84f08:	83 ec 04             	sub    $0x4,%esp
   84f0b:	8b 45 08             	mov    0x8(%ebp),%eax
   84f0e:	88 45 fc             	mov    %al,-0x4(%ebp)
   84f11:	0f b6 45 fc          	movzbl -0x4(%ebp),%eax
   84f15:	8b 55 0c             	mov    0xc(%ebp),%edx
   84f18:	89 14 85 20 b9 0a 00 	mov    %edx,0xab920(,%eax,4)
   84f1f:	90                   	nop
   84f20:	c9                   	leave  
   84f21:	c3                   	ret    

00084f22 <idt_setGate>:
   84f22:	f3 0f 1e fb          	endbr32 
   84f26:	55                   	push   %ebp
   84f27:	89 e5                	mov    %esp,%ebp
   84f29:	8b 45 0c             	mov    0xc(%ebp),%eax
   84f2c:	89 c2                	mov    %eax,%edx
   84f2e:	8b 45 08             	mov    0x8(%ebp),%eax
   84f31:	66 89 14 c5 00 b1 0a 	mov    %dx,0xab100(,%eax,8)
   84f38:	00 
   84f39:	8b 45 08             	mov    0x8(%ebp),%eax
   84f3c:	66 c7 04 c5 02 b1 0a 	movw   $0x8,0xab102(,%eax,8)
   84f43:	00 08 00 
   84f46:	8b 45 08             	mov    0x8(%ebp),%eax
   84f49:	c6 04 c5 04 b1 0a 00 	movb   $0x0,0xab104(,%eax,8)
   84f50:	00 
   84f51:	8b 45 08             	mov    0x8(%ebp),%eax
   84f54:	c6 04 c5 05 b1 0a 00 	movb   $0x8e,0xab105(,%eax,8)
   84f5b:	8e 
   84f5c:	8b 45 0c             	mov    0xc(%ebp),%eax
   84f5f:	c1 e8 10             	shr    $0x10,%eax
   84f62:	89 c2                	mov    %eax,%edx
   84f64:	8b 45 08             	mov    0x8(%ebp),%eax
   84f67:	66 89 14 c5 06 b1 0a 	mov    %dx,0xab106(,%eax,8)
   84f6e:	00 
   84f6f:	90                   	nop
   84f70:	5d                   	pop    %ebp
   84f71:	c3                   	ret    

00084f72 <idt_init>:
   84f72:	f3 0f 1e fb          	endbr32 
   84f76:	55                   	push   %ebp
   84f77:	89 e5                	mov    %esp,%ebp
   84f79:	b8 00 b1 0a 00       	mov    $0xab100,%eax
   84f7e:	a3 e2 b0 0a 00       	mov    %eax,0xab0e2
   84f83:	66 c7 05 e0 b0 0a 00 	movw   $0x7ff,0xab0e0
   84f8a:	ff 07 
   84f8c:	b8 e0 b0 0a 00       	mov    $0xab0e0,%eax
   84f91:	0f 01 18             	lidtl  (%eax)
   84f94:	90                   	nop
   84f95:	5d                   	pop    %ebp
   84f96:	c3                   	ret    

00084f97 <cpuid_check>:
   84f97:	f3 0f 1e fb          	endbr32 
   84f9b:	55                   	push   %ebp
   84f9c:	89 e5                	mov    %esp,%ebp
   84f9e:	83 ec 08             	sub    $0x8,%esp
   84fa1:	e8 7a e1 ff ff       	call   83120 <check_cpuid_asm>
   84fa6:	c9                   	leave  
   84fa7:	c3                   	ret    

00084fa8 <cmp_id>:
   84fa8:	f3 0f 1e fb          	endbr32 
   84fac:	55                   	push   %ebp
   84fad:	89 e5                	mov    %esp,%ebp
   84faf:	83 ec 10             	sub    $0x10,%esp
   84fb2:	c7 45 fc 00 00 00 00 	movl   $0x0,-0x4(%ebp)
   84fb9:	eb 25                	jmp    84fe0 <cmp_id+0x38>
   84fbb:	8b 55 fc             	mov    -0x4(%ebp),%edx
   84fbe:	8b 45 08             	mov    0x8(%ebp),%eax
   84fc1:	01 d0                	add    %edx,%eax
   84fc3:	0f b6 10             	movzbl (%eax),%edx
   84fc6:	8b 4d fc             	mov    -0x4(%ebp),%ecx
   84fc9:	8b 45 0c             	mov    0xc(%ebp),%eax
   84fcc:	01 c8                	add    %ecx,%eax
   84fce:	0f b6 00             	movzbl (%eax),%eax
   84fd1:	38 c2                	cmp    %al,%dl
   84fd3:	74 07                	je     84fdc <cmp_id+0x34>
   84fd5:	b8 00 00 00 00       	mov    $0x0,%eax
   84fda:	eb 0f                	jmp    84feb <cmp_id+0x43>
   84fdc:	83 45 fc 01          	addl   $0x1,-0x4(%ebp)
   84fe0:	83 7d fc 0b          	cmpl   $0xb,-0x4(%ebp)
   84fe4:	7e d5                	jle    84fbb <cmp_id+0x13>
   84fe6:	b8 01 00 00 00       	mov    $0x1,%eax
   84feb:	c9                   	leave  
   84fec:	c3                   	ret    

00084fed <cpuid_vendor>:
   84fed:	f3 0f 1e fb          	endbr32 
   84ff1:	55                   	push   %ebp
   84ff2:	89 e5                	mov    %esp,%ebp
   84ff4:	53                   	push   %ebx
   84ff5:	83 ec 20             	sub    $0x20,%esp
   84ff8:	c7 45 f8 00 00 00 00 	movl   $0x0,-0x8(%ebp)
   84fff:	0f a2                	cpuid  
   85001:	89 45 f8             	mov    %eax,-0x8(%ebp)
   85004:	89 5d f4             	mov    %ebx,-0xc(%ebp)
   85007:	89 4d f0             	mov    %ecx,-0x10(%ebp)
   8500a:	89 55 ec             	mov    %edx,-0x14(%ebp)
   8500d:	8d 45 e0             	lea    -0x20(%ebp),%eax
   85010:	8b 55 f4             	mov    -0xc(%ebp),%edx
   85013:	89 10                	mov    %edx,(%eax)
   85015:	8d 45 e0             	lea    -0x20(%ebp),%eax
   85018:	83 c0 04             	add    $0x4,%eax
   8501b:	8b 55 ec             	mov    -0x14(%ebp),%edx
   8501e:	89 10                	mov    %edx,(%eax)
   85020:	8d 45 e0             	lea    -0x20(%ebp),%eax
   85023:	83 c0 08             	add    $0x8,%eax
   85026:	8b 55 f0             	mov    -0x10(%ebp),%edx
   85029:	89 10                	mov    %edx,(%eax)
   8502b:	68 08 1d 08 00       	push   $0x81d08
   85030:	8d 45 e0             	lea    -0x20(%ebp),%eax
   85033:	50                   	push   %eax
   85034:	e8 6f ff ff ff       	call   84fa8 <cmp_id>
   85039:	83 c4 08             	add    $0x8,%esp
   8503c:	84 c0                	test   %al,%al
   8503e:	74 0a                	je     8504a <cpuid_vendor+0x5d>
   85040:	b8 08 1d 08 00       	mov    $0x81d08,%eax
   85045:	e9 3e 02 00 00       	jmp    85288 <cpuid_vendor+0x29b>
   8504a:	68 15 1d 08 00       	push   $0x81d15
   8504f:	8d 45 e0             	lea    -0x20(%ebp),%eax
   85052:	50                   	push   %eax
   85053:	e8 50 ff ff ff       	call   84fa8 <cmp_id>
   85058:	83 c4 08             	add    $0x8,%esp
   8505b:	84 c0                	test   %al,%al
   8505d:	74 0a                	je     85069 <cpuid_vendor+0x7c>
   8505f:	b8 15 1d 08 00       	mov    $0x81d15,%eax
   85064:	e9 1f 02 00 00       	jmp    85288 <cpuid_vendor+0x29b>
   85069:	68 22 1d 08 00       	push   $0x81d22
   8506e:	8d 45 e0             	lea    -0x20(%ebp),%eax
   85071:	50                   	push   %eax
   85072:	e8 31 ff ff ff       	call   84fa8 <cmp_id>
   85077:	83 c4 08             	add    $0x8,%esp
   8507a:	84 c0                	test   %al,%al
   8507c:	74 0a                	je     85088 <cpuid_vendor+0x9b>
   8507e:	b8 22 1d 08 00       	mov    $0x81d22,%eax
   85083:	e9 00 02 00 00       	jmp    85288 <cpuid_vendor+0x29b>
   85088:	68 2f 1d 08 00       	push   $0x81d2f
   8508d:	8d 45 e0             	lea    -0x20(%ebp),%eax
   85090:	50                   	push   %eax
   85091:	e8 12 ff ff ff       	call   84fa8 <cmp_id>
   85096:	83 c4 08             	add    $0x8,%esp
   85099:	84 c0                	test   %al,%al
   8509b:	74 0a                	je     850a7 <cpuid_vendor+0xba>
   8509d:	b8 2f 1d 08 00       	mov    $0x81d2f,%eax
   850a2:	e9 e1 01 00 00       	jmp    85288 <cpuid_vendor+0x29b>
   850a7:	68 3c 1d 08 00       	push   $0x81d3c
   850ac:	8d 45 e0             	lea    -0x20(%ebp),%eax
   850af:	50                   	push   %eax
   850b0:	e8 f3 fe ff ff       	call   84fa8 <cmp_id>
   850b5:	83 c4 08             	add    $0x8,%esp
   850b8:	84 c0                	test   %al,%al
   850ba:	74 0a                	je     850c6 <cpuid_vendor+0xd9>
   850bc:	b8 3c 1d 08 00       	mov    $0x81d3c,%eax
   850c1:	e9 c2 01 00 00       	jmp    85288 <cpuid_vendor+0x29b>
   850c6:	68 49 1d 08 00       	push   $0x81d49
   850cb:	8d 45 e0             	lea    -0x20(%ebp),%eax
   850ce:	50                   	push   %eax
   850cf:	e8 d4 fe ff ff       	call   84fa8 <cmp_id>
   850d4:	83 c4 08             	add    $0x8,%esp
   850d7:	84 c0                	test   %al,%al
   850d9:	74 0a                	je     850e5 <cpuid_vendor+0xf8>
   850db:	b8 49 1d 08 00       	mov    $0x81d49,%eax
   850e0:	e9 a3 01 00 00       	jmp    85288 <cpuid_vendor+0x29b>
   850e5:	68 56 1d 08 00       	push   $0x81d56
   850ea:	8d 45 e0             	lea    -0x20(%ebp),%eax
   850ed:	50                   	push   %eax
   850ee:	e8 b5 fe ff ff       	call   84fa8 <cmp_id>
   850f3:	83 c4 08             	add    $0x8,%esp
   850f6:	84 c0                	test   %al,%al
   850f8:	74 0a                	je     85104 <cpuid_vendor+0x117>
   850fa:	b8 56 1d 08 00       	mov    $0x81d56,%eax
   850ff:	e9 84 01 00 00       	jmp    85288 <cpuid_vendor+0x29b>
   85104:	68 2f 1d 08 00       	push   $0x81d2f
   85109:	8d 45 e0             	lea    -0x20(%ebp),%eax
   8510c:	50                   	push   %eax
   8510d:	e8 96 fe ff ff       	call   84fa8 <cmp_id>
   85112:	83 c4 08             	add    $0x8,%esp
   85115:	84 c0                	test   %al,%al
   85117:	74 0a                	je     85123 <cpuid_vendor+0x136>
   85119:	b8 2f 1d 08 00       	mov    $0x81d2f,%eax
   8511e:	e9 65 01 00 00       	jmp    85288 <cpuid_vendor+0x29b>
   85123:	68 63 1d 08 00       	push   $0x81d63
   85128:	8d 45 e0             	lea    -0x20(%ebp),%eax
   8512b:	50                   	push   %eax
   8512c:	e8 77 fe ff ff       	call   84fa8 <cmp_id>
   85131:	83 c4 08             	add    $0x8,%esp
   85134:	84 c0                	test   %al,%al
   85136:	74 0a                	je     85142 <cpuid_vendor+0x155>
   85138:	b8 63 1d 08 00       	mov    $0x81d63,%eax
   8513d:	e9 46 01 00 00       	jmp    85288 <cpuid_vendor+0x29b>
   85142:	68 70 1d 08 00       	push   $0x81d70
   85147:	8d 45 e0             	lea    -0x20(%ebp),%eax
   8514a:	50                   	push   %eax
   8514b:	e8 58 fe ff ff       	call   84fa8 <cmp_id>
   85150:	83 c4 08             	add    $0x8,%esp
   85153:	84 c0                	test   %al,%al
   85155:	74 0a                	je     85161 <cpuid_vendor+0x174>
   85157:	b8 70 1d 08 00       	mov    $0x81d70,%eax
   8515c:	e9 27 01 00 00       	jmp    85288 <cpuid_vendor+0x29b>
   85161:	68 7d 1d 08 00       	push   $0x81d7d
   85166:	8d 45 e0             	lea    -0x20(%ebp),%eax
   85169:	50                   	push   %eax
   8516a:	e8 39 fe ff ff       	call   84fa8 <cmp_id>
   8516f:	83 c4 08             	add    $0x8,%esp
   85172:	84 c0                	test   %al,%al
   85174:	74 0a                	je     85180 <cpuid_vendor+0x193>
   85176:	b8 7d 1d 08 00       	mov    $0x81d7d,%eax
   8517b:	e9 08 01 00 00       	jmp    85288 <cpuid_vendor+0x29b>
   85180:	68 8a 1d 08 00       	push   $0x81d8a
   85185:	8d 45 e0             	lea    -0x20(%ebp),%eax
   85188:	50                   	push   %eax
   85189:	e8 1a fe ff ff       	call   84fa8 <cmp_id>
   8518e:	83 c4 08             	add    $0x8,%esp
   85191:	84 c0                	test   %al,%al
   85193:	74 0a                	je     8519f <cpuid_vendor+0x1b2>
   85195:	b8 8a 1d 08 00       	mov    $0x81d8a,%eax
   8519a:	e9 e9 00 00 00       	jmp    85288 <cpuid_vendor+0x29b>
   8519f:	68 97 1d 08 00       	push   $0x81d97
   851a4:	8d 45 e0             	lea    -0x20(%ebp),%eax
   851a7:	50                   	push   %eax
   851a8:	e8 fb fd ff ff       	call   84fa8 <cmp_id>
   851ad:	83 c4 08             	add    $0x8,%esp
   851b0:	84 c0                	test   %al,%al
   851b2:	74 0a                	je     851be <cpuid_vendor+0x1d1>
   851b4:	b8 97 1d 08 00       	mov    $0x81d97,%eax
   851b9:	e9 ca 00 00 00       	jmp    85288 <cpuid_vendor+0x29b>
   851be:	68 a4 1d 08 00       	push   $0x81da4
   851c3:	8d 45 e0             	lea    -0x20(%ebp),%eax
   851c6:	50                   	push   %eax
   851c7:	e8 dc fd ff ff       	call   84fa8 <cmp_id>
   851cc:	83 c4 08             	add    $0x8,%esp
   851cf:	84 c0                	test   %al,%al
   851d1:	74 0a                	je     851dd <cpuid_vendor+0x1f0>
   851d3:	b8 a4 1d 08 00       	mov    $0x81da4,%eax
   851d8:	e9 ab 00 00 00       	jmp    85288 <cpuid_vendor+0x29b>
   851dd:	68 b1 1d 08 00       	push   $0x81db1
   851e2:	8d 45 e0             	lea    -0x20(%ebp),%eax
   851e5:	50                   	push   %eax
   851e6:	e8 bd fd ff ff       	call   84fa8 <cmp_id>
   851eb:	83 c4 08             	add    $0x8,%esp
   851ee:	84 c0                	test   %al,%al
   851f0:	74 0a                	je     851fc <cpuid_vendor+0x20f>
   851f2:	b8 b1 1d 08 00       	mov    $0x81db1,%eax
   851f7:	e9 8c 00 00 00       	jmp    85288 <cpuid_vendor+0x29b>
   851fc:	68 be 1d 08 00       	push   $0x81dbe
   85201:	8d 45 e0             	lea    -0x20(%ebp),%eax
   85204:	50                   	push   %eax
   85205:	e8 9e fd ff ff       	call   84fa8 <cmp_id>
   8520a:	83 c4 08             	add    $0x8,%esp
   8520d:	84 c0                	test   %al,%al
   8520f:	74 07                	je     85218 <cpuid_vendor+0x22b>
   85211:	b8 be 1d 08 00       	mov    $0x81dbe,%eax
   85216:	eb 70                	jmp    85288 <cpuid_vendor+0x29b>
   85218:	68 cb 1d 08 00       	push   $0x81dcb
   8521d:	8d 45 e0             	lea    -0x20(%ebp),%eax
   85220:	50                   	push   %eax
   85221:	e8 82 fd ff ff       	call   84fa8 <cmp_id>
   85226:	83 c4 08             	add    $0x8,%esp
   85229:	84 c0                	test   %al,%al
   8522b:	74 07                	je     85234 <cpuid_vendor+0x247>
   8522d:	b8 cb 1d 08 00       	mov    $0x81dcb,%eax
   85232:	eb 54                	jmp    85288 <cpuid_vendor+0x29b>
   85234:	68 d8 1d 08 00       	push   $0x81dd8
   85239:	8d 45 e0             	lea    -0x20(%ebp),%eax
   8523c:	50                   	push   %eax
   8523d:	e8 66 fd ff ff       	call   84fa8 <cmp_id>
   85242:	83 c4 08             	add    $0x8,%esp
   85245:	84 c0                	test   %al,%al
   85247:	74 07                	je     85250 <cpuid_vendor+0x263>
   85249:	b8 d8 1d 08 00       	mov    $0x81dd8,%eax
   8524e:	eb 38                	jmp    85288 <cpuid_vendor+0x29b>
   85250:	68 e5 1d 08 00       	push   $0x81de5
   85255:	8d 45 e0             	lea    -0x20(%ebp),%eax
   85258:	50                   	push   %eax
   85259:	e8 4a fd ff ff       	call   84fa8 <cmp_id>
   8525e:	83 c4 08             	add    $0x8,%esp
   85261:	84 c0                	test   %al,%al
   85263:	74 07                	je     8526c <cpuid_vendor+0x27f>
   85265:	b8 e5 1d 08 00       	mov    $0x81de5,%eax
   8526a:	eb 1c                	jmp    85288 <cpuid_vendor+0x29b>
   8526c:	68 f2 1d 08 00       	push   $0x81df2
   85271:	8d 45 e0             	lea    -0x20(%ebp),%eax
   85274:	50                   	push   %eax
   85275:	e8 2e fd ff ff       	call   84fa8 <cmp_id>
   8527a:	83 c4 08             	add    $0x8,%esp
   8527d:	84 c0                	test   %al,%al
   8527f:	74 07                	je     85288 <cpuid_vendor+0x29b>
   85281:	b8 f2 1d 08 00       	mov    $0x81df2,%eax
   85286:	eb 00                	jmp    85288 <cpuid_vendor+0x29b>
   85288:	8b 5d fc             	mov    -0x4(%ebp),%ebx
   8528b:	c9                   	leave  
   8528c:	c3                   	ret    

0008528d <cmpstr_len>:
   8528d:	f3 0f 1e fb          	endbr32 
   85291:	55                   	push   %ebp
   85292:	89 e5                	mov    %esp,%ebp
   85294:	83 ec 10             	sub    $0x10,%esp
   85297:	c7 45 fc 00 00 00 00 	movl   $0x0,-0x4(%ebp)
   8529e:	eb 25                	jmp    852c5 <cmpstr_len+0x38>
   852a0:	8b 55 fc             	mov    -0x4(%ebp),%edx
   852a3:	8b 45 08             	mov    0x8(%ebp),%eax
   852a6:	01 d0                	add    %edx,%eax
   852a8:	0f b6 10             	movzbl (%eax),%edx
   852ab:	8b 4d fc             	mov    -0x4(%ebp),%ecx
   852ae:	8b 45 0c             	mov    0xc(%ebp),%eax
   852b1:	01 c8                	add    %ecx,%eax
   852b3:	0f b6 00             	movzbl (%eax),%eax
   852b6:	38 c2                	cmp    %al,%dl
   852b8:	74 07                	je     852c1 <cmpstr_len+0x34>
   852ba:	b8 00 00 00 00       	mov    $0x0,%eax
   852bf:	eb 11                	jmp    852d2 <cmpstr_len+0x45>
   852c1:	83 45 fc 01          	addl   $0x1,-0x4(%ebp)
   852c5:	8b 45 fc             	mov    -0x4(%ebp),%eax
   852c8:	3b 45 10             	cmp    0x10(%ebp),%eax
   852cb:	7c d3                	jl     852a0 <cmpstr_len+0x13>
   852cd:	b8 01 00 00 00       	mov    $0x1,%eax
   852d2:	c9                   	leave  
   852d3:	c3                   	ret    

000852d4 <apofs_lastError>:
   852d4:	f3 0f 1e fb          	endbr32 
   852d8:	55                   	push   %ebp
   852d9:	89 e5                	mov    %esp,%ebp
   852db:	0f b7 05 28 bd 0a 00 	movzwl 0xabd28,%eax
   852e2:	5d                   	pop    %ebp
   852e3:	c3                   	ret    

000852e4 <apofs_openDevice>:
   852e4:	f3 0f 1e fb          	endbr32 
   852e8:	55                   	push   %ebp
   852e9:	89 e5                	mov    %esp,%ebp
   852eb:	83 ec 18             	sub    $0x18,%esp
   852ee:	83 7d 08 00          	cmpl   $0x0,0x8(%ebp)
   852f2:	75 0a                	jne    852fe <apofs_openDevice+0x1a>
   852f4:	b8 00 00 00 00       	mov    $0x0,%eax
   852f9:	e9 3a 02 00 00       	jmp    85538 <apofs_openDevice+0x254>
   852fe:	8b 45 08             	mov    0x8(%ebp),%eax
   85301:	8b 40 08             	mov    0x8(%eax),%eax
   85304:	85 c0                	test   %eax,%eax
   85306:	75 0a                	jne    85312 <apofs_openDevice+0x2e>
   85308:	b8 00 00 00 00       	mov    $0x0,%eax
   8530d:	e9 26 02 00 00       	jmp    85538 <apofs_openDevice+0x254>
   85312:	83 ec 0c             	sub    $0xc,%esp
   85315:	68 00 02 00 00       	push   $0x200
   8531a:	e8 16 e9 ff ff       	call   83c35 <kmalloc>
   8531f:	83 c4 10             	add    $0x10,%esp
   85322:	89 45 f4             	mov    %eax,-0xc(%ebp)
   85325:	ff 75 f4             	pushl  -0xc(%ebp)
   85328:	6a 01                	push   $0x1
   8532a:	6a 00                	push   $0x0
   8532c:	ff 75 08             	pushl  0x8(%ebp)
   8532f:	e8 29 3f 00 00       	call   8925d <storage_read>
   85334:	83 c4 10             	add    $0x10,%esp
   85337:	84 c0                	test   %al,%al
   85339:	74 21                	je     8535c <apofs_openDevice+0x78>
   8533b:	83 ec 0c             	sub    $0xc,%esp
   8533e:	ff 75 f4             	pushl  -0xc(%ebp)
   85341:	e8 99 e9 ff ff       	call   83cdf <kfree>
   85346:	83 c4 10             	add    $0x10,%esp
   85349:	66 c7 05 28 bd 0a 00 	movw   $0x1,0xabd28
   85350:	01 00 
   85352:	b8 00 00 00 00       	mov    $0x0,%eax
   85357:	e9 dc 01 00 00       	jmp    85538 <apofs_openDevice+0x254>
   8535c:	8b 45 f4             	mov    -0xc(%ebp),%eax
   8535f:	83 c0 02             	add    $0x2,%eax
   85362:	83 ec 04             	sub    $0x4,%esp
   85365:	6a 08                	push   $0x8
   85367:	68 00 1e 08 00       	push   $0x81e00
   8536c:	50                   	push   %eax
   8536d:	e8 1b ff ff ff       	call   8528d <cmpstr_len>
   85372:	83 c4 10             	add    $0x10,%esp
   85375:	84 c0                	test   %al,%al
   85377:	75 21                	jne    8539a <apofs_openDevice+0xb6>
   85379:	83 ec 0c             	sub    $0xc,%esp
   8537c:	ff 75 f4             	pushl  -0xc(%ebp)
   8537f:	e8 5b e9 ff ff       	call   83cdf <kfree>
   85384:	83 c4 10             	add    $0x10,%esp
   85387:	66 c7 05 28 bd 0a 00 	movw   $0x2,0xabd28
   8538e:	02 00 
   85390:	b8 00 00 00 00       	mov    $0x0,%eax
   85395:	e9 9e 01 00 00       	jmp    85538 <apofs_openDevice+0x254>
   8539a:	8b 45 f4             	mov    -0xc(%ebp),%eax
   8539d:	8b 50 16             	mov    0x16(%eax),%edx
   853a0:	8b 45 f4             	mov    -0xc(%ebp),%eax
   853a3:	8b 40 12             	mov    0x12(%eax),%eax
   853a6:	39 c2                	cmp    %eax,%edx
   853a8:	73 21                	jae    853cb <apofs_openDevice+0xe7>
   853aa:	83 ec 0c             	sub    $0xc,%esp
   853ad:	ff 75 f4             	pushl  -0xc(%ebp)
   853b0:	e8 2a e9 ff ff       	call   83cdf <kfree>
   853b5:	83 c4 10             	add    $0x10,%esp
   853b8:	66 c7 05 28 bd 0a 00 	movw   $0x3,0xabd28
   853bf:	03 00 
   853c1:	b8 00 00 00 00       	mov    $0x0,%eax
   853c6:	e9 6d 01 00 00       	jmp    85538 <apofs_openDevice+0x254>
   853cb:	8b 45 f4             	mov    -0xc(%ebp),%eax
   853ce:	8b 50 12             	mov    0x12(%eax),%edx
   853d1:	8b 45 f4             	mov    -0xc(%ebp),%eax
   853d4:	8b 40 0e             	mov    0xe(%eax),%eax
   853d7:	39 c2                	cmp    %eax,%edx
   853d9:	73 21                	jae    853fc <apofs_openDevice+0x118>
   853db:	83 ec 0c             	sub    $0xc,%esp
   853de:	ff 75 f4             	pushl  -0xc(%ebp)
   853e1:	e8 f9 e8 ff ff       	call   83cdf <kfree>
   853e6:	83 c4 10             	add    $0x10,%esp
   853e9:	66 c7 05 28 bd 0a 00 	movw   $0x4,0xabd28
   853f0:	04 00 
   853f2:	b8 00 00 00 00       	mov    $0x0,%eax
   853f7:	e9 3c 01 00 00       	jmp    85538 <apofs_openDevice+0x254>
   853fc:	8b 45 f4             	mov    -0xc(%ebp),%eax
   853ff:	8b 50 16             	mov    0x16(%eax),%edx
   85402:	8b 45 08             	mov    0x8(%ebp),%eax
   85405:	8b 40 08             	mov    0x8(%eax),%eax
   85408:	39 c2                	cmp    %eax,%edx
   8540a:	72 21                	jb     8542d <apofs_openDevice+0x149>
   8540c:	83 ec 0c             	sub    $0xc,%esp
   8540f:	ff 75 f4             	pushl  -0xc(%ebp)
   85412:	e8 c8 e8 ff ff       	call   83cdf <kfree>
   85417:	83 c4 10             	add    $0x10,%esp
   8541a:	66 c7 05 28 bd 0a 00 	movw   $0x5,0xabd28
   85421:	05 00 
   85423:	b8 00 00 00 00       	mov    $0x0,%eax
   85428:	e9 0b 01 00 00       	jmp    85538 <apofs_openDevice+0x254>
   8542d:	8b 45 f4             	mov    -0xc(%ebp),%eax
   85430:	0f b7 40 1a          	movzwl 0x1a(%eax),%eax
   85434:	66 83 f8 08          	cmp    $0x8,%ax
   85438:	76 21                	jbe    8545b <apofs_openDevice+0x177>
   8543a:	83 ec 0c             	sub    $0xc,%esp
   8543d:	ff 75 f4             	pushl  -0xc(%ebp)
   85440:	e8 9a e8 ff ff       	call   83cdf <kfree>
   85445:	83 c4 10             	add    $0x10,%esp
   85448:	66 c7 05 28 bd 0a 00 	movw   $0x6,0xabd28
   8544f:	06 00 
   85451:	b8 00 00 00 00       	mov    $0x0,%eax
   85456:	e9 dd 00 00 00       	jmp    85538 <apofs_openDevice+0x254>
   8545b:	8b 45 f4             	mov    -0xc(%ebp),%eax
   8545e:	8b 50 12             	mov    0x12(%eax),%edx
   85461:	8b 45 f4             	mov    -0xc(%ebp),%eax
   85464:	8b 40 0e             	mov    0xe(%eax),%eax
   85467:	29 c2                	sub    %eax,%edx
   85469:	89 d0                	mov    %edx,%eax
   8546b:	89 45 f0             	mov    %eax,-0x10(%ebp)
   8546e:	83 ec 0c             	sub    $0xc,%esp
   85471:	ff 75 f0             	pushl  -0x10(%ebp)
   85474:	e8 bc e7 ff ff       	call   83c35 <kmalloc>
   85479:	83 c4 10             	add    $0x10,%esp
   8547c:	89 45 ec             	mov    %eax,-0x14(%ebp)
   8547f:	8b 45 f0             	mov    -0x10(%ebp),%eax
   85482:	0f b6 d0             	movzbl %al,%edx
   85485:	8b 45 f4             	mov    -0xc(%ebp),%eax
   85488:	8b 40 0e             	mov    0xe(%eax),%eax
   8548b:	ff 75 ec             	pushl  -0x14(%ebp)
   8548e:	52                   	push   %edx
   8548f:	50                   	push   %eax
   85490:	ff 75 08             	pushl  0x8(%ebp)
   85493:	e8 c5 3d 00 00       	call   8925d <storage_read>
   85498:	83 c4 10             	add    $0x10,%esp
   8549b:	84 c0                	test   %al,%al
   8549d:	74 2c                	je     854cb <apofs_openDevice+0x1e7>
   8549f:	83 ec 0c             	sub    $0xc,%esp
   854a2:	ff 75 f4             	pushl  -0xc(%ebp)
   854a5:	e8 35 e8 ff ff       	call   83cdf <kfree>
   854aa:	83 c4 10             	add    $0x10,%esp
   854ad:	83 ec 0c             	sub    $0xc,%esp
   854b0:	ff 75 ec             	pushl  -0x14(%ebp)
   854b3:	e8 27 e8 ff ff       	call   83cdf <kfree>
   854b8:	83 c4 10             	add    $0x10,%esp
   854bb:	66 c7 05 28 bd 0a 00 	movw   $0x1,0xabd28
   854c2:	01 00 
   854c4:	b8 00 00 00 00       	mov    $0x0,%eax
   854c9:	eb 6d                	jmp    85538 <apofs_openDevice+0x254>
   854cb:	83 ec 0c             	sub    $0xc,%esp
   854ce:	6a 1c                	push   $0x1c
   854d0:	e8 60 e7 ff ff       	call   83c35 <kmalloc>
   854d5:	83 c4 10             	add    $0x10,%esp
   854d8:	89 45 e8             	mov    %eax,-0x18(%ebp)
   854db:	8b 45 e8             	mov    -0x18(%ebp),%eax
   854de:	8b 55 08             	mov    0x8(%ebp),%edx
   854e1:	89 10                	mov    %edx,(%eax)
   854e3:	8b 45 f4             	mov    -0xc(%ebp),%eax
   854e6:	8b 50 0e             	mov    0xe(%eax),%edx
   854e9:	8b 45 e8             	mov    -0x18(%ebp),%eax
   854ec:	89 50 04             	mov    %edx,0x4(%eax)
   854ef:	8b 45 f4             	mov    -0xc(%ebp),%eax
   854f2:	8b 50 12             	mov    0x12(%eax),%edx
   854f5:	8b 45 e8             	mov    -0x18(%ebp),%eax
   854f8:	89 50 08             	mov    %edx,0x8(%eax)
   854fb:	8b 45 f4             	mov    -0xc(%ebp),%eax
   854fe:	8b 50 16             	mov    0x16(%eax),%edx
   85501:	8b 45 e8             	mov    -0x18(%ebp),%eax
   85504:	89 50 0c             	mov    %edx,0xc(%eax)
   85507:	8b 45 f4             	mov    -0xc(%ebp),%eax
   8550a:	0f b7 50 1a          	movzwl 0x1a(%eax),%edx
   8550e:	8b 45 e8             	mov    -0x18(%ebp),%eax
   85511:	66 89 50 10          	mov    %dx,0x10(%eax)
   85515:	8b 45 e8             	mov    -0x18(%ebp),%eax
   85518:	8b 55 ec             	mov    -0x14(%ebp),%edx
   8551b:	89 50 14             	mov    %edx,0x14(%eax)
   8551e:	8b 45 e8             	mov    -0x18(%ebp),%eax
   85521:	8b 55 f0             	mov    -0x10(%ebp),%edx
   85524:	89 50 18             	mov    %edx,0x18(%eax)
   85527:	83 ec 0c             	sub    $0xc,%esp
   8552a:	ff 75 f4             	pushl  -0xc(%ebp)
   8552d:	e8 ad e7 ff ff       	call   83cdf <kfree>
   85532:	83 c4 10             	add    $0x10,%esp
   85535:	8b 45 e8             	mov    -0x18(%ebp),%eax
   85538:	c9                   	leave  
   85539:	c3                   	ret    

0008553a <apofs_isPresent>:
   8553a:	f3 0f 1e fb          	endbr32 
   8553e:	55                   	push   %ebp
   8553f:	89 e5                	mov    %esp,%ebp
   85541:	83 ec 10             	sub    $0x10,%esp
   85544:	83 7d 0c 00          	cmpl   $0x0,0xc(%ebp)
   85548:	75 07                	jne    85551 <apofs_isPresent+0x17>
   8554a:	b8 00 00 00 00       	mov    $0x0,%eax
   8554f:	eb 7e                	jmp    855cf <apofs_isPresent+0x95>
   85551:	8b 45 0c             	mov    0xc(%ebp),%eax
   85554:	8d 50 ff             	lea    -0x1(%eax),%edx
   85557:	8b 45 08             	mov    0x8(%ebp),%eax
   8555a:	0f b7 40 10          	movzwl 0x10(%eax),%eax
   8555e:	0f b7 c0             	movzwl %ax,%eax
   85561:	0f af d0             	imul   %eax,%edx
   85564:	8b 45 08             	mov    0x8(%ebp),%eax
   85567:	8b 48 0c             	mov    0xc(%eax),%ecx
   8556a:	8b 45 08             	mov    0x8(%ebp),%eax
   8556d:	8b 40 08             	mov    0x8(%eax),%eax
   85570:	29 c1                	sub    %eax,%ecx
   85572:	89 c8                	mov    %ecx,%eax
   85574:	39 c2                	cmp    %eax,%edx
   85576:	72 07                	jb     8557f <apofs_isPresent+0x45>
   85578:	b8 00 00 00 00       	mov    $0x0,%eax
   8557d:	eb 50                	jmp    855cf <apofs_isPresent+0x95>
   8557f:	8b 45 0c             	mov    0xc(%ebp),%eax
   85582:	8d 50 ff             	lea    -0x1(%eax),%edx
   85585:	8b 45 08             	mov    0x8(%ebp),%eax
   85588:	8b 40 18             	mov    0x18(%eax),%eax
   8558b:	c1 e0 0c             	shl    $0xc,%eax
   8558e:	39 c2                	cmp    %eax,%edx
   85590:	72 07                	jb     85599 <apofs_isPresent+0x5f>
   85592:	b8 00 00 00 00       	mov    $0x0,%eax
   85597:	eb 36                	jmp    855cf <apofs_isPresent+0x95>
   85599:	8b 45 0c             	mov    0xc(%ebp),%eax
   8559c:	83 e8 01             	sub    $0x1,%eax
   8559f:	c1 e8 03             	shr    $0x3,%eax
   855a2:	89 45 fc             	mov    %eax,-0x4(%ebp)
   855a5:	8b 45 0c             	mov    0xc(%ebp),%eax
   855a8:	83 e8 01             	sub    $0x1,%eax
   855ab:	83 e0 07             	and    $0x7,%eax
   855ae:	88 45 fb             	mov    %al,-0x5(%ebp)
   855b1:	8b 45 08             	mov    0x8(%ebp),%eax
   855b4:	8b 50 14             	mov    0x14(%eax),%edx
   855b7:	8b 45 fc             	mov    -0x4(%ebp),%eax
   855ba:	01 d0                	add    %edx,%eax
   855bc:	0f b6 00             	movzbl (%eax),%eax
   855bf:	0f b6 d0             	movzbl %al,%edx
   855c2:	0f b6 45 fb          	movzbl -0x5(%ebp),%eax
   855c6:	89 c1                	mov    %eax,%ecx
   855c8:	d3 fa                	sar    %cl,%edx
   855ca:	89 d0                	mov    %edx,%eax
   855cc:	83 e0 01             	and    $0x1,%eax
   855cf:	c9                   	leave  
   855d0:	c3                   	ret    

000855d1 <apofs_setPresent>:
   855d1:	f3 0f 1e fb          	endbr32 
   855d5:	55                   	push   %ebp
   855d6:	89 e5                	mov    %esp,%ebp
   855d8:	53                   	push   %ebx
   855d9:	83 ec 14             	sub    $0x14,%esp
   855dc:	8b 45 10             	mov    0x10(%ebp),%eax
   855df:	88 45 e8             	mov    %al,-0x18(%ebp)
   855e2:	83 7d 0c 00          	cmpl   $0x0,0xc(%ebp)
   855e6:	75 0a                	jne    855f2 <apofs_setPresent+0x21>
   855e8:	b8 01 00 00 00       	mov    $0x1,%eax
   855ed:	e9 d9 00 00 00       	jmp    856cb <apofs_setPresent+0xfa>
   855f2:	8b 45 0c             	mov    0xc(%ebp),%eax
   855f5:	8d 50 ff             	lea    -0x1(%eax),%edx
   855f8:	8b 45 08             	mov    0x8(%ebp),%eax
   855fb:	0f b7 40 10          	movzwl 0x10(%eax),%eax
   855ff:	0f b7 c0             	movzwl %ax,%eax
   85602:	0f af d0             	imul   %eax,%edx
   85605:	8b 45 08             	mov    0x8(%ebp),%eax
   85608:	8b 48 0c             	mov    0xc(%eax),%ecx
   8560b:	8b 45 08             	mov    0x8(%ebp),%eax
   8560e:	8b 40 08             	mov    0x8(%eax),%eax
   85611:	29 c1                	sub    %eax,%ecx
   85613:	89 c8                	mov    %ecx,%eax
   85615:	39 c2                	cmp    %eax,%edx
   85617:	72 0a                	jb     85623 <apofs_setPresent+0x52>
   85619:	b8 01 00 00 00       	mov    $0x1,%eax
   8561e:	e9 a8 00 00 00       	jmp    856cb <apofs_setPresent+0xfa>
   85623:	8b 45 0c             	mov    0xc(%ebp),%eax
   85626:	8d 50 ff             	lea    -0x1(%eax),%edx
   85629:	8b 45 08             	mov    0x8(%ebp),%eax
   8562c:	8b 40 18             	mov    0x18(%eax),%eax
   8562f:	c1 e0 0c             	shl    $0xc,%eax
   85632:	39 c2                	cmp    %eax,%edx
   85634:	72 0a                	jb     85640 <apofs_setPresent+0x6f>
   85636:	b8 01 00 00 00       	mov    $0x1,%eax
   8563b:	e9 8b 00 00 00       	jmp    856cb <apofs_setPresent+0xfa>
   85640:	8b 45 0c             	mov    0xc(%ebp),%eax
   85643:	83 e8 01             	sub    $0x1,%eax
   85646:	c1 e8 03             	shr    $0x3,%eax
   85649:	89 45 f8             	mov    %eax,-0x8(%ebp)
   8564c:	8b 45 0c             	mov    0xc(%ebp),%eax
   8564f:	83 e8 01             	sub    $0x1,%eax
   85652:	83 e0 07             	and    $0x7,%eax
   85655:	88 45 f7             	mov    %al,-0x9(%ebp)
   85658:	80 7d e8 00          	cmpb   $0x0,-0x18(%ebp)
   8565c:	74 34                	je     85692 <apofs_setPresent+0xc1>
   8565e:	8b 45 08             	mov    0x8(%ebp),%eax
   85661:	8b 50 14             	mov    0x14(%eax),%edx
   85664:	8b 45 f8             	mov    -0x8(%ebp),%eax
   85667:	01 d0                	add    %edx,%eax
   85669:	0f b6 00             	movzbl (%eax),%eax
   8566c:	89 c3                	mov    %eax,%ebx
   8566e:	0f b6 45 f7          	movzbl -0x9(%ebp),%eax
   85672:	ba 01 00 00 00       	mov    $0x1,%edx
   85677:	89 c1                	mov    %eax,%ecx
   85679:	d3 e2                	shl    %cl,%edx
   8567b:	89 d0                	mov    %edx,%eax
   8567d:	09 c3                	or     %eax,%ebx
   8567f:	89 d9                	mov    %ebx,%ecx
   85681:	8b 45 08             	mov    0x8(%ebp),%eax
   85684:	8b 50 14             	mov    0x14(%eax),%edx
   85687:	8b 45 f8             	mov    -0x8(%ebp),%eax
   8568a:	01 d0                	add    %edx,%eax
   8568c:	89 ca                	mov    %ecx,%edx
   8568e:	88 10                	mov    %dl,(%eax)
   85690:	eb 34                	jmp    856c6 <apofs_setPresent+0xf5>
   85692:	8b 45 08             	mov    0x8(%ebp),%eax
   85695:	8b 50 14             	mov    0x14(%eax),%edx
   85698:	8b 45 f8             	mov    -0x8(%ebp),%eax
   8569b:	01 d0                	add    %edx,%eax
   8569d:	0f b6 00             	movzbl (%eax),%eax
   856a0:	89 c2                	mov    %eax,%edx
   856a2:	0f b6 45 f7          	movzbl -0x9(%ebp),%eax
   856a6:	bb 01 00 00 00       	mov    $0x1,%ebx
   856ab:	89 c1                	mov    %eax,%ecx
   856ad:	d3 e3                	shl    %cl,%ebx
   856af:	89 d8                	mov    %ebx,%eax
   856b1:	f7 d0                	not    %eax
   856b3:	89 d1                	mov    %edx,%ecx
   856b5:	21 c1                	and    %eax,%ecx
   856b7:	8b 45 08             	mov    0x8(%ebp),%eax
   856ba:	8b 50 14             	mov    0x14(%eax),%edx
   856bd:	8b 45 f8             	mov    -0x8(%ebp),%eax
   856c0:	01 d0                	add    %edx,%eax
   856c2:	89 ca                	mov    %ecx,%edx
   856c4:	88 10                	mov    %dl,(%eax)
   856c6:	b8 00 00 00 00       	mov    $0x0,%eax
   856cb:	83 c4 14             	add    $0x14,%esp
   856ce:	5b                   	pop    %ebx
   856cf:	5d                   	pop    %ebp
   856d0:	c3                   	ret    

000856d1 <apofs_getFileName>:
   856d1:	f3 0f 1e fb          	endbr32 
   856d5:	55                   	push   %ebp
   856d6:	89 e5                	mov    %esp,%ebp
   856d8:	83 ec 18             	sub    $0x18,%esp
   856db:	ff 75 0c             	pushl  0xc(%ebp)
   856de:	ff 75 08             	pushl  0x8(%ebp)
   856e1:	e8 54 fe ff ff       	call   8553a <apofs_isPresent>
   856e6:	83 c4 08             	add    $0x8,%esp
   856e9:	84 c0                	test   %al,%al
   856eb:	75 13                	jne    85700 <apofs_getFileName+0x2f>
   856ed:	66 c7 05 28 bd 0a 00 	movw   $0x8,0xabd28
   856f4:	08 00 
   856f6:	b8 01 00 00 00       	mov    $0x1,%eax
   856fb:	e9 09 01 00 00       	jmp    85809 <apofs_getFileName+0x138>
   85700:	8b 45 0c             	mov    0xc(%ebp),%eax
   85703:	8d 50 ff             	lea    -0x1(%eax),%edx
   85706:	8b 45 08             	mov    0x8(%ebp),%eax
   85709:	0f b7 40 10          	movzwl 0x10(%eax),%eax
   8570d:	0f b7 c0             	movzwl %ax,%eax
   85710:	0f af d0             	imul   %eax,%edx
   85713:	8b 45 08             	mov    0x8(%ebp),%eax
   85716:	8b 40 08             	mov    0x8(%eax),%eax
   85719:	01 d0                	add    %edx,%eax
   8571b:	89 45 f0             	mov    %eax,-0x10(%ebp)
   8571e:	83 ec 0c             	sub    $0xc,%esp
   85721:	68 00 02 00 00       	push   $0x200
   85726:	e8 0a e5 ff ff       	call   83c35 <kmalloc>
   8572b:	83 c4 10             	add    $0x10,%esp
   8572e:	89 45 ec             	mov    %eax,-0x14(%ebp)
   85731:	8b 55 f0             	mov    -0x10(%ebp),%edx
   85734:	8b 45 08             	mov    0x8(%ebp),%eax
   85737:	8b 00                	mov    (%eax),%eax
   85739:	ff 75 ec             	pushl  -0x14(%ebp)
   8573c:	6a 01                	push   $0x1
   8573e:	52                   	push   %edx
   8573f:	50                   	push   %eax
   85740:	e8 18 3b 00 00       	call   8925d <storage_read>
   85745:	83 c4 10             	add    $0x10,%esp
   85748:	84 c0                	test   %al,%al
   8574a:	74 21                	je     8576d <apofs_getFileName+0x9c>
   8574c:	83 ec 0c             	sub    $0xc,%esp
   8574f:	ff 75 ec             	pushl  -0x14(%ebp)
   85752:	e8 88 e5 ff ff       	call   83cdf <kfree>
   85757:	83 c4 10             	add    $0x10,%esp
   8575a:	66 c7 05 28 bd 0a 00 	movw   $0x1,0xabd28
   85761:	01 00 
   85763:	b8 01 00 00 00       	mov    $0x1,%eax
   85768:	e9 9c 00 00 00       	jmp    85809 <apofs_getFileName+0x138>
   8576d:	8b 45 ec             	mov    -0x14(%ebp),%eax
   85770:	0f b6 00             	movzbl (%eax),%eax
   85773:	3c 01                	cmp    $0x1,%al
   85775:	74 28                	je     8579f <apofs_getFileName+0xce>
   85777:	8b 45 ec             	mov    -0x14(%ebp),%eax
   8577a:	0f b6 00             	movzbl (%eax),%eax
   8577d:	3c 02                	cmp    $0x2,%al
   8577f:	74 1e                	je     8579f <apofs_getFileName+0xce>
   85781:	83 ec 0c             	sub    $0xc,%esp
   85784:	ff 75 ec             	pushl  -0x14(%ebp)
   85787:	e8 53 e5 ff ff       	call   83cdf <kfree>
   8578c:	83 c4 10             	add    $0x10,%esp
   8578f:	66 c7 05 28 bd 0a 00 	movw   $0x7,0xabd28
   85796:	07 00 
   85798:	b8 01 00 00 00       	mov    $0x1,%eax
   8579d:	eb 6a                	jmp    85809 <apofs_getFileName+0x138>
   8579f:	c7 45 f4 00 00 00 00 	movl   $0x0,-0xc(%ebp)
   857a6:	c7 45 f4 00 00 00 00 	movl   $0x0,-0xc(%ebp)
   857ad:	eb 1c                	jmp    857cb <apofs_getFileName+0xfa>
   857af:	8b 55 f4             	mov    -0xc(%ebp),%edx
   857b2:	8b 45 10             	mov    0x10(%ebp),%eax
   857b5:	01 c2                	add    %eax,%edx
   857b7:	8b 4d ec             	mov    -0x14(%ebp),%ecx
   857ba:	8b 45 f4             	mov    -0xc(%ebp),%eax
   857bd:	01 c8                	add    %ecx,%eax
   857bf:	83 c0 05             	add    $0x5,%eax
   857c2:	0f b6 00             	movzbl (%eax),%eax
   857c5:	88 02                	mov    %al,(%edx)
   857c7:	83 45 f4 01          	addl   $0x1,-0xc(%ebp)
   857cb:	8b 45 f4             	mov    -0xc(%ebp),%eax
   857ce:	3b 45 14             	cmp    0x14(%ebp),%eax
   857d1:	7d 18                	jge    857eb <apofs_getFileName+0x11a>
   857d3:	83 7d f4 3a          	cmpl   $0x3a,-0xc(%ebp)
   857d7:	7f 12                	jg     857eb <apofs_getFileName+0x11a>
   857d9:	8b 55 ec             	mov    -0x14(%ebp),%edx
   857dc:	8b 45 f4             	mov    -0xc(%ebp),%eax
   857df:	01 d0                	add    %edx,%eax
   857e1:	83 c0 05             	add    $0x5,%eax
   857e4:	0f b6 00             	movzbl (%eax),%eax
   857e7:	84 c0                	test   %al,%al
   857e9:	75 c4                	jne    857af <apofs_getFileName+0xde>
   857eb:	8b 55 f4             	mov    -0xc(%ebp),%edx
   857ee:	8b 45 10             	mov    0x10(%ebp),%eax
   857f1:	01 d0                	add    %edx,%eax
   857f3:	c6 00 00             	movb   $0x0,(%eax)
   857f6:	83 ec 0c             	sub    $0xc,%esp
   857f9:	ff 75 ec             	pushl  -0x14(%ebp)
   857fc:	e8 de e4 ff ff       	call   83cdf <kfree>
   85801:	83 c4 10             	add    $0x10,%esp
   85804:	b8 00 00 00 00       	mov    $0x0,%eax
   85809:	c9                   	leave  
   8580a:	c3                   	ret    

0008580b <apofs_getFileInfo>:
   8580b:	f3 0f 1e fb          	endbr32 
   8580f:	55                   	push   %ebp
   85810:	89 e5                	mov    %esp,%ebp
   85812:	83 ec 18             	sub    $0x18,%esp
   85815:	ff 75 0c             	pushl  0xc(%ebp)
   85818:	ff 75 08             	pushl  0x8(%ebp)
   8581b:	e8 1a fd ff ff       	call   8553a <apofs_isPresent>
   85820:	83 c4 08             	add    $0x8,%esp
   85823:	84 c0                	test   %al,%al
   85825:	75 13                	jne    8583a <apofs_getFileInfo+0x2f>
   85827:	66 c7 05 28 bd 0a 00 	movw   $0x8,0xabd28
   8582e:	08 00 
   85830:	b8 01 00 00 00       	mov    $0x1,%eax
   85835:	e9 f6 00 00 00       	jmp    85930 <apofs_getFileInfo+0x125>
   8583a:	8b 45 0c             	mov    0xc(%ebp),%eax
   8583d:	8d 50 ff             	lea    -0x1(%eax),%edx
   85840:	8b 45 08             	mov    0x8(%ebp),%eax
   85843:	0f b7 40 10          	movzwl 0x10(%eax),%eax
   85847:	0f b7 c0             	movzwl %ax,%eax
   8584a:	0f af d0             	imul   %eax,%edx
   8584d:	8b 45 08             	mov    0x8(%ebp),%eax
   85850:	8b 40 08             	mov    0x8(%eax),%eax
   85853:	01 d0                	add    %edx,%eax
   85855:	89 45 f4             	mov    %eax,-0xc(%ebp)
   85858:	83 ec 0c             	sub    $0xc,%esp
   8585b:	68 00 02 00 00       	push   $0x200
   85860:	e8 d0 e3 ff ff       	call   83c35 <kmalloc>
   85865:	83 c4 10             	add    $0x10,%esp
   85868:	89 45 f0             	mov    %eax,-0x10(%ebp)
   8586b:	8b 55 f4             	mov    -0xc(%ebp),%edx
   8586e:	8b 45 08             	mov    0x8(%ebp),%eax
   85871:	8b 00                	mov    (%eax),%eax
   85873:	ff 75 f0             	pushl  -0x10(%ebp)
   85876:	6a 01                	push   $0x1
   85878:	52                   	push   %edx
   85879:	50                   	push   %eax
   8587a:	e8 de 39 00 00       	call   8925d <storage_read>
   8587f:	83 c4 10             	add    $0x10,%esp
   85882:	84 c0                	test   %al,%al
   85884:	74 21                	je     858a7 <apofs_getFileInfo+0x9c>
   85886:	83 ec 0c             	sub    $0xc,%esp
   85889:	ff 75 f0             	pushl  -0x10(%ebp)
   8588c:	e8 4e e4 ff ff       	call   83cdf <kfree>
   85891:	83 c4 10             	add    $0x10,%esp
   85894:	66 c7 05 28 bd 0a 00 	movw   $0x1,0xabd28
   8589b:	01 00 
   8589d:	b8 01 00 00 00       	mov    $0x1,%eax
   858a2:	e9 89 00 00 00       	jmp    85930 <apofs_getFileInfo+0x125>
   858a7:	8b 45 f0             	mov    -0x10(%ebp),%eax
   858aa:	0f b6 00             	movzbl (%eax),%eax
   858ad:	3c 01                	cmp    $0x1,%al
   858af:	74 28                	je     858d9 <apofs_getFileInfo+0xce>
   858b1:	8b 45 f0             	mov    -0x10(%ebp),%eax
   858b4:	0f b6 00             	movzbl (%eax),%eax
   858b7:	3c 02                	cmp    $0x2,%al
   858b9:	74 1e                	je     858d9 <apofs_getFileInfo+0xce>
   858bb:	83 ec 0c             	sub    $0xc,%esp
   858be:	ff 75 f0             	pushl  -0x10(%ebp)
   858c1:	e8 19 e4 ff ff       	call   83cdf <kfree>
   858c6:	83 c4 10             	add    $0x10,%esp
   858c9:	66 c7 05 28 bd 0a 00 	movw   $0x7,0xabd28
   858d0:	07 00 
   858d2:	b8 01 00 00 00       	mov    $0x1,%eax
   858d7:	eb 57                	jmp    85930 <apofs_getFileInfo+0x125>
   858d9:	8b 45 f0             	mov    -0x10(%ebp),%eax
   858dc:	0f b6 00             	movzbl (%eax),%eax
   858df:	3c 01                	cmp    $0x1,%al
   858e1:	0f 94 c0             	sete   %al
   858e4:	89 c2                	mov    %eax,%edx
   858e6:	8b 45 10             	mov    0x10(%ebp),%eax
   858e9:	88 10                	mov    %dl,(%eax)
   858eb:	8b 45 f0             	mov    -0x10(%ebp),%eax
   858ee:	8b 50 01             	mov    0x1(%eax),%edx
   858f1:	8b 45 10             	mov    0x10(%ebp),%eax
   858f4:	89 50 04             	mov    %edx,0x4(%eax)
   858f7:	8b 45 f0             	mov    -0x10(%ebp),%eax
   858fa:	8b 50 40             	mov    0x40(%eax),%edx
   858fd:	8b 45 10             	mov    0x10(%ebp),%eax
   85900:	89 50 08             	mov    %edx,0x8(%eax)
   85903:	8b 45 f0             	mov    -0x10(%ebp),%eax
   85906:	8b 50 44             	mov    0x44(%eax),%edx
   85909:	8b 45 10             	mov    0x10(%ebp),%eax
   8590c:	89 50 0c             	mov    %edx,0xc(%eax)
   8590f:	8b 45 f0             	mov    -0x10(%ebp),%eax
   85912:	0f b7 50 48          	movzwl 0x48(%eax),%edx
   85916:	8b 45 10             	mov    0x10(%ebp),%eax
   85919:	66 89 50 10          	mov    %dx,0x10(%eax)
   8591d:	83 ec 0c             	sub    $0xc,%esp
   85920:	ff 75 f0             	pushl  -0x10(%ebp)
   85923:	e8 b7 e3 ff ff       	call   83cdf <kfree>
   85928:	83 c4 10             	add    $0x10,%esp
   8592b:	b8 00 00 00 00       	mov    $0x0,%eax
   85930:	c9                   	leave  
   85931:	c3                   	ret    

00085932 <apofs_getChild>:
   85932:	f3 0f 1e fb          	endbr32 
   85936:	55                   	push   %ebp
   85937:	89 e5                	mov    %esp,%ebp
   85939:	81 ec 68 02 00 00    	sub    $0x268,%esp
   8593f:	ff 75 0c             	pushl  0xc(%ebp)
   85942:	ff 75 08             	pushl  0x8(%ebp)
   85945:	e8 f0 fb ff ff       	call   8553a <apofs_isPresent>
   8594a:	83 c4 08             	add    $0x8,%esp
   8594d:	84 c0                	test   %al,%al
   8594f:	75 13                	jne    85964 <apofs_getChild+0x32>
   85951:	66 c7 05 28 bd 0a 00 	movw   $0x8,0xabd28
   85958:	08 00 
   8595a:	b8 00 00 00 00       	mov    $0x0,%eax
   8595f:	e9 56 02 00 00       	jmp    85bba <apofs_getChild+0x288>
   85964:	83 ec 0c             	sub    $0xc,%esp
   85967:	68 09 1e 08 00       	push   $0x81e09
   8596c:	e8 59 0c 00 00       	call   865ca <vga_writeText>
   85971:	83 c4 10             	add    $0x10,%esp
   85974:	83 ec 0c             	sub    $0xc,%esp
   85977:	ff 75 10             	pushl  0x10(%ebp)
   8597a:	e8 4b 0c 00 00       	call   865ca <vga_writeText>
   8597f:	83 c4 10             	add    $0x10,%esp
   85982:	83 ec 0c             	sub    $0xc,%esp
   85985:	6a 0a                	push   $0xa
   85987:	e8 66 0b 00 00       	call   864f2 <vga_writeChar>
   8598c:	83 c4 10             	add    $0x10,%esp
   8598f:	83 ec 0c             	sub    $0xc,%esp
   85992:	68 19 1e 08 00       	push   $0x81e19
   85997:	e8 2e 0c 00 00       	call   865ca <vga_writeText>
   8599c:	83 c4 10             	add    $0x10,%esp
   8599f:	c7 45 f4 00 00 00 00 	movl   $0x0,-0xc(%ebp)
   859a6:	e9 de 01 00 00       	jmp    85b89 <apofs_getChild+0x257>
   859ab:	8b 45 0c             	mov    0xc(%ebp),%eax
   859ae:	8d 50 ff             	lea    -0x1(%eax),%edx
   859b1:	8b 45 08             	mov    0x8(%ebp),%eax
   859b4:	0f b7 40 10          	movzwl 0x10(%eax),%eax
   859b8:	0f b7 c0             	movzwl %ax,%eax
   859bb:	0f af d0             	imul   %eax,%edx
   859be:	8b 45 08             	mov    0x8(%ebp),%eax
   859c1:	8b 40 08             	mov    0x8(%eax),%eax
   859c4:	01 c2                	add    %eax,%edx
   859c6:	8b 45 f4             	mov    -0xc(%ebp),%eax
   859c9:	01 d0                	add    %edx,%eax
   859cb:	89 45 e8             	mov    %eax,-0x18(%ebp)
   859ce:	8b 55 e8             	mov    -0x18(%ebp),%edx
   859d1:	8b 45 08             	mov    0x8(%ebp),%eax
   859d4:	8b 00                	mov    (%eax),%eax
   859d6:	8d 8d e0 fd ff ff    	lea    -0x220(%ebp),%ecx
   859dc:	51                   	push   %ecx
   859dd:	6a 01                	push   $0x1
   859df:	52                   	push   %edx
   859e0:	50                   	push   %eax
   859e1:	e8 77 38 00 00       	call   8925d <storage_read>
   859e6:	83 c4 10             	add    $0x10,%esp
   859e9:	84 c0                	test   %al,%al
   859eb:	74 13                	je     85a00 <apofs_getChild+0xce>
   859ed:	66 c7 05 28 bd 0a 00 	movw   $0x1,0xabd28
   859f4:	01 00 
   859f6:	b8 00 00 00 00       	mov    $0x0,%eax
   859fb:	e9 ba 01 00 00       	jmp    85bba <apofs_getChild+0x288>
   85a00:	0f b6 85 e0 fd ff ff 	movzbl -0x220(%ebp),%eax
   85a07:	3c 01                	cmp    $0x1,%al
   85a09:	74 19                	je     85a24 <apofs_getChild+0xf2>
   85a0b:	83 7d f4 00          	cmpl   $0x0,-0xc(%ebp)
   85a0f:	75 13                	jne    85a24 <apofs_getChild+0xf2>
   85a11:	66 c7 05 28 bd 0a 00 	movw   $0x9,0xabd28
   85a18:	09 00 
   85a1a:	b8 00 00 00 00       	mov    $0x0,%eax
   85a1f:	e9 96 01 00 00       	jmp    85bba <apofs_getChild+0x288>
   85a24:	83 7d f4 00          	cmpl   $0x0,-0xc(%ebp)
   85a28:	75 07                	jne    85a31 <apofs_getChild+0xff>
   85a2a:	ba 58 00 00 00       	mov    $0x58,%edx
   85a2f:	eb 05                	jmp    85a36 <apofs_getChild+0x104>
   85a31:	ba 00 00 00 00       	mov    $0x0,%edx
   85a36:	8d 85 e0 fd ff ff    	lea    -0x220(%ebp),%eax
   85a3c:	01 d0                	add    %edx,%eax
   85a3e:	89 45 e4             	mov    %eax,-0x1c(%ebp)
   85a41:	83 7d f4 00          	cmpl   $0x0,-0xc(%ebp)
   85a45:	75 07                	jne    85a4e <apofs_getChild+0x11c>
   85a47:	b8 6a 00 00 00       	mov    $0x6a,%eax
   85a4c:	eb 05                	jmp    85a53 <apofs_getChild+0x121>
   85a4e:	b8 80 00 00 00       	mov    $0x80,%eax
   85a53:	89 45 e0             	mov    %eax,-0x20(%ebp)
   85a56:	c6 85 df fd ff ff 00 	movb   $0x0,-0x221(%ebp)
   85a5d:	c7 45 f0 00 00 00 00 	movl   $0x0,-0x10(%ebp)
   85a64:	eb 50                	jmp    85ab6 <apofs_getChild+0x184>
   85a66:	8b 45 f0             	mov    -0x10(%ebp),%eax
   85a69:	8d 14 85 00 00 00 00 	lea    0x0(,%eax,4),%edx
   85a70:	8b 45 e4             	mov    -0x1c(%ebp),%eax
   85a73:	01 d0                	add    %edx,%eax
   85a75:	8b 00                	mov    (%eax),%eax
   85a77:	6a 3b                	push   $0x3b
   85a79:	8d 95 a4 fd ff ff    	lea    -0x25c(%ebp),%edx
   85a7f:	52                   	push   %edx
   85a80:	50                   	push   %eax
   85a81:	ff 75 08             	pushl  0x8(%ebp)
   85a84:	e8 48 fc ff ff       	call   856d1 <apofs_getFileName>
   85a89:	83 c4 10             	add    $0x10,%esp
   85a8c:	84 c0                	test   %al,%al
   85a8e:	75 21                	jne    85ab1 <apofs_getChild+0x17f>
   85a90:	83 ec 0c             	sub    $0xc,%esp
   85a93:	8d 85 a4 fd ff ff    	lea    -0x25c(%ebp),%eax
   85a99:	50                   	push   %eax
   85a9a:	e8 2b 0b 00 00       	call   865ca <vga_writeText>
   85a9f:	83 c4 10             	add    $0x10,%esp
   85aa2:	83 ec 0c             	sub    $0xc,%esp
   85aa5:	6a 20                	push   $0x20
   85aa7:	e8 46 0a 00 00       	call   864f2 <vga_writeChar>
   85aac:	83 c4 10             	add    $0x10,%esp
   85aaf:	eb 01                	jmp    85ab2 <apofs_getChild+0x180>
   85ab1:	90                   	nop
   85ab2:	83 45 f0 01          	addl   $0x1,-0x10(%ebp)
   85ab6:	8b 45 f0             	mov    -0x10(%ebp),%eax
   85ab9:	3b 45 e0             	cmp    -0x20(%ebp),%eax
   85abc:	7c a8                	jl     85a66 <apofs_getChild+0x134>
   85abe:	83 ec 0c             	sub    $0xc,%esp
   85ac1:	6a 0a                	push   $0xa
   85ac3:	e8 2a 0a 00 00       	call   864f2 <vga_writeChar>
   85ac8:	83 c4 10             	add    $0x10,%esp
   85acb:	c7 45 ec 00 00 00 00 	movl   $0x0,-0x14(%ebp)
   85ad2:	e9 a2 00 00 00       	jmp    85b79 <apofs_getChild+0x247>
   85ad7:	8b 45 ec             	mov    -0x14(%ebp),%eax
   85ada:	8d 14 85 00 00 00 00 	lea    0x0(,%eax,4),%edx
   85ae1:	8b 45 e4             	mov    -0x1c(%ebp),%eax
   85ae4:	01 d0                	add    %edx,%eax
   85ae6:	8b 00                	mov    (%eax),%eax
   85ae8:	85 c0                	test   %eax,%eax
   85aea:	75 13                	jne    85aff <apofs_getChild+0x1cd>
   85aec:	66 c7 05 28 bd 0a 00 	movw   $0x0,0xabd28
   85af3:	00 00 
   85af5:	b8 00 00 00 00       	mov    $0x0,%eax
   85afa:	e9 bb 00 00 00       	jmp    85bba <apofs_getChild+0x288>
   85aff:	8b 45 ec             	mov    -0x14(%ebp),%eax
   85b02:	8d 14 85 00 00 00 00 	lea    0x0(,%eax,4),%edx
   85b09:	8b 45 e4             	mov    -0x1c(%ebp),%eax
   85b0c:	01 d0                	add    %edx,%eax
   85b0e:	8b 00                	mov    (%eax),%eax
   85b10:	6a 3b                	push   $0x3b
   85b12:	8d 95 a4 fd ff ff    	lea    -0x25c(%ebp),%edx
   85b18:	52                   	push   %edx
   85b19:	50                   	push   %eax
   85b1a:	ff 75 08             	pushl  0x8(%ebp)
   85b1d:	e8 af fb ff ff       	call   856d1 <apofs_getFileName>
   85b22:	83 c4 10             	add    $0x10,%esp
   85b25:	84 c0                	test   %al,%al
   85b27:	75 4b                	jne    85b74 <apofs_getChild+0x242>
   85b29:	83 ec 0c             	sub    $0xc,%esp
   85b2c:	8d 85 a4 fd ff ff    	lea    -0x25c(%ebp),%eax
   85b32:	50                   	push   %eax
   85b33:	e8 92 0a 00 00       	call   865ca <vga_writeText>
   85b38:	83 c4 10             	add    $0x10,%esp
   85b3b:	83 ec 0c             	sub    $0xc,%esp
   85b3e:	6a 0a                	push   $0xa
   85b40:	e8 ad 09 00 00       	call   864f2 <vga_writeChar>
   85b45:	83 c4 10             	add    $0x10,%esp
   85b48:	83 ec 08             	sub    $0x8,%esp
   85b4b:	8d 85 a4 fd ff ff    	lea    -0x25c(%ebp),%eax
   85b51:	50                   	push   %eax
   85b52:	ff 75 10             	pushl  0x10(%ebp)
   85b55:	e8 4f d6 ff ff       	call   831a9 <cmpstr>
   85b5a:	83 c4 10             	add    $0x10,%esp
   85b5d:	84 c0                	test   %al,%al
   85b5f:	74 14                	je     85b75 <apofs_getChild+0x243>
   85b61:	8b 45 ec             	mov    -0x14(%ebp),%eax
   85b64:	8d 14 85 00 00 00 00 	lea    0x0(,%eax,4),%edx
   85b6b:	8b 45 e4             	mov    -0x1c(%ebp),%eax
   85b6e:	01 d0                	add    %edx,%eax
   85b70:	8b 00                	mov    (%eax),%eax
   85b72:	eb 46                	jmp    85bba <apofs_getChild+0x288>
   85b74:	90                   	nop
   85b75:	83 45 ec 01          	addl   $0x1,-0x14(%ebp)
   85b79:	8b 45 ec             	mov    -0x14(%ebp),%eax
   85b7c:	3b 45 e0             	cmp    -0x20(%ebp),%eax
   85b7f:	0f 8c 52 ff ff ff    	jl     85ad7 <apofs_getChild+0x1a5>
   85b85:	83 45 f4 01          	addl   $0x1,-0xc(%ebp)
   85b89:	8b 45 08             	mov    0x8(%ebp),%eax
   85b8c:	0f b7 40 10          	movzwl 0x10(%eax),%eax
   85b90:	0f b7 c0             	movzwl %ax,%eax
   85b93:	39 45 f4             	cmp    %eax,-0xc(%ebp)
   85b96:	0f 8c 0f fe ff ff    	jl     859ab <apofs_getChild+0x79>
   85b9c:	83 ec 0c             	sub    $0xc,%esp
   85b9f:	68 21 1e 08 00       	push   $0x81e21
   85ba4:	e8 21 0a 00 00       	call   865ca <vga_writeText>
   85ba9:	83 c4 10             	add    $0x10,%esp
   85bac:	66 c7 05 28 bd 0a 00 	movw   $0x0,0xabd28
   85bb3:	00 00 
   85bb5:	b8 00 00 00 00       	mov    $0x0,%eax
   85bba:	c9                   	leave  
   85bbb:	c3                   	ret    

00085bbc <apofs_getFile>:
   85bbc:	f3 0f 1e fb          	endbr32 
   85bc0:	55                   	push   %ebp
   85bc1:	89 e5                	mov    %esp,%ebp
   85bc3:	83 ec 38             	sub    $0x38,%esp
   85bc6:	c7 45 f4 00 00 00 00 	movl   $0x0,-0xc(%ebp)
   85bcd:	eb 04                	jmp    85bd3 <apofs_getFile+0x17>
   85bcf:	83 45 f4 01          	addl   $0x1,-0xc(%ebp)
   85bd3:	8b 55 f4             	mov    -0xc(%ebp),%edx
   85bd6:	8b 45 0c             	mov    0xc(%ebp),%eax
   85bd9:	01 d0                	add    %edx,%eax
   85bdb:	0f b6 00             	movzbl (%eax),%eax
   85bde:	84 c0                	test   %al,%al
   85be0:	75 ed                	jne    85bcf <apofs_getFile+0x13>
   85be2:	8b 45 f4             	mov    -0xc(%ebp),%eax
   85be5:	83 c0 01             	add    $0x1,%eax
   85be8:	83 ec 0c             	sub    $0xc,%esp
   85beb:	50                   	push   %eax
   85bec:	e8 44 e0 ff ff       	call   83c35 <kmalloc>
   85bf1:	83 c4 10             	add    $0x10,%esp
   85bf4:	89 45 d4             	mov    %eax,-0x2c(%ebp)
   85bf7:	83 7d d4 00          	cmpl   $0x0,-0x2c(%ebp)
   85bfb:	75 0a                	jne    85c07 <apofs_getFile+0x4b>
   85bfd:	b8 00 00 00 00       	mov    $0x0,%eax
   85c02:	e9 ae 01 00 00       	jmp    85db5 <apofs_getFile+0x1f9>
   85c07:	8b 45 f4             	mov    -0xc(%ebp),%eax
   85c0a:	83 ec 04             	sub    $0x4,%esp
   85c0d:	50                   	push   %eax
   85c0e:	ff 75 0c             	pushl  0xc(%ebp)
   85c11:	ff 75 d4             	pushl  -0x2c(%ebp)
   85c14:	e8 26 d5 ff ff       	call   8313f <memcpy>
   85c19:	83 c4 10             	add    $0x10,%esp
   85c1c:	8b 55 f4             	mov    -0xc(%ebp),%edx
   85c1f:	8b 45 d4             	mov    -0x2c(%ebp),%eax
   85c22:	01 d0                	add    %edx,%eax
   85c24:	c6 00 00             	movb   $0x0,(%eax)
   85c27:	c6 45 f3 00          	movb   $0x0,-0xd(%ebp)
   85c2b:	c7 45 ec 00 00 00 00 	movl   $0x0,-0x14(%ebp)
   85c32:	c7 45 e8 00 00 00 00 	movl   $0x0,-0x18(%ebp)
   85c39:	eb 37                	jmp    85c72 <apofs_getFile+0xb6>
   85c3b:	8b 55 e8             	mov    -0x18(%ebp),%edx
   85c3e:	8b 45 d4             	mov    -0x2c(%ebp),%eax
   85c41:	01 d0                	add    %edx,%eax
   85c43:	0f b6 00             	movzbl (%eax),%eax
   85c46:	88 45 cd             	mov    %al,-0x33(%ebp)
   85c49:	80 7d f3 00          	cmpb   $0x0,-0xd(%ebp)
   85c4d:	74 15                	je     85c64 <apofs_getFile+0xa8>
   85c4f:	80 7d cd 2f          	cmpb   $0x2f,-0x33(%ebp)
   85c53:	75 0f                	jne    85c64 <apofs_getFile+0xa8>
   85c55:	83 45 ec 01          	addl   $0x1,-0x14(%ebp)
   85c59:	8b 55 e8             	mov    -0x18(%ebp),%edx
   85c5c:	8b 45 d4             	mov    -0x2c(%ebp),%eax
   85c5f:	01 d0                	add    %edx,%eax
   85c61:	c6 00 00             	movb   $0x0,(%eax)
   85c64:	80 7d cd 2f          	cmpb   $0x2f,-0x33(%ebp)
   85c68:	0f 95 c0             	setne  %al
   85c6b:	88 45 f3             	mov    %al,-0xd(%ebp)
   85c6e:	83 45 e8 01          	addl   $0x1,-0x18(%ebp)
   85c72:	8b 45 e8             	mov    -0x18(%ebp),%eax
   85c75:	3b 45 f4             	cmp    -0xc(%ebp),%eax
   85c78:	7c c1                	jl     85c3b <apofs_getFile+0x7f>
   85c7a:	80 7d f3 00          	cmpb   $0x0,-0xd(%ebp)
   85c7e:	74 04                	je     85c84 <apofs_getFile+0xc8>
   85c80:	83 45 ec 01          	addl   $0x1,-0x14(%ebp)
   85c84:	8b 45 ec             	mov    -0x14(%ebp),%eax
   85c87:	c1 e0 02             	shl    $0x2,%eax
   85c8a:	83 ec 0c             	sub    $0xc,%esp
   85c8d:	50                   	push   %eax
   85c8e:	e8 a2 df ff ff       	call   83c35 <kmalloc>
   85c93:	83 c4 10             	add    $0x10,%esp
   85c96:	89 45 d0             	mov    %eax,-0x30(%ebp)
   85c99:	83 7d d0 00          	cmpl   $0x0,-0x30(%ebp)
   85c9d:	75 0a                	jne    85ca9 <apofs_getFile+0xed>
   85c9f:	b8 00 00 00 00       	mov    $0x0,%eax
   85ca4:	e9 0c 01 00 00       	jmp    85db5 <apofs_getFile+0x1f9>
   85ca9:	c6 45 f3 00          	movb   $0x0,-0xd(%ebp)
   85cad:	c7 45 e4 00 00 00 00 	movl   $0x0,-0x1c(%ebp)
   85cb4:	c7 45 e0 00 00 00 00 	movl   $0x0,-0x20(%ebp)
   85cbb:	eb 5d                	jmp    85d1a <apofs_getFile+0x15e>
   85cbd:	8b 55 e0             	mov    -0x20(%ebp),%edx
   85cc0:	8b 45 d4             	mov    -0x2c(%ebp),%eax
   85cc3:	01 d0                	add    %edx,%eax
   85cc5:	0f b6 00             	movzbl (%eax),%eax
   85cc8:	88 45 cf             	mov    %al,-0x31(%ebp)
   85ccb:	80 7d cf 2f          	cmpb   $0x2f,-0x31(%ebp)
   85ccf:	74 0d                	je     85cde <apofs_getFile+0x122>
   85cd1:	80 7d cf 00          	cmpb   $0x0,-0x31(%ebp)
   85cd5:	74 07                	je     85cde <apofs_getFile+0x122>
   85cd7:	b8 01 00 00 00       	mov    $0x1,%eax
   85cdc:	eb 05                	jmp    85ce3 <apofs_getFile+0x127>
   85cde:	b8 00 00 00 00       	mov    $0x0,%eax
   85ce3:	88 45 ce             	mov    %al,-0x32(%ebp)
   85ce6:	80 7d f3 00          	cmpb   $0x0,-0xd(%ebp)
   85cea:	75 23                	jne    85d0f <apofs_getFile+0x153>
   85cec:	80 7d ce 00          	cmpb   $0x0,-0x32(%ebp)
   85cf0:	74 1d                	je     85d0f <apofs_getFile+0x153>
   85cf2:	8b 4d e0             	mov    -0x20(%ebp),%ecx
   85cf5:	8b 45 e4             	mov    -0x1c(%ebp),%eax
   85cf8:	8d 14 85 00 00 00 00 	lea    0x0(,%eax,4),%edx
   85cff:	8b 45 d0             	mov    -0x30(%ebp),%eax
   85d02:	01 d0                	add    %edx,%eax
   85d04:	8b 55 d4             	mov    -0x2c(%ebp),%edx
   85d07:	01 ca                	add    %ecx,%edx
   85d09:	89 10                	mov    %edx,(%eax)
   85d0b:	83 45 e4 01          	addl   $0x1,-0x1c(%ebp)
   85d0f:	0f b6 45 ce          	movzbl -0x32(%ebp),%eax
   85d13:	88 45 f3             	mov    %al,-0xd(%ebp)
   85d16:	83 45 e0 01          	addl   $0x1,-0x20(%ebp)
   85d1a:	8b 45 e0             	mov    -0x20(%ebp),%eax
   85d1d:	3b 45 f4             	cmp    -0xc(%ebp),%eax
   85d20:	7c 9b                	jl     85cbd <apofs_getFile+0x101>
   85d22:	c7 45 dc 01 00 00 00 	movl   $0x1,-0x24(%ebp)
   85d29:	c7 45 d8 00 00 00 00 	movl   $0x0,-0x28(%ebp)
   85d30:	eb 5c                	jmp    85d8e <apofs_getFile+0x1d2>
   85d32:	8b 45 d8             	mov    -0x28(%ebp),%eax
   85d35:	8d 14 85 00 00 00 00 	lea    0x0(,%eax,4),%edx
   85d3c:	8b 45 d0             	mov    -0x30(%ebp),%eax
   85d3f:	01 d0                	add    %edx,%eax
   85d41:	8b 00                	mov    (%eax),%eax
   85d43:	83 ec 04             	sub    $0x4,%esp
   85d46:	50                   	push   %eax
   85d47:	ff 75 dc             	pushl  -0x24(%ebp)
   85d4a:	ff 75 08             	pushl  0x8(%ebp)
   85d4d:	e8 e0 fb ff ff       	call   85932 <apofs_getChild>
   85d52:	83 c4 10             	add    $0x10,%esp
   85d55:	89 45 dc             	mov    %eax,-0x24(%ebp)
   85d58:	83 7d dc 00          	cmpl   $0x0,-0x24(%ebp)
   85d5c:	75 2c                	jne    85d8a <apofs_getFile+0x1ce>
   85d5e:	83 ec 0c             	sub    $0xc,%esp
   85d61:	ff 75 d4             	pushl  -0x2c(%ebp)
   85d64:	e8 76 df ff ff       	call   83cdf <kfree>
   85d69:	83 c4 10             	add    $0x10,%esp
   85d6c:	83 ec 0c             	sub    $0xc,%esp
   85d6f:	ff 75 d0             	pushl  -0x30(%ebp)
   85d72:	e8 68 df ff ff       	call   83cdf <kfree>
   85d77:	83 c4 10             	add    $0x10,%esp
   85d7a:	66 c7 05 28 bd 0a 00 	movw   $0x0,0xabd28
   85d81:	00 00 
   85d83:	b8 00 00 00 00       	mov    $0x0,%eax
   85d88:	eb 2b                	jmp    85db5 <apofs_getFile+0x1f9>
   85d8a:	83 45 d8 01          	addl   $0x1,-0x28(%ebp)
   85d8e:	8b 45 d8             	mov    -0x28(%ebp),%eax
   85d91:	3b 45 ec             	cmp    -0x14(%ebp),%eax
   85d94:	7c 9c                	jl     85d32 <apofs_getFile+0x176>
   85d96:	83 ec 0c             	sub    $0xc,%esp
   85d99:	ff 75 d4             	pushl  -0x2c(%ebp)
   85d9c:	e8 3e df ff ff       	call   83cdf <kfree>
   85da1:	83 c4 10             	add    $0x10,%esp
   85da4:	83 ec 0c             	sub    $0xc,%esp
   85da7:	ff 75 d0             	pushl  -0x30(%ebp)
   85daa:	e8 30 df ff ff       	call   83cdf <kfree>
   85daf:	83 c4 10             	add    $0x10,%esp
   85db2:	8b 45 dc             	mov    -0x24(%ebp),%eax
   85db5:	c9                   	leave  
   85db6:	c3                   	ret    

00085db7 <apofs_getFileSize>:
   85db7:	f3 0f 1e fb          	endbr32 
   85dbb:	55                   	push   %ebp
   85dbc:	89 e5                	mov    %esp,%ebp
   85dbe:	81 ec 38 02 00 00    	sub    $0x238,%esp
   85dc4:	ff 75 0c             	pushl  0xc(%ebp)
   85dc7:	ff 75 08             	pushl  0x8(%ebp)
   85dca:	e8 6b f7 ff ff       	call   8553a <apofs_isPresent>
   85dcf:	83 c4 08             	add    $0x8,%esp
   85dd2:	84 c0                	test   %al,%al
   85dd4:	75 13                	jne    85de9 <apofs_getFileSize+0x32>
   85dd6:	66 c7 05 28 bd 0a 00 	movw   $0x8,0xabd28
   85ddd:	08 00 
   85ddf:	b8 00 00 00 00       	mov    $0x0,%eax
   85de4:	e9 5d 01 00 00       	jmp    85f46 <apofs_getFileSize+0x18f>
   85de9:	c7 45 f4 00 00 00 00 	movl   $0x0,-0xc(%ebp)
   85df0:	c7 45 f0 00 00 00 00 	movl   $0x0,-0x10(%ebp)
   85df7:	e9 31 01 00 00       	jmp    85f2d <apofs_getFileSize+0x176>
   85dfc:	8b 45 0c             	mov    0xc(%ebp),%eax
   85dff:	8d 50 ff             	lea    -0x1(%eax),%edx
   85e02:	8b 45 08             	mov    0x8(%ebp),%eax
   85e05:	0f b7 40 10          	movzwl 0x10(%eax),%eax
   85e09:	0f b7 c0             	movzwl %ax,%eax
   85e0c:	0f af d0             	imul   %eax,%edx
   85e0f:	8b 45 08             	mov    0x8(%ebp),%eax
   85e12:	8b 40 08             	mov    0x8(%eax),%eax
   85e15:	01 c2                	add    %eax,%edx
   85e17:	8b 45 f0             	mov    -0x10(%ebp),%eax
   85e1a:	01 d0                	add    %edx,%eax
   85e1c:	89 45 e8             	mov    %eax,-0x18(%ebp)
   85e1f:	8b 55 e8             	mov    -0x18(%ebp),%edx
   85e22:	8b 45 08             	mov    0x8(%ebp),%eax
   85e25:	8b 00                	mov    (%eax),%eax
   85e27:	8d 8d d4 fd ff ff    	lea    -0x22c(%ebp),%ecx
   85e2d:	51                   	push   %ecx
   85e2e:	6a 01                	push   $0x1
   85e30:	52                   	push   %edx
   85e31:	50                   	push   %eax
   85e32:	e8 26 34 00 00       	call   8925d <storage_read>
   85e37:	83 c4 10             	add    $0x10,%esp
   85e3a:	84 c0                	test   %al,%al
   85e3c:	74 13                	je     85e51 <apofs_getFileSize+0x9a>
   85e3e:	66 c7 05 28 bd 0a 00 	movw   $0x1,0xabd28
   85e45:	01 00 
   85e47:	b8 00 00 00 00       	mov    $0x0,%eax
   85e4c:	e9 f5 00 00 00       	jmp    85f46 <apofs_getFileSize+0x18f>
   85e51:	0f b6 85 d4 fd ff ff 	movzbl -0x22c(%ebp),%eax
   85e58:	3c 02                	cmp    $0x2,%al
   85e5a:	74 19                	je     85e75 <apofs_getFileSize+0xbe>
   85e5c:	83 7d f0 00          	cmpl   $0x0,-0x10(%ebp)
   85e60:	75 13                	jne    85e75 <apofs_getFileSize+0xbe>
   85e62:	66 c7 05 28 bd 0a 00 	movw   $0x9,0xabd28
   85e69:	09 00 
   85e6b:	b8 00 00 00 00       	mov    $0x0,%eax
   85e70:	e9 d1 00 00 00       	jmp    85f46 <apofs_getFileSize+0x18f>
   85e75:	83 7d f0 00          	cmpl   $0x0,-0x10(%ebp)
   85e79:	75 07                	jne    85e82 <apofs_getFileSize+0xcb>
   85e7b:	b8 58 00 00 00       	mov    $0x58,%eax
   85e80:	eb 05                	jmp    85e87 <apofs_getFileSize+0xd0>
   85e82:	b8 00 00 00 00       	mov    $0x0,%eax
   85e87:	89 45 e4             	mov    %eax,-0x1c(%ebp)
   85e8a:	8d 95 d4 fd ff ff    	lea    -0x22c(%ebp),%edx
   85e90:	8b 45 e4             	mov    -0x1c(%ebp),%eax
   85e93:	01 d0                	add    %edx,%eax
   85e95:	89 45 e0             	mov    %eax,-0x20(%ebp)
   85e98:	b8 00 02 00 00       	mov    $0x200,%eax
   85e9d:	2b 45 e4             	sub    -0x1c(%ebp),%eax
   85ea0:	c1 e8 02             	shr    $0x2,%eax
   85ea3:	89 45 dc             	mov    %eax,-0x24(%ebp)
   85ea6:	c7 45 ec 00 00 00 00 	movl   $0x0,-0x14(%ebp)
   85ead:	eb 72                	jmp    85f21 <apofs_getFileSize+0x16a>
   85eaf:	8b 45 ec             	mov    -0x14(%ebp),%eax
   85eb2:	8d 14 85 00 00 00 00 	lea    0x0(,%eax,4),%edx
   85eb9:	8b 45 e0             	mov    -0x20(%ebp),%eax
   85ebc:	01 d0                	add    %edx,%eax
   85ebe:	8b 00                	mov    (%eax),%eax
   85ec0:	85 c0                	test   %eax,%eax
   85ec2:	75 25                	jne    85ee9 <apofs_getFileSize+0x132>
   85ec4:	8b 45 f4             	mov    -0xc(%ebp),%eax
   85ec7:	05 ff ff 7f 00       	add    $0x7fffff,%eax
   85ecc:	c1 e0 09             	shl    $0x9,%eax
   85ecf:	89 c2                	mov    %eax,%edx
   85ed1:	8b 45 ec             	mov    -0x14(%ebp),%eax
   85ed4:	83 c0 01             	add    $0x1,%eax
   85ed7:	8d 0c 85 00 00 00 00 	lea    0x0(,%eax,4),%ecx
   85ede:	8b 45 e0             	mov    -0x20(%ebp),%eax
   85ee1:	01 c8                	add    %ecx,%eax
   85ee3:	8b 00                	mov    (%eax),%eax
   85ee5:	01 d0                	add    %edx,%eax
   85ee7:	eb 5d                	jmp    85f46 <apofs_getFileSize+0x18f>
   85ee9:	8b 45 ec             	mov    -0x14(%ebp),%eax
   85eec:	8d 14 85 00 00 00 00 	lea    0x0(,%eax,4),%edx
   85ef3:	8b 45 e0             	mov    -0x20(%ebp),%eax
   85ef6:	01 d0                	add    %edx,%eax
   85ef8:	8b 00                	mov    (%eax),%eax
   85efa:	89 45 d8             	mov    %eax,-0x28(%ebp)
   85efd:	8b 45 ec             	mov    -0x14(%ebp),%eax
   85f00:	83 c0 01             	add    $0x1,%eax
   85f03:	8d 14 85 00 00 00 00 	lea    0x0(,%eax,4),%edx
   85f0a:	8b 45 e0             	mov    -0x20(%ebp),%eax
   85f0d:	01 d0                	add    %edx,%eax
   85f0f:	8b 00                	mov    (%eax),%eax
   85f11:	89 45 d4             	mov    %eax,-0x2c(%ebp)
   85f14:	8b 45 d4             	mov    -0x2c(%ebp),%eax
   85f17:	2b 45 d8             	sub    -0x28(%ebp),%eax
   85f1a:	01 45 f4             	add    %eax,-0xc(%ebp)
   85f1d:	83 45 ec 02          	addl   $0x2,-0x14(%ebp)
   85f21:	8b 45 ec             	mov    -0x14(%ebp),%eax
   85f24:	3b 45 dc             	cmp    -0x24(%ebp),%eax
   85f27:	7c 86                	jl     85eaf <apofs_getFileSize+0xf8>
   85f29:	83 45 f0 01          	addl   $0x1,-0x10(%ebp)
   85f2d:	8b 45 08             	mov    0x8(%ebp),%eax
   85f30:	0f b7 40 10          	movzwl 0x10(%eax),%eax
   85f34:	0f b7 c0             	movzwl %ax,%eax
   85f37:	39 45 f0             	cmp    %eax,-0x10(%ebp)
   85f3a:	0f 8c bc fe ff ff    	jl     85dfc <apofs_getFileSize+0x45>
   85f40:	8b 45 f4             	mov    -0xc(%ebp),%eax
   85f43:	c1 e0 09             	shl    $0x9,%eax
   85f46:	c9                   	leave  
   85f47:	c3                   	ret    

00085f48 <limit_value>:
   85f48:	f3 0f 1e fb          	endbr32 
   85f4c:	55                   	push   %ebp
   85f4d:	89 e5                	mov    %esp,%ebp
   85f4f:	8b 45 08             	mov    0x8(%ebp),%eax
   85f52:	3b 45 10             	cmp    0x10(%ebp),%eax
   85f55:	77 0c                	ja     85f63 <limit_value+0x1b>
   85f57:	8b 45 0c             	mov    0xc(%ebp),%eax
   85f5a:	39 45 08             	cmp    %eax,0x8(%ebp)
   85f5d:	0f 43 45 08          	cmovae 0x8(%ebp),%eax
   85f61:	eb 03                	jmp    85f66 <limit_value+0x1e>
   85f63:	8b 45 10             	mov    0x10(%ebp),%eax
   85f66:	5d                   	pop    %ebp
   85f67:	c3                   	ret    

00085f68 <apofs_read>:
   85f68:	f3 0f 1e fb          	endbr32 
   85f6c:	55                   	push   %ebp
   85f6d:	89 e5                	mov    %esp,%ebp
   85f6f:	53                   	push   %ebx
   85f70:	81 ec 54 02 00 00    	sub    $0x254,%esp
   85f76:	ff 75 0c             	pushl  0xc(%ebp)
   85f79:	ff 75 08             	pushl  0x8(%ebp)
   85f7c:	e8 b9 f5 ff ff       	call   8553a <apofs_isPresent>
   85f81:	83 c4 08             	add    $0x8,%esp
   85f84:	84 c0                	test   %al,%al
   85f86:	75 13                	jne    85f9b <apofs_read+0x33>
   85f88:	66 c7 05 28 bd 0a 00 	movw   $0x8,0xabd28
   85f8f:	08 00 
   85f91:	b8 00 00 00 00       	mov    $0x0,%eax
   85f96:	e9 f6 02 00 00       	jmp    86291 <apofs_read+0x329>
   85f9b:	83 7d 18 00          	cmpl   $0x0,0x18(%ebp)
   85f9f:	75 13                	jne    85fb4 <apofs_read+0x4c>
   85fa1:	66 c7 05 28 bd 0a 00 	movw   $0x0,0xabd28
   85fa8:	00 00 
   85faa:	b8 00 00 00 00       	mov    $0x0,%eax
   85faf:	e9 dd 02 00 00       	jmp    86291 <apofs_read+0x329>
   85fb4:	8b 45 14             	mov    0x14(%ebp),%eax
   85fb7:	c1 e8 09             	shr    $0x9,%eax
   85fba:	89 45 d8             	mov    %eax,-0x28(%ebp)
   85fbd:	8b 55 14             	mov    0x14(%ebp),%edx
   85fc0:	8b 45 18             	mov    0x18(%ebp),%eax
   85fc3:	01 d0                	add    %edx,%eax
   85fc5:	c1 e8 09             	shr    $0x9,%eax
   85fc8:	83 c0 01             	add    $0x1,%eax
   85fcb:	89 45 d4             	mov    %eax,-0x2c(%ebp)
   85fce:	8b 45 08             	mov    0x8(%ebp),%eax
   85fd1:	0f b7 40 10          	movzwl 0x10(%eax),%eax
   85fd5:	0f b7 c0             	movzwl %ax,%eax
   85fd8:	c1 e0 09             	shl    $0x9,%eax
   85fdb:	83 ec 0c             	sub    $0xc,%esp
   85fde:	50                   	push   %eax
   85fdf:	e8 51 dc ff ff       	call   83c35 <kmalloc>
   85fe4:	83 c4 10             	add    $0x10,%esp
   85fe7:	89 45 d0             	mov    %eax,-0x30(%ebp)
   85fea:	8b 45 0c             	mov    0xc(%ebp),%eax
   85fed:	8d 50 ff             	lea    -0x1(%eax),%edx
   85ff0:	8b 45 08             	mov    0x8(%ebp),%eax
   85ff3:	0f b7 40 10          	movzwl 0x10(%eax),%eax
   85ff7:	0f b7 c0             	movzwl %ax,%eax
   85ffa:	0f af d0             	imul   %eax,%edx
   85ffd:	8b 45 08             	mov    0x8(%ebp),%eax
   86000:	8b 40 08             	mov    0x8(%eax),%eax
   86003:	01 d0                	add    %edx,%eax
   86005:	89 45 cc             	mov    %eax,-0x34(%ebp)
   86008:	8b 45 08             	mov    0x8(%ebp),%eax
   8600b:	0f b7 40 10          	movzwl 0x10(%eax),%eax
   8600f:	0f b6 c8             	movzbl %al,%ecx
   86012:	8b 55 cc             	mov    -0x34(%ebp),%edx
   86015:	8b 45 08             	mov    0x8(%ebp),%eax
   86018:	8b 00                	mov    (%eax),%eax
   8601a:	ff 75 d0             	pushl  -0x30(%ebp)
   8601d:	51                   	push   %ecx
   8601e:	52                   	push   %edx
   8601f:	50                   	push   %eax
   86020:	e8 38 32 00 00       	call   8925d <storage_read>
   86025:	83 c4 10             	add    $0x10,%esp
   86028:	84 c0                	test   %al,%al
   8602a:	74 13                	je     8603f <apofs_read+0xd7>
   8602c:	66 c7 05 28 bd 0a 00 	movw   $0x1,0xabd28
   86033:	01 00 
   86035:	b8 00 00 00 00       	mov    $0x0,%eax
   8603a:	e9 52 02 00 00       	jmp    86291 <apofs_read+0x329>
   8603f:	8b 45 d0             	mov    -0x30(%ebp),%eax
   86042:	0f b6 00             	movzbl (%eax),%eax
   86045:	3c 01                	cmp    $0x1,%al
   86047:	75 13                	jne    8605c <apofs_read+0xf4>
   86049:	66 c7 05 28 bd 0a 00 	movw   $0x7,0xabd28
   86050:	07 00 
   86052:	b8 00 00 00 00       	mov    $0x0,%eax
   86057:	e9 35 02 00 00       	jmp    86291 <apofs_read+0x329>
   8605c:	c7 45 c8 00 00 00 00 	movl   $0x0,-0x38(%ebp)
   86063:	8b 45 d0             	mov    -0x30(%ebp),%eax
   86066:	83 c0 58             	add    $0x58,%eax
   86069:	89 45 c4             	mov    %eax,-0x3c(%ebp)
   8606c:	8b 45 08             	mov    0x8(%ebp),%eax
   8606f:	0f b7 40 10          	movzwl 0x10(%eax),%eax
   86073:	0f b7 c0             	movzwl %ax,%eax
   86076:	c1 e0 09             	shl    $0x9,%eax
   86079:	83 e8 58             	sub    $0x58,%eax
   8607c:	c1 e8 02             	shr    $0x2,%eax
   8607f:	89 45 c0             	mov    %eax,-0x40(%ebp)
   86082:	c7 45 f4 00 00 00 00 	movl   $0x0,-0xc(%ebp)
   86089:	c7 45 f0 00 00 00 00 	movl   $0x0,-0x10(%ebp)
   86090:	c7 45 ec 00 00 00 00 	movl   $0x0,-0x14(%ebp)
   86097:	e9 cf 01 00 00       	jmp    8626b <apofs_read+0x303>
   8609c:	8b 45 ec             	mov    -0x14(%ebp),%eax
   8609f:	8d 14 85 00 00 00 00 	lea    0x0(,%eax,4),%edx
   860a6:	8b 45 c4             	mov    -0x3c(%ebp),%eax
   860a9:	01 d0                	add    %edx,%eax
   860ab:	8b 00                	mov    (%eax),%eax
   860ad:	85 c0                	test   %eax,%eax
   860af:	75 1f                	jne    860d0 <apofs_read+0x168>
   860b1:	83 ec 0c             	sub    $0xc,%esp
   860b4:	ff 75 d0             	pushl  -0x30(%ebp)
   860b7:	e8 23 dc ff ff       	call   83cdf <kfree>
   860bc:	83 c4 10             	add    $0x10,%esp
   860bf:	66 c7 05 28 bd 0a 00 	movw   $0x0,0xabd28
   860c6:	00 00 
   860c8:	8b 45 f0             	mov    -0x10(%ebp),%eax
   860cb:	e9 c1 01 00 00       	jmp    86291 <apofs_read+0x329>
   860d0:	8b 45 ec             	mov    -0x14(%ebp),%eax
   860d3:	8d 14 85 00 00 00 00 	lea    0x0(,%eax,4),%edx
   860da:	8b 45 c4             	mov    -0x3c(%ebp),%eax
   860dd:	01 d0                	add    %edx,%eax
   860df:	8b 00                	mov    (%eax),%eax
   860e1:	89 45 bc             	mov    %eax,-0x44(%ebp)
   860e4:	8b 45 ec             	mov    -0x14(%ebp),%eax
   860e7:	83 c0 01             	add    $0x1,%eax
   860ea:	8d 14 85 00 00 00 00 	lea    0x0(,%eax,4),%edx
   860f1:	8b 45 c4             	mov    -0x3c(%ebp),%eax
   860f4:	01 d0                	add    %edx,%eax
   860f6:	8b 00                	mov    (%eax),%eax
   860f8:	89 45 b8             	mov    %eax,-0x48(%ebp)
   860fb:	c7 45 e8 00 02 00 00 	movl   $0x200,-0x18(%ebp)
   86102:	8b 45 c0             	mov    -0x40(%ebp),%eax
   86105:	83 e8 01             	sub    $0x1,%eax
   86108:	39 45 ec             	cmp    %eax,-0x14(%ebp)
   8610b:	74 2f                	je     8613c <apofs_read+0x1d4>
   8610d:	8b 45 ec             	mov    -0x14(%ebp),%eax
   86110:	83 c0 02             	add    $0x2,%eax
   86113:	8d 14 85 00 00 00 00 	lea    0x0(,%eax,4),%edx
   8611a:	8b 45 c4             	mov    -0x3c(%ebp),%eax
   8611d:	01 d0                	add    %edx,%eax
   8611f:	8b 00                	mov    (%eax),%eax
   86121:	85 c0                	test   %eax,%eax
   86123:	75 17                	jne    8613c <apofs_read+0x1d4>
   86125:	8b 45 ec             	mov    -0x14(%ebp),%eax
   86128:	83 c0 03             	add    $0x3,%eax
   8612b:	8d 14 85 00 00 00 00 	lea    0x0(,%eax,4),%edx
   86132:	8b 45 c4             	mov    -0x3c(%ebp),%eax
   86135:	01 d0                	add    %edx,%eax
   86137:	8b 00                	mov    (%eax),%eax
   86139:	89 45 e8             	mov    %eax,-0x18(%ebp)
   8613c:	8b 45 b8             	mov    -0x48(%ebp),%eax
   8613f:	2b 45 bc             	sub    -0x44(%ebp),%eax
   86142:	89 45 b4             	mov    %eax,-0x4c(%ebp)
   86145:	8b 45 d8             	mov    -0x28(%ebp),%eax
   86148:	2b 45 f4             	sub    -0xc(%ebp),%eax
   8614b:	83 ec 04             	sub    $0x4,%esp
   8614e:	ff 75 b4             	pushl  -0x4c(%ebp)
   86151:	6a 00                	push   $0x0
   86153:	50                   	push   %eax
   86154:	e8 ef fd ff ff       	call   85f48 <limit_value>
   86159:	83 c4 10             	add    $0x10,%esp
   8615c:	89 45 b0             	mov    %eax,-0x50(%ebp)
   8615f:	8b 45 d4             	mov    -0x2c(%ebp),%eax
   86162:	2b 45 f4             	sub    -0xc(%ebp),%eax
   86165:	83 ec 04             	sub    $0x4,%esp
   86168:	ff 75 b4             	pushl  -0x4c(%ebp)
   8616b:	6a 00                	push   $0x0
   8616d:	50                   	push   %eax
   8616e:	e8 d5 fd ff ff       	call   85f48 <limit_value>
   86173:	83 c4 10             	add    $0x10,%esp
   86176:	89 45 ac             	mov    %eax,-0x54(%ebp)
   86179:	8b 45 b0             	mov    -0x50(%ebp),%eax
   8617c:	89 45 e4             	mov    %eax,-0x1c(%ebp)
   8617f:	e9 d1 00 00 00       	jmp    86255 <apofs_read+0x2ed>
   86184:	8b 55 bc             	mov    -0x44(%ebp),%edx
   86187:	8b 45 e4             	mov    -0x1c(%ebp),%eax
   8618a:	8d 0c 02             	lea    (%edx,%eax,1),%ecx
   8618d:	8b 45 08             	mov    0x8(%ebp),%eax
   86190:	8b 00                	mov    (%eax),%eax
   86192:	8d 95 ac fd ff ff    	lea    -0x254(%ebp),%edx
   86198:	52                   	push   %edx
   86199:	6a 01                	push   $0x1
   8619b:	51                   	push   %ecx
   8619c:	50                   	push   %eax
   8619d:	e8 bb 30 00 00       	call   8925d <storage_read>
   861a2:	83 c4 10             	add    $0x10,%esp
   861a5:	84 c0                	test   %al,%al
   861a7:	74 13                	je     861bc <apofs_read+0x254>
   861a9:	66 c7 05 28 bd 0a 00 	movw   $0x1,0xabd28
   861b0:	01 00 
   861b2:	b8 00 00 00 00       	mov    $0x0,%eax
   861b7:	e9 d5 00 00 00       	jmp    86291 <apofs_read+0x329>
   861bc:	8b 55 f4             	mov    -0xc(%ebp),%edx
   861bf:	8b 45 e4             	mov    -0x1c(%ebp),%eax
   861c2:	01 d0                	add    %edx,%eax
   861c4:	39 45 d8             	cmp    %eax,-0x28(%ebp)
   861c7:	75 0d                	jne    861d6 <apofs_read+0x26e>
   861c9:	8b 45 14             	mov    0x14(%ebp),%eax
   861cc:	25 ff 01 00 00       	and    $0x1ff,%eax
   861d1:	89 45 e0             	mov    %eax,-0x20(%ebp)
   861d4:	eb 07                	jmp    861dd <apofs_read+0x275>
   861d6:	c7 45 e0 00 00 00 00 	movl   $0x0,-0x20(%ebp)
   861dd:	8b 55 f4             	mov    -0xc(%ebp),%edx
   861e0:	8b 45 e4             	mov    -0x1c(%ebp),%eax
   861e3:	01 c2                	add    %eax,%edx
   861e5:	8b 45 d4             	mov    -0x2c(%ebp),%eax
   861e8:	83 e8 01             	sub    $0x1,%eax
   861eb:	39 c2                	cmp    %eax,%edx
   861ed:	75 12                	jne    86201 <apofs_read+0x299>
   861ef:	8b 55 14             	mov    0x14(%ebp),%edx
   861f2:	8b 45 18             	mov    0x18(%ebp),%eax
   861f5:	01 d0                	add    %edx,%eax
   861f7:	25 ff 01 00 00       	and    $0x1ff,%eax
   861fc:	89 45 dc             	mov    %eax,-0x24(%ebp)
   861ff:	eb 07                	jmp    86208 <apofs_read+0x2a0>
   86201:	c7 45 dc 00 02 00 00 	movl   $0x200,-0x24(%ebp)
   86208:	8b 45 b4             	mov    -0x4c(%ebp),%eax
   8620b:	83 e8 01             	sub    $0x1,%eax
   8620e:	39 45 e4             	cmp    %eax,-0x1c(%ebp)
   86211:	75 0e                	jne    86221 <apofs_read+0x2b9>
   86213:	8b 45 dc             	mov    -0x24(%ebp),%eax
   86216:	3b 45 e8             	cmp    -0x18(%ebp),%eax
   86219:	76 06                	jbe    86221 <apofs_read+0x2b9>
   8621b:	8b 45 e8             	mov    -0x18(%ebp),%eax
   8621e:	89 45 dc             	mov    %eax,-0x24(%ebp)
   86221:	8b 45 dc             	mov    -0x24(%ebp),%eax
   86224:	2b 45 e0             	sub    -0x20(%ebp),%eax
   86227:	8d 8d ac fd ff ff    	lea    -0x254(%ebp),%ecx
   8622d:	8b 55 e0             	mov    -0x20(%ebp),%edx
   86230:	01 d1                	add    %edx,%ecx
   86232:	8b 5d 10             	mov    0x10(%ebp),%ebx
   86235:	8b 55 f0             	mov    -0x10(%ebp),%edx
   86238:	01 da                	add    %ebx,%edx
   8623a:	83 ec 04             	sub    $0x4,%esp
   8623d:	50                   	push   %eax
   8623e:	51                   	push   %ecx
   8623f:	52                   	push   %edx
   86240:	e8 fa ce ff ff       	call   8313f <memcpy>
   86245:	83 c4 10             	add    $0x10,%esp
   86248:	8b 45 dc             	mov    -0x24(%ebp),%eax
   8624b:	2b 45 e0             	sub    -0x20(%ebp),%eax
   8624e:	01 45 f0             	add    %eax,-0x10(%ebp)
   86251:	83 45 e4 01          	addl   $0x1,-0x1c(%ebp)
   86255:	8b 45 e4             	mov    -0x1c(%ebp),%eax
   86258:	3b 45 ac             	cmp    -0x54(%ebp),%eax
   8625b:	0f 82 23 ff ff ff    	jb     86184 <apofs_read+0x21c>
   86261:	8b 45 b4             	mov    -0x4c(%ebp),%eax
   86264:	01 45 f4             	add    %eax,-0xc(%ebp)
   86267:	83 45 ec 02          	addl   $0x2,-0x14(%ebp)
   8626b:	8b 45 ec             	mov    -0x14(%ebp),%eax
   8626e:	3b 45 c0             	cmp    -0x40(%ebp),%eax
   86271:	0f 8c 25 fe ff ff    	jl     8609c <apofs_read+0x134>
   86277:	83 ec 0c             	sub    $0xc,%esp
   8627a:	ff 75 d0             	pushl  -0x30(%ebp)
   8627d:	e8 5d da ff ff       	call   83cdf <kfree>
   86282:	83 c4 10             	add    $0x10,%esp
   86285:	66 c7 05 28 bd 0a 00 	movw   $0x0,0xabd28
   8628c:	00 00 
   8628e:	8b 45 f0             	mov    -0x10(%ebp),%eax
   86291:	8b 5d fc             	mov    -0x4(%ebp),%ebx
   86294:	c9                   	leave  
   86295:	c3                   	ret    

00086296 <apofs_init>:
   86296:	f3 0f 1e fb          	endbr32 
   8629a:	55                   	push   %ebp
   8629b:	89 e5                	mov    %esp,%ebp
   8629d:	81 ec 18 02 00 00    	sub    $0x218,%esp
   862a3:	b8 0a 7c 00 00       	mov    $0x7c0a,%eax
   862a8:	8b 00                	mov    (%eax),%eax
   862aa:	89 45 f0             	mov    %eax,-0x10(%ebp)
   862ad:	c7 45 f4 00 00 00 00 	movl   $0x0,-0xc(%ebp)
   862b4:	eb 5b                	jmp    86311 <apofs_init+0x7b>
   862b6:	8b 45 ec             	mov    -0x14(%ebp),%eax
   862b9:	8b 40 08             	mov    0x8(%eax),%eax
   862bc:	85 c0                	test   %eax,%eax
   862be:	74 46                	je     86306 <apofs_init+0x70>
   862c0:	8d 85 ec fd ff ff    	lea    -0x214(%ebp),%eax
   862c6:	50                   	push   %eax
   862c7:	6a 01                	push   $0x1
   862c9:	6a 00                	push   $0x0
   862cb:	ff 75 ec             	pushl  -0x14(%ebp)
   862ce:	e8 8a 2f 00 00       	call   8925d <storage_read>
   862d3:	83 c4 10             	add    $0x10,%esp
   862d6:	84 c0                	test   %al,%al
   862d8:	75 2f                	jne    86309 <apofs_init+0x73>
   862da:	8d 85 ec fd ff ff    	lea    -0x214(%ebp),%eax
   862e0:	83 c0 0a             	add    $0xa,%eax
   862e3:	8b 00                	mov    (%eax),%eax
   862e5:	39 45 f0             	cmp    %eax,-0x10(%ebp)
   862e8:	75 22                	jne    8630c <apofs_init+0x76>
   862ea:	83 ec 0c             	sub    $0xc,%esp
   862ed:	ff 75 ec             	pushl  -0x14(%ebp)
   862f0:	e8 ef ef ff ff       	call   852e4 <apofs_openDevice>
   862f5:	83 c4 10             	add    $0x10,%esp
   862f8:	a3 24 bd 0a 00       	mov    %eax,0xabd24
   862fd:	a1 24 bd 0a 00       	mov    0xabd24,%eax
   86302:	85 c0                	test   %eax,%eax
   86304:	eb 07                	jmp    8630d <apofs_init+0x77>
   86306:	90                   	nop
   86307:	eb 04                	jmp    8630d <apofs_init+0x77>
   86309:	90                   	nop
   8630a:	eb 01                	jmp    8630d <apofs_init+0x77>
   8630c:	90                   	nop
   8630d:	83 45 f4 01          	addl   $0x1,-0xc(%ebp)
   86311:	83 ec 0c             	sub    $0xc,%esp
   86314:	ff 75 f4             	pushl  -0xc(%ebp)
   86317:	e8 a1 2e 00 00       	call   891bd <storage_getDevice>
   8631c:	83 c4 10             	add    $0x10,%esp
   8631f:	89 45 ec             	mov    %eax,-0x14(%ebp)
   86322:	83 7d ec 00          	cmpl   $0x0,-0x14(%ebp)
   86326:	75 8e                	jne    862b6 <apofs_init+0x20>
   86328:	a1 24 bd 0a 00       	mov    0xabd24,%eax
   8632d:	85 c0                	test   %eax,%eax
   8632f:	75 10                	jne    86341 <apofs_init+0xab>
   86331:	83 ec 0c             	sub    $0xc,%esp
   86334:	68 2c 1e 08 00       	push   $0x81e2c
   86339:	e8 e9 ce ff ff       	call   83227 <error>
   8633e:	83 c4 10             	add    $0x10,%esp
   86341:	90                   	nop
   86342:	c9                   	leave  
   86343:	c3                   	ret    

00086344 <outb>:
   86344:	55                   	push   %ebp
   86345:	89 e5                	mov    %esp,%ebp
   86347:	83 ec 08             	sub    $0x8,%esp
   8634a:	8b 45 08             	mov    0x8(%ebp),%eax
   8634d:	8b 55 0c             	mov    0xc(%ebp),%edx
   86350:	66 89 45 fc          	mov    %ax,-0x4(%ebp)
   86354:	89 d0                	mov    %edx,%eax
   86356:	88 45 f8             	mov    %al,-0x8(%ebp)
   86359:	0f b6 45 f8          	movzbl -0x8(%ebp),%eax
   8635d:	0f b7 55 fc          	movzwl -0x4(%ebp),%edx
   86361:	ee                   	out    %al,(%dx)
   86362:	90                   	nop
   86363:	c9                   	leave  
   86364:	c3                   	ret    

00086365 <inb>:
   86365:	55                   	push   %ebp
   86366:	89 e5                	mov    %esp,%ebp
   86368:	83 ec 14             	sub    $0x14,%esp
   8636b:	8b 45 08             	mov    0x8(%ebp),%eax
   8636e:	66 89 45 ec          	mov    %ax,-0x14(%ebp)
   86372:	0f b7 45 ec          	movzwl -0x14(%ebp),%eax
   86376:	89 c2                	mov    %eax,%edx
   86378:	ec                   	in     (%dx),%al
   86379:	88 45 ff             	mov    %al,-0x1(%ebp)
   8637c:	0f b6 45 ff          	movzbl -0x1(%ebp),%eax
   86380:	c9                   	leave  
   86381:	c3                   	ret    

00086382 <vga_setChar>:
   86382:	f3 0f 1e fb          	endbr32 
   86386:	55                   	push   %ebp
   86387:	89 e5                	mov    %esp,%ebp
   86389:	83 ec 1c             	sub    $0x1c,%esp
   8638c:	8b 4d 08             	mov    0x8(%ebp),%ecx
   8638f:	8b 55 0c             	mov    0xc(%ebp),%edx
   86392:	8b 45 10             	mov    0x10(%ebp),%eax
   86395:	88 4d ec             	mov    %cl,-0x14(%ebp)
   86398:	88 55 e8             	mov    %dl,-0x18(%ebp)
   8639b:	88 45 e4             	mov    %al,-0x1c(%ebp)
   8639e:	80 7d e8 4f          	cmpb   $0x4f,-0x18(%ebp)
   863a2:	77 4c                	ja     863f0 <vga_setChar+0x6e>
   863a4:	80 7d e4 18          	cmpb   $0x18,-0x1c(%ebp)
   863a8:	77 46                	ja     863f0 <vga_setChar+0x6e>
   863aa:	0f b6 55 e4          	movzbl -0x1c(%ebp),%edx
   863ae:	89 d0                	mov    %edx,%eax
   863b0:	c1 e0 02             	shl    $0x2,%eax
   863b3:	01 d0                	add    %edx,%eax
   863b5:	c1 e0 04             	shl    $0x4,%eax
   863b8:	89 c2                	mov    %eax,%edx
   863ba:	0f b6 45 e8          	movzbl -0x18(%ebp),%eax
   863be:	01 d0                	add    %edx,%eax
   863c0:	01 c0                	add    %eax,%eax
   863c2:	89 45 fc             	mov    %eax,-0x4(%ebp)
   863c5:	8b 15 c0 ae 08 00    	mov    0x8aec0,%edx
   863cb:	8b 45 fc             	mov    -0x4(%ebp),%eax
   863ce:	01 c2                	add    %eax,%edx
   863d0:	0f b6 45 ec          	movzbl -0x14(%ebp),%eax
   863d4:	88 02                	mov    %al,(%edx)
   863d6:	0f b6 0d c4 ae 08 00 	movzbl 0x8aec4,%ecx
   863dd:	a1 c0 ae 08 00       	mov    0x8aec0,%eax
   863e2:	8b 55 fc             	mov    -0x4(%ebp),%edx
   863e5:	83 c2 01             	add    $0x1,%edx
   863e8:	01 d0                	add    %edx,%eax
   863ea:	89 ca                	mov    %ecx,%edx
   863ec:	88 10                	mov    %dl,(%eax)
   863ee:	eb 01                	jmp    863f1 <vga_setChar+0x6f>
   863f0:	90                   	nop
   863f1:	c9                   	leave  
   863f2:	c3                   	ret    

000863f3 <vga_scroll>:
   863f3:	f3 0f 1e fb          	endbr32 
   863f7:	55                   	push   %ebp
   863f8:	89 e5                	mov    %esp,%ebp
   863fa:	83 ec 28             	sub    $0x28,%esp
   863fd:	c7 45 f4 00 00 00 00 	movl   $0x0,-0xc(%ebp)
   86404:	e9 b6 00 00 00       	jmp    864bf <vga_scroll+0xcc>
   86409:	c7 45 f0 00 00 00 00 	movl   $0x0,-0x10(%ebp)
   86410:	e9 9c 00 00 00       	jmp    864b1 <vga_scroll+0xbe>
   86415:	8b 55 f0             	mov    -0x10(%ebp),%edx
   86418:	8b 45 08             	mov    0x8(%ebp),%eax
   8641b:	01 d0                	add    %edx,%eax
   8641d:	89 45 ec             	mov    %eax,-0x14(%ebp)
   86420:	83 7d ec 18          	cmpl   $0x18,-0x14(%ebp)
   86424:	7e 1a                	jle    86440 <vga_scroll+0x4d>
   86426:	8b 45 f0             	mov    -0x10(%ebp),%eax
   86429:	0f b6 d0             	movzbl %al,%edx
   8642c:	8b 45 f4             	mov    -0xc(%ebp),%eax
   8642f:	0f b6 c0             	movzbl %al,%eax
   86432:	52                   	push   %edx
   86433:	50                   	push   %eax
   86434:	6a 20                	push   $0x20
   86436:	e8 47 ff ff ff       	call   86382 <vga_setChar>
   8643b:	83 c4 0c             	add    $0xc,%esp
   8643e:	eb 6d                	jmp    864ad <vga_scroll+0xba>
   86440:	8b 55 ec             	mov    -0x14(%ebp),%edx
   86443:	89 d0                	mov    %edx,%eax
   86445:	c1 e0 02             	shl    $0x2,%eax
   86448:	01 d0                	add    %edx,%eax
   8644a:	c1 e0 04             	shl    $0x4,%eax
   8644d:	89 c2                	mov    %eax,%edx
   8644f:	8b 45 f4             	mov    -0xc(%ebp),%eax
   86452:	01 d0                	add    %edx,%eax
   86454:	01 c0                	add    %eax,%eax
   86456:	89 45 e8             	mov    %eax,-0x18(%ebp)
   86459:	8b 55 f0             	mov    -0x10(%ebp),%edx
   8645c:	89 d0                	mov    %edx,%eax
   8645e:	c1 e0 02             	shl    $0x2,%eax
   86461:	01 d0                	add    %edx,%eax
   86463:	c1 e0 04             	shl    $0x4,%eax
   86466:	89 c2                	mov    %eax,%edx
   86468:	8b 45 f4             	mov    -0xc(%ebp),%eax
   8646b:	01 d0                	add    %edx,%eax
   8646d:	01 c0                	add    %eax,%eax
   8646f:	89 45 e4             	mov    %eax,-0x1c(%ebp)
   86472:	8b 15 c0 ae 08 00    	mov    0x8aec0,%edx
   86478:	8b 45 e8             	mov    -0x18(%ebp),%eax
   8647b:	01 d0                	add    %edx,%eax
   8647d:	8b 0d c0 ae 08 00    	mov    0x8aec0,%ecx
   86483:	8b 55 e4             	mov    -0x1c(%ebp),%edx
   86486:	01 ca                	add    %ecx,%edx
   86488:	0f b6 00             	movzbl (%eax),%eax
   8648b:	88 02                	mov    %al,(%edx)
   8648d:	a1 c0 ae 08 00       	mov    0x8aec0,%eax
   86492:	8b 55 e8             	mov    -0x18(%ebp),%edx
   86495:	83 c2 01             	add    $0x1,%edx
   86498:	01 d0                	add    %edx,%eax
   8649a:	8b 15 c0 ae 08 00    	mov    0x8aec0,%edx
   864a0:	8b 4d e4             	mov    -0x1c(%ebp),%ecx
   864a3:	83 c1 01             	add    $0x1,%ecx
   864a6:	01 ca                	add    %ecx,%edx
   864a8:	0f b6 00             	movzbl (%eax),%eax
   864ab:	88 02                	mov    %al,(%edx)
   864ad:	83 45 f0 01          	addl   $0x1,-0x10(%ebp)
   864b1:	83 7d f0 4f          	cmpl   $0x4f,-0x10(%ebp)
   864b5:	0f 8e 5a ff ff ff    	jle    86415 <vga_scroll+0x22>
   864bb:	83 45 f4 01          	addl   $0x1,-0xc(%ebp)
   864bf:	83 7d f4 4f          	cmpl   $0x4f,-0xc(%ebp)
   864c3:	0f 8e 40 ff ff ff    	jle    86409 <vga_scroll+0x16>
   864c9:	0f b6 05 2d bd 0a 00 	movzbl 0xabd2d,%eax
   864d0:	8b 55 08             	mov    0x8(%ebp),%edx
   864d3:	29 d0                	sub    %edx,%eax
   864d5:	0f b6 d0             	movzbl %al,%edx
   864d8:	0f b6 05 2c bd 0a 00 	movzbl 0xabd2c,%eax
   864df:	0f b6 c0             	movzbl %al,%eax
   864e2:	83 ec 08             	sub    $0x8,%esp
   864e5:	52                   	push   %edx
   864e6:	50                   	push   %eax
   864e7:	e8 07 06 00 00       	call   86af3 <vga_setCursor>
   864ec:	83 c4 10             	add    $0x10,%esp
   864ef:	90                   	nop
   864f0:	c9                   	leave  
   864f1:	c3                   	ret    

000864f2 <vga_writeChar>:
   864f2:	f3 0f 1e fb          	endbr32 
   864f6:	55                   	push   %ebp
   864f7:	89 e5                	mov    %esp,%ebp
   864f9:	83 ec 18             	sub    $0x18,%esp
   864fc:	8b 45 08             	mov    0x8(%ebp),%eax
   864ff:	88 45 f4             	mov    %al,-0xc(%ebp)
   86502:	80 7d f4 0a          	cmpb   $0xa,-0xc(%ebp)
   86506:	74 23                	je     8652b <vga_writeChar+0x39>
   86508:	0f b6 05 2d bd 0a 00 	movzbl 0xabd2d,%eax
   8650f:	0f b6 c8             	movzbl %al,%ecx
   86512:	0f b6 05 2c bd 0a 00 	movzbl 0xabd2c,%eax
   86519:	0f b6 d0             	movzbl %al,%edx
   8651c:	0f be 45 f4          	movsbl -0xc(%ebp),%eax
   86520:	51                   	push   %ecx
   86521:	52                   	push   %edx
   86522:	50                   	push   %eax
   86523:	e8 5a fe ff ff       	call   86382 <vga_setChar>
   86528:	83 c4 0c             	add    $0xc,%esp
   8652b:	0f b6 05 2c bd 0a 00 	movzbl 0xabd2c,%eax
   86532:	83 c0 01             	add    $0x1,%eax
   86535:	a2 2c bd 0a 00       	mov    %al,0xabd2c
   8653a:	0f b6 05 2c bd 0a 00 	movzbl 0xabd2c,%eax
   86541:	3c 4f                	cmp    $0x4f,%al
   86543:	77 06                	ja     8654b <vga_writeChar+0x59>
   86545:	80 7d f4 0a          	cmpb   $0xa,-0xc(%ebp)
   86549:	75 2e                	jne    86579 <vga_writeChar+0x87>
   8654b:	c6 05 2c bd 0a 00 00 	movb   $0x0,0xabd2c
   86552:	0f b6 05 2d bd 0a 00 	movzbl 0xabd2d,%eax
   86559:	83 c0 01             	add    $0x1,%eax
   8655c:	a2 2d bd 0a 00       	mov    %al,0xabd2d
   86561:	0f b6 05 2d bd 0a 00 	movzbl 0xabd2d,%eax
   86568:	3c 18                	cmp    $0x18,%al
   8656a:	76 0d                	jbe    86579 <vga_writeChar+0x87>
   8656c:	83 ec 0c             	sub    $0xc,%esp
   8656f:	6a 01                	push   $0x1
   86571:	e8 7d fe ff ff       	call   863f3 <vga_scroll>
   86576:	83 c4 10             	add    $0x10,%esp
   86579:	0f b6 05 2d bd 0a 00 	movzbl 0xabd2d,%eax
   86580:	0f b6 d0             	movzbl %al,%edx
   86583:	0f b6 05 2c bd 0a 00 	movzbl 0xabd2c,%eax
   8658a:	0f b6 c0             	movzbl %al,%eax
   8658d:	83 ec 08             	sub    $0x8,%esp
   86590:	52                   	push   %edx
   86591:	50                   	push   %eax
   86592:	e8 5c 05 00 00       	call   86af3 <vga_setCursor>
   86597:	83 c4 10             	add    $0x10,%esp
   8659a:	90                   	nop
   8659b:	c9                   	leave  
   8659c:	c3                   	ret    

0008659d <vga_setColor>:
   8659d:	f3 0f 1e fb          	endbr32 
   865a1:	55                   	push   %ebp
   865a2:	89 e5                	mov    %esp,%ebp
   865a4:	83 ec 08             	sub    $0x8,%esp
   865a7:	8b 55 08             	mov    0x8(%ebp),%edx
   865aa:	8b 45 0c             	mov    0xc(%ebp),%eax
   865ad:	88 55 fc             	mov    %dl,-0x4(%ebp)
   865b0:	88 45 f8             	mov    %al,-0x8(%ebp)
   865b3:	0f b6 45 f8          	movzbl -0x8(%ebp),%eax
   865b7:	c1 e0 04             	shl    $0x4,%eax
   865ba:	89 c2                	mov    %eax,%edx
   865bc:	0f b6 45 fc          	movzbl -0x4(%ebp),%eax
   865c0:	01 d0                	add    %edx,%eax
   865c2:	a2 c4 ae 08 00       	mov    %al,0x8aec4
   865c7:	90                   	nop
   865c8:	c9                   	leave  
   865c9:	c3                   	ret    

000865ca <vga_writeText>:
   865ca:	f3 0f 1e fb          	endbr32 
   865ce:	55                   	push   %ebp
   865cf:	89 e5                	mov    %esp,%ebp
   865d1:	83 ec 18             	sub    $0x18,%esp
   865d4:	c7 45 f4 00 00 00 00 	movl   $0x0,-0xc(%ebp)
   865db:	eb 1e                	jmp    865fb <vga_writeText+0x31>
   865dd:	8b 55 f4             	mov    -0xc(%ebp),%edx
   865e0:	8b 45 08             	mov    0x8(%ebp),%eax
   865e3:	01 d0                	add    %edx,%eax
   865e5:	0f b6 00             	movzbl (%eax),%eax
   865e8:	0f be c0             	movsbl %al,%eax
   865eb:	83 ec 0c             	sub    $0xc,%esp
   865ee:	50                   	push   %eax
   865ef:	e8 fe fe ff ff       	call   864f2 <vga_writeChar>
   865f4:	83 c4 10             	add    $0x10,%esp
   865f7:	83 45 f4 01          	addl   $0x1,-0xc(%ebp)
   865fb:	8b 55 f4             	mov    -0xc(%ebp),%edx
   865fe:	8b 45 08             	mov    0x8(%ebp),%eax
   86601:	01 d0                	add    %edx,%eax
   86603:	0f b6 00             	movzbl (%eax),%eax
   86606:	84 c0                	test   %al,%al
   86608:	75 d3                	jne    865dd <vga_writeText+0x13>
   8660a:	90                   	nop
   8660b:	90                   	nop
   8660c:	c9                   	leave  
   8660d:	c3                   	ret    

0008660e <vga_print>:
   8660e:	f3 0f 1e fb          	endbr32 
   86612:	55                   	push   %ebp
   86613:	89 e5                	mov    %esp,%ebp
   86615:	83 ec 08             	sub    $0x8,%esp
   86618:	83 ec 0c             	sub    $0xc,%esp
   8661b:	ff 75 08             	pushl  0x8(%ebp)
   8661e:	e8 a7 ff ff ff       	call   865ca <vga_writeText>
   86623:	83 c4 10             	add    $0x10,%esp
   86626:	83 ec 0c             	sub    $0xc,%esp
   86629:	6a 0a                	push   $0xa
   8662b:	e8 c2 fe ff ff       	call   864f2 <vga_writeChar>
   86630:	83 c4 10             	add    $0x10,%esp
   86633:	90                   	nop
   86634:	c9                   	leave  
   86635:	c3                   	ret    

00086636 <vga_writeByte>:
   86636:	f3 0f 1e fb          	endbr32 
   8663a:	55                   	push   %ebp
   8663b:	89 e5                	mov    %esp,%ebp
   8663d:	83 ec 18             	sub    $0x18,%esp
   86640:	8b 45 08             	mov    0x8(%ebp),%eax
   86643:	88 45 f4             	mov    %al,-0xc(%ebp)
   86646:	8b 15 c8 ae 08 00    	mov    0x8aec8,%edx
   8664c:	0f b6 45 f4          	movzbl -0xc(%ebp),%eax
   86650:	c0 e8 04             	shr    $0x4,%al
   86653:	0f b6 c0             	movzbl %al,%eax
   86656:	01 d0                	add    %edx,%eax
   86658:	0f b6 00             	movzbl (%eax),%eax
   8665b:	0f be c0             	movsbl %al,%eax
   8665e:	83 ec 0c             	sub    $0xc,%esp
   86661:	50                   	push   %eax
   86662:	e8 8b fe ff ff       	call   864f2 <vga_writeChar>
   86667:	83 c4 10             	add    $0x10,%esp
   8666a:	a1 c8 ae 08 00       	mov    0x8aec8,%eax
   8666f:	0f b6 55 f4          	movzbl -0xc(%ebp),%edx
   86673:	83 e2 0f             	and    $0xf,%edx
   86676:	01 d0                	add    %edx,%eax
   86678:	0f b6 00             	movzbl (%eax),%eax
   8667b:	0f be c0             	movsbl %al,%eax
   8667e:	83 ec 0c             	sub    $0xc,%esp
   86681:	50                   	push   %eax
   86682:	e8 6b fe ff ff       	call   864f2 <vga_writeChar>
   86687:	83 c4 10             	add    $0x10,%esp
   8668a:	90                   	nop
   8668b:	c9                   	leave  
   8668c:	c3                   	ret    

0008668d <vga_writeWord>:
   8668d:	f3 0f 1e fb          	endbr32 
   86691:	55                   	push   %ebp
   86692:	89 e5                	mov    %esp,%ebp
   86694:	83 ec 18             	sub    $0x18,%esp
   86697:	8b 45 08             	mov    0x8(%ebp),%eax
   8669a:	66 89 45 f4          	mov    %ax,-0xc(%ebp)
   8669e:	0f b7 45 f4          	movzwl -0xc(%ebp),%eax
   866a2:	66 c1 e8 08          	shr    $0x8,%ax
   866a6:	0f b6 c0             	movzbl %al,%eax
   866a9:	83 ec 0c             	sub    $0xc,%esp
   866ac:	50                   	push   %eax
   866ad:	e8 84 ff ff ff       	call   86636 <vga_writeByte>
   866b2:	83 c4 10             	add    $0x10,%esp
   866b5:	0f b7 45 f4          	movzwl -0xc(%ebp),%eax
   866b9:	0f b6 c0             	movzbl %al,%eax
   866bc:	83 ec 0c             	sub    $0xc,%esp
   866bf:	50                   	push   %eax
   866c0:	e8 71 ff ff ff       	call   86636 <vga_writeByte>
   866c5:	83 c4 10             	add    $0x10,%esp
   866c8:	90                   	nop
   866c9:	c9                   	leave  
   866ca:	c3                   	ret    

000866cb <vga_writeDWord>:
   866cb:	f3 0f 1e fb          	endbr32 
   866cf:	55                   	push   %ebp
   866d0:	89 e5                	mov    %esp,%ebp
   866d2:	83 ec 08             	sub    $0x8,%esp
   866d5:	8b 45 08             	mov    0x8(%ebp),%eax
   866d8:	c1 e8 10             	shr    $0x10,%eax
   866db:	0f b7 c0             	movzwl %ax,%eax
   866de:	83 ec 0c             	sub    $0xc,%esp
   866e1:	50                   	push   %eax
   866e2:	e8 a6 ff ff ff       	call   8668d <vga_writeWord>
   866e7:	83 c4 10             	add    $0x10,%esp
   866ea:	8b 45 08             	mov    0x8(%ebp),%eax
   866ed:	0f b7 c0             	movzwl %ax,%eax
   866f0:	83 ec 0c             	sub    $0xc,%esp
   866f3:	50                   	push   %eax
   866f4:	e8 94 ff ff ff       	call   8668d <vga_writeWord>
   866f9:	83 c4 10             	add    $0x10,%esp
   866fc:	90                   	nop
   866fd:	c9                   	leave  
   866fe:	c3                   	ret    

000866ff <vga_seek>:
   866ff:	f3 0f 1e fb          	endbr32 
   86703:	55                   	push   %ebp
   86704:	89 e5                	mov    %esp,%ebp
   86706:	83 ec 10             	sub    $0x10,%esp
   86709:	83 7d 0c 03          	cmpl   $0x3,0xc(%ebp)
   8670d:	74 27                	je     86736 <vga_seek+0x37>
   8670f:	83 7d 0c 03          	cmpl   $0x3,0xc(%ebp)
   86713:	7f 2b                	jg     86740 <vga_seek+0x41>
   86715:	83 7d 0c 01          	cmpl   $0x1,0xc(%ebp)
   86719:	74 08                	je     86723 <vga_seek+0x24>
   8671b:	83 7d 0c 02          	cmpl   $0x2,0xc(%ebp)
   8671f:	74 0b                	je     8672c <vga_seek+0x2d>
   86721:	eb 1d                	jmp    86740 <vga_seek+0x41>
   86723:	c7 45 fc 00 00 00 00 	movl   $0x0,-0x4(%ebp)
   8672a:	eb 1b                	jmp    86747 <vga_seek+0x48>
   8672c:	a1 30 bd 0a 00       	mov    0xabd30,%eax
   86731:	89 45 fc             	mov    %eax,-0x4(%ebp)
   86734:	eb 11                	jmp    86747 <vga_seek+0x48>
   86736:	a1 cc ae 08 00       	mov    0x8aecc,%eax
   8673b:	89 45 fc             	mov    %eax,-0x4(%ebp)
   8673e:	eb 07                	jmp    86747 <vga_seek+0x48>
   86740:	b8 01 00 00 00       	mov    $0x1,%eax
   86745:	eb 26                	jmp    8676d <vga_seek+0x6e>
   86747:	8b 45 08             	mov    0x8(%ebp),%eax
   8674a:	01 45 fc             	add    %eax,-0x4(%ebp)
   8674d:	8b 55 fc             	mov    -0x4(%ebp),%edx
   86750:	a1 cc ae 08 00       	mov    0x8aecc,%eax
   86755:	39 c2                	cmp    %eax,%edx
   86757:	72 07                	jb     86760 <vga_seek+0x61>
   86759:	b8 01 00 00 00       	mov    $0x1,%eax
   8675e:	eb 0d                	jmp    8676d <vga_seek+0x6e>
   86760:	8b 45 fc             	mov    -0x4(%ebp),%eax
   86763:	a3 30 bd 0a 00       	mov    %eax,0xabd30
   86768:	b8 00 00 00 00       	mov    $0x0,%eax
   8676d:	c9                   	leave  
   8676e:	c3                   	ret    

0008676f <vga_tell>:
   8676f:	f3 0f 1e fb          	endbr32 
   86773:	55                   	push   %ebp
   86774:	89 e5                	mov    %esp,%ebp
   86776:	a1 30 bd 0a 00       	mov    0xabd30,%eax
   8677b:	5d                   	pop    %ebp
   8677c:	c3                   	ret    

0008677d <vga_read>:
   8677d:	f3 0f 1e fb          	endbr32 
   86781:	55                   	push   %ebp
   86782:	89 e5                	mov    %esp,%ebp
   86784:	83 ec 08             	sub    $0x8,%esp
   86787:	8b 15 30 bd 0a 00    	mov    0xabd30,%edx
   8678d:	8b 45 0c             	mov    0xc(%ebp),%eax
   86790:	01 c2                	add    %eax,%edx
   86792:	a1 cc ae 08 00       	mov    0x8aecc,%eax
   86797:	39 c2                	cmp    %eax,%edx
   86799:	72 12                	jb     867ad <vga_read+0x30>
   8679b:	8b 15 cc ae 08 00    	mov    0x8aecc,%edx
   867a1:	a1 30 bd 0a 00       	mov    0xabd30,%eax
   867a6:	29 c2                	sub    %eax,%edx
   867a8:	89 d0                	mov    %edx,%eax
   867aa:	89 45 0c             	mov    %eax,0xc(%ebp)
   867ad:	8b 45 0c             	mov    0xc(%ebp),%eax
   867b0:	8b 0d c0 ae 08 00    	mov    0x8aec0,%ecx
   867b6:	8b 15 30 bd 0a 00    	mov    0xabd30,%edx
   867bc:	01 ca                	add    %ecx,%edx
   867be:	83 ec 04             	sub    $0x4,%esp
   867c1:	50                   	push   %eax
   867c2:	52                   	push   %edx
   867c3:	ff 75 08             	pushl  0x8(%ebp)
   867c6:	e8 74 c9 ff ff       	call   8313f <memcpy>
   867cb:	83 c4 10             	add    $0x10,%esp
   867ce:	8b 15 30 bd 0a 00    	mov    0xabd30,%edx
   867d4:	8b 45 0c             	mov    0xc(%ebp),%eax
   867d7:	01 d0                	add    %edx,%eax
   867d9:	a3 30 bd 0a 00       	mov    %eax,0xabd30
   867de:	8b 45 0c             	mov    0xc(%ebp),%eax
   867e1:	c9                   	leave  
   867e2:	c3                   	ret    

000867e3 <vga_write>:
   867e3:	f3 0f 1e fb          	endbr32 
   867e7:	55                   	push   %ebp
   867e8:	89 e5                	mov    %esp,%ebp
   867ea:	83 ec 08             	sub    $0x8,%esp
   867ed:	8b 15 30 bd 0a 00    	mov    0xabd30,%edx
   867f3:	8b 45 0c             	mov    0xc(%ebp),%eax
   867f6:	01 c2                	add    %eax,%edx
   867f8:	a1 cc ae 08 00       	mov    0x8aecc,%eax
   867fd:	39 c2                	cmp    %eax,%edx
   867ff:	72 12                	jb     86813 <vga_write+0x30>
   86801:	8b 15 cc ae 08 00    	mov    0x8aecc,%edx
   86807:	a1 30 bd 0a 00       	mov    0xabd30,%eax
   8680c:	29 c2                	sub    %eax,%edx
   8680e:	89 d0                	mov    %edx,%eax
   86810:	89 45 0c             	mov    %eax,0xc(%ebp)
   86813:	8b 45 0c             	mov    0xc(%ebp),%eax
   86816:	8b 0d c0 ae 08 00    	mov    0x8aec0,%ecx
   8681c:	8b 15 30 bd 0a 00    	mov    0xabd30,%edx
   86822:	01 ca                	add    %ecx,%edx
   86824:	83 ec 04             	sub    $0x4,%esp
   86827:	50                   	push   %eax
   86828:	ff 75 08             	pushl  0x8(%ebp)
   8682b:	52                   	push   %edx
   8682c:	e8 0e c9 ff ff       	call   8313f <memcpy>
   86831:	83 c4 10             	add    $0x10,%esp
   86834:	8b 15 30 bd 0a 00    	mov    0xabd30,%edx
   8683a:	8b 45 0c             	mov    0xc(%ebp),%eax
   8683d:	01 d0                	add    %edx,%eax
   8683f:	a3 30 bd 0a 00       	mov    %eax,0xabd30
   86844:	8b 45 0c             	mov    0xc(%ebp),%eax
   86847:	c9                   	leave  
   86848:	c3                   	ret    

00086849 <vga_get>:
   86849:	f3 0f 1e fb          	endbr32 
   8684d:	55                   	push   %ebp
   8684e:	89 e5                	mov    %esp,%ebp
   86850:	83 7d 08 05          	cmpl   $0x5,0x8(%ebp)
   86854:	77 49                	ja     8689f <vga_get+0x56>
   86856:	8b 45 08             	mov    0x8(%ebp),%eax
   86859:	c1 e0 02             	shl    $0x2,%eax
   8685c:	05 b0 1e 08 00       	add    $0x81eb0,%eax
   86861:	8b 00                	mov    (%eax),%eax
   86863:	3e ff e0             	notrack jmp *%eax
   86866:	b8 00 00 00 00       	mov    $0x0,%eax
   8686b:	eb 37                	jmp    868a4 <vga_get+0x5b>
   8686d:	b8 50 00 00 00       	mov    $0x50,%eax
   86872:	eb 30                	jmp    868a4 <vga_get+0x5b>
   86874:	b8 19 00 00 00       	mov    $0x19,%eax
   86879:	eb 29                	jmp    868a4 <vga_get+0x5b>
   8687b:	0f b6 05 2e bd 0a 00 	movzbl 0xabd2e,%eax
   86882:	0f b6 c0             	movzbl %al,%eax
   86885:	eb 1d                	jmp    868a4 <vga_get+0x5b>
   86887:	0f b6 05 2c bd 0a 00 	movzbl 0xabd2c,%eax
   8688e:	0f b6 c0             	movzbl %al,%eax
   86891:	eb 11                	jmp    868a4 <vga_get+0x5b>
   86893:	0f b6 05 2d bd 0a 00 	movzbl 0xabd2d,%eax
   8689a:	0f b6 c0             	movzbl %al,%eax
   8689d:	eb 05                	jmp    868a4 <vga_get+0x5b>
   8689f:	b8 ff ff ff ff       	mov    $0xffffffff,%eax
   868a4:	5d                   	pop    %ebp
   868a5:	c3                   	ret    

000868a6 <vga_set>:
   868a6:	f3 0f 1e fb          	endbr32 
   868aa:	55                   	push   %ebp
   868ab:	89 e5                	mov    %esp,%ebp
   868ad:	83 ec 08             	sub    $0x8,%esp
   868b0:	83 7d 08 05          	cmpl   $0x5,0x8(%ebp)
   868b4:	74 70                	je     86926 <vga_set+0x80>
   868b6:	83 7d 08 05          	cmpl   $0x5,0x8(%ebp)
   868ba:	0f 8f 8a 00 00 00    	jg     8694a <vga_set+0xa4>
   868c0:	83 7d 08 04          	cmpl   $0x4,0x8(%ebp)
   868c4:	74 3c                	je     86902 <vga_set+0x5c>
   868c6:	83 7d 08 04          	cmpl   $0x4,0x8(%ebp)
   868ca:	7f 7e                	jg     8694a <vga_set+0xa4>
   868cc:	83 7d 08 02          	cmpl   $0x2,0x8(%ebp)
   868d0:	7f 08                	jg     868da <vga_set+0x34>
   868d2:	83 7d 08 00          	cmpl   $0x0,0x8(%ebp)
   868d6:	79 0a                	jns    868e2 <vga_set+0x3c>
   868d8:	eb 70                	jmp    8694a <vga_set+0xa4>
   868da:	83 7d 08 03          	cmpl   $0x3,0x8(%ebp)
   868de:	74 09                	je     868e9 <vga_set+0x43>
   868e0:	eb 68                	jmp    8694a <vga_set+0xa4>
   868e2:	b8 ff ff ff ff       	mov    $0xffffffff,%eax
   868e7:	eb 66                	jmp    8694f <vga_set+0xa9>
   868e9:	83 7d 0c 00          	cmpl   $0x0,0xc(%ebp)
   868ed:	74 07                	je     868f6 <vga_set+0x50>
   868ef:	e8 7d 02 00 00       	call   86b71 <vga_showCursor>
   868f4:	eb 05                	jmp    868fb <vga_set+0x55>
   868f6:	e8 ed 02 00 00       	call   86be8 <vga_hideCursor>
   868fb:	b8 00 00 00 00       	mov    $0x0,%eax
   86900:	eb 4d                	jmp    8694f <vga_set+0xa9>
   86902:	0f b6 05 2d bd 0a 00 	movzbl 0xabd2d,%eax
   86909:	0f b6 d0             	movzbl %al,%edx
   8690c:	8b 45 0c             	mov    0xc(%ebp),%eax
   8690f:	0f b6 c0             	movzbl %al,%eax
   86912:	83 ec 08             	sub    $0x8,%esp
   86915:	52                   	push   %edx
   86916:	50                   	push   %eax
   86917:	e8 d7 01 00 00       	call   86af3 <vga_setCursor>
   8691c:	83 c4 10             	add    $0x10,%esp
   8691f:	b8 00 00 00 00       	mov    $0x0,%eax
   86924:	eb 29                	jmp    8694f <vga_set+0xa9>
   86926:	8b 45 0c             	mov    0xc(%ebp),%eax
   86929:	0f b6 d0             	movzbl %al,%edx
   8692c:	0f b6 05 2c bd 0a 00 	movzbl 0xabd2c,%eax
   86933:	0f b6 c0             	movzbl %al,%eax
   86936:	83 ec 08             	sub    $0x8,%esp
   86939:	52                   	push   %edx
   8693a:	50                   	push   %eax
   8693b:	e8 b3 01 00 00       	call   86af3 <vga_setCursor>
   86940:	83 c4 10             	add    $0x10,%esp
   86943:	b8 00 00 00 00       	mov    $0x0,%eax
   86948:	eb 05                	jmp    8694f <vga_set+0xa9>
   8694a:	b8 ff ff ff ff       	mov    $0xffffffff,%eax
   8694f:	c9                   	leave  
   86950:	c3                   	ret    

00086951 <vga_open>:
   86951:	f3 0f 1e fb          	endbr32 
   86955:	55                   	push   %ebp
   86956:	89 e5                	mov    %esp,%ebp
   86958:	83 ec 18             	sub    $0x18,%esp
   8695b:	8b 15 cc ae 08 00    	mov    0x8aecc,%edx
   86961:	a1 c0 ae 08 00       	mov    0x8aec0,%eax
   86966:	83 ec 04             	sub    $0x4,%esp
   86969:	6a 01                	push   $0x1
   8696b:	52                   	push   %edx
   8696c:	50                   	push   %eax
   8696d:	e8 cb 32 00 00       	call   89c3d <fd_createBuffer>
   86972:	83 c4 10             	add    $0x10,%esp
   86975:	89 45 f4             	mov    %eax,-0xc(%ebp)
   86978:	83 7d f4 00          	cmpl   $0x0,-0xc(%ebp)
   8697c:	75 07                	jne    86985 <vga_open+0x34>
   8697e:	b8 00 00 00 00       	mov    $0x0,%eax
   86983:	eb 50                	jmp    869d5 <vga_open+0x84>
   86985:	e8 f8 39 00 00       	call   8a382 <task_getCurrent>
   8698a:	89 45 f0             	mov    %eax,-0x10(%ebp)
   8698d:	83 7d f0 00          	cmpl   $0x0,-0x10(%ebp)
   86991:	75 15                	jne    869a8 <vga_open+0x57>
   86993:	83 ec 0c             	sub    $0xc,%esp
   86996:	ff 75 f4             	pushl  -0xc(%ebp)
   86999:	e8 41 d3 ff ff       	call   83cdf <kfree>
   8699e:	83 c4 10             	add    $0x10,%esp
   869a1:	b8 00 00 00 00       	mov    $0x0,%eax
   869a6:	eb 2d                	jmp    869d5 <vga_open+0x84>
   869a8:	83 ec 08             	sub    $0x8,%esp
   869ab:	ff 75 f4             	pushl  -0xc(%ebp)
   869ae:	ff 75 f0             	pushl  -0x10(%ebp)
   869b1:	e8 da 39 00 00       	call   8a390 <task_attach>
   869b6:	83 c4 10             	add    $0x10,%esp
   869b9:	85 c0                	test   %eax,%eax
   869bb:	74 15                	je     869d2 <vga_open+0x81>
   869bd:	83 ec 0c             	sub    $0xc,%esp
   869c0:	ff 75 f4             	pushl  -0xc(%ebp)
   869c3:	e8 17 d3 ff ff       	call   83cdf <kfree>
   869c8:	83 c4 10             	add    $0x10,%esp
   869cb:	b8 00 00 00 00       	mov    $0x0,%eax
   869d0:	eb 03                	jmp    869d5 <vga_open+0x84>
   869d2:	8b 45 f4             	mov    -0xc(%ebp),%eax
   869d5:	c9                   	leave  
   869d6:	c3                   	ret    

000869d7 <vga_writeInteger>:
   869d7:	f3 0f 1e fb          	endbr32 
   869db:	55                   	push   %ebp
   869dc:	89 e5                	mov    %esp,%ebp
   869de:	53                   	push   %ebx
   869df:	83 ec 14             	sub    $0x14,%esp
   869e2:	83 7d 08 00          	cmpl   $0x0,0x8(%ebp)
   869e6:	75 12                	jne    869fa <vga_writeInteger+0x23>
   869e8:	83 ec 0c             	sub    $0xc,%esp
   869eb:	6a 30                	push   $0x30
   869ed:	e8 00 fb ff ff       	call   864f2 <vga_writeChar>
   869f2:	83 c4 10             	add    $0x10,%esp
   869f5:	e9 aa 00 00 00       	jmp    86aa4 <vga_writeInteger+0xcd>
   869fa:	83 7d 08 00          	cmpl   $0x0,0x8(%ebp)
   869fe:	79 10                	jns    86a10 <vga_writeInteger+0x39>
   86a00:	83 ec 0c             	sub    $0xc,%esp
   86a03:	6a 2d                	push   $0x2d
   86a05:	e8 e8 fa ff ff       	call   864f2 <vga_writeChar>
   86a0a:	83 c4 10             	add    $0x10,%esp
   86a0d:	f7 5d 08             	negl   0x8(%ebp)
   86a10:	c7 45 f4 00 00 00 00 	movl   $0x0,-0xc(%ebp)
   86a17:	eb 61                	jmp    86a7a <vga_writeInteger+0xa3>
   86a19:	8b 1d c8 ae 08 00    	mov    0x8aec8,%ebx
   86a1f:	8b 4d 08             	mov    0x8(%ebp),%ecx
   86a22:	ba 67 66 66 66       	mov    $0x66666667,%edx
   86a27:	89 c8                	mov    %ecx,%eax
   86a29:	f7 ea                	imul   %edx
   86a2b:	c1 fa 02             	sar    $0x2,%edx
   86a2e:	89 c8                	mov    %ecx,%eax
   86a30:	c1 f8 1f             	sar    $0x1f,%eax
   86a33:	29 c2                	sub    %eax,%edx
   86a35:	89 d0                	mov    %edx,%eax
   86a37:	c1 e0 02             	shl    $0x2,%eax
   86a3a:	01 d0                	add    %edx,%eax
   86a3c:	01 c0                	add    %eax,%eax
   86a3e:	29 c1                	sub    %eax,%ecx
   86a40:	89 ca                	mov    %ecx,%edx
   86a42:	89 d0                	mov    %edx,%eax
   86a44:	01 d8                	add    %ebx,%eax
   86a46:	8b 55 f4             	mov    -0xc(%ebp),%edx
   86a49:	b9 12 00 00 00       	mov    $0x12,%ecx
   86a4e:	29 d1                	sub    %edx,%ecx
   86a50:	89 ca                	mov    %ecx,%edx
   86a52:	0f b6 00             	movzbl (%eax),%eax
   86a55:	88 82 34 bd 0a 00    	mov    %al,0xabd34(%edx)
   86a5b:	8b 4d 08             	mov    0x8(%ebp),%ecx
   86a5e:	ba 67 66 66 66       	mov    $0x66666667,%edx
   86a63:	89 c8                	mov    %ecx,%eax
   86a65:	f7 ea                	imul   %edx
   86a67:	c1 fa 02             	sar    $0x2,%edx
   86a6a:	89 c8                	mov    %ecx,%eax
   86a6c:	c1 f8 1f             	sar    $0x1f,%eax
   86a6f:	29 c2                	sub    %eax,%edx
   86a71:	89 d0                	mov    %edx,%eax
   86a73:	89 45 08             	mov    %eax,0x8(%ebp)
   86a76:	83 45 f4 01          	addl   $0x1,-0xc(%ebp)
   86a7a:	83 7d 08 00          	cmpl   $0x0,0x8(%ebp)
   86a7e:	75 99                	jne    86a19 <vga_writeInteger+0x42>
   86a80:	c6 05 47 bd 0a 00 00 	movb   $0x0,0xabd47
   86a87:	8b 45 f4             	mov    -0xc(%ebp),%eax
   86a8a:	ba 13 00 00 00       	mov    $0x13,%edx
   86a8f:	29 c2                	sub    %eax,%edx
   86a91:	89 d0                	mov    %edx,%eax
   86a93:	05 34 bd 0a 00       	add    $0xabd34,%eax
   86a98:	83 ec 0c             	sub    $0xc,%esp
   86a9b:	50                   	push   %eax
   86a9c:	e8 29 fb ff ff       	call   865ca <vga_writeText>
   86aa1:	83 c4 10             	add    $0x10,%esp
   86aa4:	8b 5d fc             	mov    -0x4(%ebp),%ebx
   86aa7:	c9                   	leave  
   86aa8:	c3                   	ret    

00086aa9 <vga_clear>:
   86aa9:	f3 0f 1e fb          	endbr32 
   86aad:	55                   	push   %ebp
   86aae:	89 e5                	mov    %esp,%ebp
   86ab0:	83 ec 10             	sub    $0x10,%esp
   86ab3:	c7 45 fc 00 00 00 00 	movl   $0x0,-0x4(%ebp)
   86aba:	eb 2a                	jmp    86ae6 <vga_clear+0x3d>
   86abc:	8b 15 c0 ae 08 00    	mov    0x8aec0,%edx
   86ac2:	8b 45 fc             	mov    -0x4(%ebp),%eax
   86ac5:	01 d0                	add    %edx,%eax
   86ac7:	c6 00 20             	movb   $0x20,(%eax)
   86aca:	0f b6 0d c4 ae 08 00 	movzbl 0x8aec4,%ecx
   86ad1:	a1 c0 ae 08 00       	mov    0x8aec0,%eax
   86ad6:	8b 55 fc             	mov    -0x4(%ebp),%edx
   86ad9:	83 c2 01             	add    $0x1,%edx
   86adc:	01 d0                	add    %edx,%eax
   86ade:	89 ca                	mov    %ecx,%edx
   86ae0:	88 10                	mov    %dl,(%eax)
   86ae2:	83 45 fc 02          	addl   $0x2,-0x4(%ebp)
   86ae6:	81 7d fc 9f 0f 00 00 	cmpl   $0xf9f,-0x4(%ebp)
   86aed:	7e cd                	jle    86abc <vga_clear+0x13>
   86aef:	90                   	nop
   86af0:	90                   	nop
   86af1:	c9                   	leave  
   86af2:	c3                   	ret    

00086af3 <vga_setCursor>:
   86af3:	f3 0f 1e fb          	endbr32 
   86af7:	55                   	push   %ebp
   86af8:	89 e5                	mov    %esp,%ebp
   86afa:	83 ec 18             	sub    $0x18,%esp
   86afd:	8b 55 08             	mov    0x8(%ebp),%edx
   86b00:	8b 45 0c             	mov    0xc(%ebp),%eax
   86b03:	88 55 ec             	mov    %dl,-0x14(%ebp)
   86b06:	88 45 e8             	mov    %al,-0x18(%ebp)
   86b09:	0f b6 45 ec          	movzbl -0x14(%ebp),%eax
   86b0d:	a2 2c bd 0a 00       	mov    %al,0xabd2c
   86b12:	0f b6 45 e8          	movzbl -0x18(%ebp),%eax
   86b16:	a2 2d bd 0a 00       	mov    %al,0xabd2d
   86b1b:	0f b6 55 e8          	movzbl -0x18(%ebp),%edx
   86b1f:	89 d0                	mov    %edx,%eax
   86b21:	c1 e0 02             	shl    $0x2,%eax
   86b24:	01 d0                	add    %edx,%eax
   86b26:	c1 e0 04             	shl    $0x4,%eax
   86b29:	89 c2                	mov    %eax,%edx
   86b2b:	0f b6 45 ec          	movzbl -0x14(%ebp),%eax
   86b2f:	01 d0                	add    %edx,%eax
   86b31:	66 89 45 fe          	mov    %ax,-0x2(%ebp)
   86b35:	6a 0f                	push   $0xf
   86b37:	68 d4 03 00 00       	push   $0x3d4
   86b3c:	e8 03 f8 ff ff       	call   86344 <outb>
   86b41:	83 c4 08             	add    $0x8,%esp
   86b44:	b8 00 80 0b 00       	mov    $0xb8000,%eax
   86b49:	c7 00 4f 2f 4b 2f    	movl   $0x2f4b2f4f,(%eax)
   86b4f:	eb fe                	jmp    86b4f <vga_setCursor+0x5c>

00086b51 <vga_getCursorX>:
   86b51:	f3 0f 1e fb          	endbr32 
   86b55:	55                   	push   %ebp
   86b56:	89 e5                	mov    %esp,%ebp
   86b58:	0f b6 05 2c bd 0a 00 	movzbl 0xabd2c,%eax
   86b5f:	5d                   	pop    %ebp
   86b60:	c3                   	ret    

00086b61 <vga_getCursorY>:
   86b61:	f3 0f 1e fb          	endbr32 
   86b65:	55                   	push   %ebp
   86b66:	89 e5                	mov    %esp,%ebp
   86b68:	0f b6 05 2d bd 0a 00 	movzbl 0xabd2d,%eax
   86b6f:	5d                   	pop    %ebp
   86b70:	c3                   	ret    

00086b71 <vga_showCursor>:
   86b71:	f3 0f 1e fb          	endbr32 
   86b75:	55                   	push   %ebp
   86b76:	89 e5                	mov    %esp,%ebp
   86b78:	6a 0a                	push   $0xa
   86b7a:	68 d4 03 00 00       	push   $0x3d4
   86b7f:	e8 c0 f7 ff ff       	call   86344 <outb>
   86b84:	83 c4 08             	add    $0x8,%esp
   86b87:	68 d5 03 00 00       	push   $0x3d5
   86b8c:	e8 d4 f7 ff ff       	call   86365 <inb>
   86b91:	83 c4 04             	add    $0x4,%esp
   86b94:	83 e0 c0             	and    $0xffffffc0,%eax
   86b97:	83 c8 0e             	or     $0xe,%eax
   86b9a:	0f b6 c0             	movzbl %al,%eax
   86b9d:	50                   	push   %eax
   86b9e:	68 d5 03 00 00       	push   $0x3d5
   86ba3:	e8 9c f7 ff ff       	call   86344 <outb>
   86ba8:	83 c4 08             	add    $0x8,%esp
   86bab:	6a 0b                	push   $0xb
   86bad:	68 d4 03 00 00       	push   $0x3d4
   86bb2:	e8 8d f7 ff ff       	call   86344 <outb>
   86bb7:	83 c4 08             	add    $0x8,%esp
   86bba:	68 d5 03 00 00       	push   $0x3d5
   86bbf:	e8 a1 f7 ff ff       	call   86365 <inb>
   86bc4:	83 c4 04             	add    $0x4,%esp
   86bc7:	83 e0 e0             	and    $0xffffffe0,%eax
   86bca:	83 c8 0f             	or     $0xf,%eax
   86bcd:	0f b6 c0             	movzbl %al,%eax
   86bd0:	50                   	push   %eax
   86bd1:	68 d5 03 00 00       	push   $0x3d5
   86bd6:	e8 69 f7 ff ff       	call   86344 <outb>
   86bdb:	83 c4 08             	add    $0x8,%esp
   86bde:	c6 05 2e bd 0a 00 01 	movb   $0x1,0xabd2e
   86be5:	90                   	nop
   86be6:	c9                   	leave  
   86be7:	c3                   	ret    

00086be8 <vga_hideCursor>:
   86be8:	f3 0f 1e fb          	endbr32 
   86bec:	55                   	push   %ebp
   86bed:	89 e5                	mov    %esp,%ebp
   86bef:	6a 0a                	push   $0xa
   86bf1:	68 d4 03 00 00       	push   $0x3d4
   86bf6:	e8 49 f7 ff ff       	call   86344 <outb>
   86bfb:	83 c4 08             	add    $0x8,%esp
   86bfe:	6a 20                	push   $0x20
   86c00:	68 d5 03 00 00       	push   $0x3d5
   86c05:	e8 3a f7 ff ff       	call   86344 <outb>
   86c0a:	83 c4 08             	add    $0x8,%esp
   86c0d:	c6 05 2e bd 0a 00 00 	movb   $0x0,0xabd2e
   86c14:	90                   	nop
   86c15:	c9                   	leave  
   86c16:	c3                   	ret    

00086c17 <vga_hexDump>:
   86c17:	f3 0f 1e fb          	endbr32 
   86c1b:	55                   	push   %ebp
   86c1c:	89 e5                	mov    %esp,%ebp
   86c1e:	83 ec 28             	sub    $0x28,%esp
   86c21:	8b 45 0c             	mov    0xc(%ebp),%eax
   86c24:	8d 50 0f             	lea    0xf(%eax),%edx
   86c27:	85 c0                	test   %eax,%eax
   86c29:	0f 48 c2             	cmovs  %edx,%eax
   86c2c:	c1 f8 04             	sar    $0x4,%eax
   86c2f:	89 c2                	mov    %eax,%edx
   86c31:	8b 45 0c             	mov    0xc(%ebp),%eax
   86c34:	83 e0 0f             	and    $0xf,%eax
   86c37:	85 c0                	test   %eax,%eax
   86c39:	0f 95 c0             	setne  %al
   86c3c:	0f b6 c0             	movzbl %al,%eax
   86c3f:	01 d0                	add    %edx,%eax
   86c41:	89 45 e0             	mov    %eax,-0x20(%ebp)
   86c44:	c7 45 f4 00 00 00 00 	movl   $0x0,-0xc(%ebp)
   86c4b:	e9 07 01 00 00       	jmp    86d57 <vga_hexDump+0x140>
   86c50:	8b 45 f4             	mov    -0xc(%ebp),%eax
   86c53:	c1 e0 04             	shl    $0x4,%eax
   86c56:	89 c2                	mov    %eax,%edx
   86c58:	8b 45 08             	mov    0x8(%ebp),%eax
   86c5b:	01 d0                	add    %edx,%eax
   86c5d:	83 ec 0c             	sub    $0xc,%esp
   86c60:	50                   	push   %eax
   86c61:	e8 65 fa ff ff       	call   866cb <vga_writeDWord>
   86c66:	83 c4 10             	add    $0x10,%esp
   86c69:	83 ec 0c             	sub    $0xc,%esp
   86c6c:	68 c8 1e 08 00       	push   $0x81ec8
   86c71:	e8 54 f9 ff ff       	call   865ca <vga_writeText>
   86c76:	83 c4 10             	add    $0x10,%esp
   86c79:	c7 45 f0 00 00 00 00 	movl   $0x0,-0x10(%ebp)
   86c80:	8b 45 f4             	mov    -0xc(%ebp),%eax
   86c83:	c1 e0 04             	shl    $0x4,%eax
   86c86:	89 45 ec             	mov    %eax,-0x14(%ebp)
   86c89:	eb 2f                	jmp    86cba <vga_hexDump+0xa3>
   86c8b:	8b 55 ec             	mov    -0x14(%ebp),%edx
   86c8e:	8b 45 08             	mov    0x8(%ebp),%eax
   86c91:	01 d0                	add    %edx,%eax
   86c93:	0f b6 00             	movzbl (%eax),%eax
   86c96:	0f b6 c0             	movzbl %al,%eax
   86c99:	83 ec 0c             	sub    $0xc,%esp
   86c9c:	50                   	push   %eax
   86c9d:	e8 94 f9 ff ff       	call   86636 <vga_writeByte>
   86ca2:	83 c4 10             	add    $0x10,%esp
   86ca5:	83 ec 0c             	sub    $0xc,%esp
   86ca8:	6a 20                	push   $0x20
   86caa:	e8 43 f8 ff ff       	call   864f2 <vga_writeChar>
   86caf:	83 c4 10             	add    $0x10,%esp
   86cb2:	83 45 f0 01          	addl   $0x1,-0x10(%ebp)
   86cb6:	83 45 ec 01          	addl   $0x1,-0x14(%ebp)
   86cba:	8b 45 f4             	mov    -0xc(%ebp),%eax
   86cbd:	83 c0 01             	add    $0x1,%eax
   86cc0:	c1 e0 04             	shl    $0x4,%eax
   86cc3:	39 45 ec             	cmp    %eax,-0x14(%ebp)
   86cc6:	7d 08                	jge    86cd0 <vga_hexDump+0xb9>
   86cc8:	8b 45 ec             	mov    -0x14(%ebp),%eax
   86ccb:	3b 45 0c             	cmp    0xc(%ebp),%eax
   86cce:	7c bb                	jl     86c8b <vga_hexDump+0x74>
   86cd0:	c7 45 e8 00 00 00 00 	movl   $0x0,-0x18(%ebp)
   86cd7:	eb 14                	jmp    86ced <vga_hexDump+0xd6>
   86cd9:	83 ec 0c             	sub    $0xc,%esp
   86cdc:	68 cb 1e 08 00       	push   $0x81ecb
   86ce1:	e8 e4 f8 ff ff       	call   865ca <vga_writeText>
   86ce6:	83 c4 10             	add    $0x10,%esp
   86ce9:	83 45 e8 01          	addl   $0x1,-0x18(%ebp)
   86ced:	b8 10 00 00 00       	mov    $0x10,%eax
   86cf2:	2b 45 f0             	sub    -0x10(%ebp),%eax
   86cf5:	39 45 e8             	cmp    %eax,-0x18(%ebp)
   86cf8:	7c df                	jl     86cd9 <vga_hexDump+0xc2>
   86cfa:	83 ec 0c             	sub    $0xc,%esp
   86cfd:	6a 20                	push   $0x20
   86cff:	e8 ee f7 ff ff       	call   864f2 <vga_writeChar>
   86d04:	83 c4 10             	add    $0x10,%esp
   86d07:	8b 45 f4             	mov    -0xc(%ebp),%eax
   86d0a:	c1 e0 04             	shl    $0x4,%eax
   86d0d:	89 45 e4             	mov    %eax,-0x1c(%ebp)
   86d10:	eb 1e                	jmp    86d30 <vga_hexDump+0x119>
   86d12:	8b 55 e4             	mov    -0x1c(%ebp),%edx
   86d15:	8b 45 08             	mov    0x8(%ebp),%eax
   86d18:	01 d0                	add    %edx,%eax
   86d1a:	0f b6 00             	movzbl (%eax),%eax
   86d1d:	0f be c0             	movsbl %al,%eax
   86d20:	83 ec 0c             	sub    $0xc,%esp
   86d23:	50                   	push   %eax
   86d24:	e8 c9 f7 ff ff       	call   864f2 <vga_writeChar>
   86d29:	83 c4 10             	add    $0x10,%esp
   86d2c:	83 45 e4 01          	addl   $0x1,-0x1c(%ebp)
   86d30:	8b 45 f4             	mov    -0xc(%ebp),%eax
   86d33:	83 c0 01             	add    $0x1,%eax
   86d36:	c1 e0 04             	shl    $0x4,%eax
   86d39:	39 45 e4             	cmp    %eax,-0x1c(%ebp)
   86d3c:	7d 08                	jge    86d46 <vga_hexDump+0x12f>
   86d3e:	8b 45 e4             	mov    -0x1c(%ebp),%eax
   86d41:	3b 45 0c             	cmp    0xc(%ebp),%eax
   86d44:	7c cc                	jl     86d12 <vga_hexDump+0xfb>
   86d46:	83 ec 0c             	sub    $0xc,%esp
   86d49:	6a 0a                	push   $0xa
   86d4b:	e8 a2 f7 ff ff       	call   864f2 <vga_writeChar>
   86d50:	83 c4 10             	add    $0x10,%esp
   86d53:	83 45 f4 01          	addl   $0x1,-0xc(%ebp)
   86d57:	8b 45 f4             	mov    -0xc(%ebp),%eax
   86d5a:	3b 45 e0             	cmp    -0x20(%ebp),%eax
   86d5d:	0f 8c ed fe ff ff    	jl     86c50 <vga_hexDump+0x39>
   86d63:	90                   	nop
   86d64:	90                   	nop
   86d65:	c9                   	leave  
   86d66:	c3                   	ret    

00086d67 <vga_init>:
   86d67:	f3 0f 1e fb          	endbr32 
   86d6b:	55                   	push   %ebp
   86d6c:	89 e5                	mov    %esp,%ebp
   86d6e:	6a 00                	push   $0x0
   86d70:	6a 00                	push   $0x0
   86d72:	e8 7c fd ff ff       	call   86af3 <vga_setCursor>
   86d77:	83 c4 08             	add    $0x8,%esp
   86d7a:	e8 f2 fd ff ff       	call   86b71 <vga_showCursor>
   86d7f:	90                   	nop
   86d80:	c9                   	leave  
   86d81:	c3                   	ret    

00086d82 <keys_keyname>:
   86d82:	f3 0f 1e fb          	endbr32 
   86d86:	55                   	push   %ebp
   86d87:	89 e5                	mov    %esp,%ebp
   86d89:	83 ec 04             	sub    $0x4,%esp
   86d8c:	8b 45 08             	mov    0x8(%ebp),%eax
   86d8f:	66 89 45 fc          	mov    %ax,-0x4(%ebp)
   86d93:	0f b7 45 fc          	movzwl -0x4(%ebp),%eax
   86d97:	83 f8 58             	cmp    $0x58,%eax
   86d9a:	7f 34                	jg     86dd0 <keys_keyname+0x4e>
   86d9c:	85 c0                	test   %eax,%eax
   86d9e:	7f 1d                	jg     86dbd <keys_keyname+0x3b>
   86da0:	e9 cc 03 00 00       	jmp    87171 <keys_keyname+0x3ef>
   86da5:	2d 1d e0 00 00       	sub    $0xe01d,%eax
   86daa:	83 f8 40             	cmp    $0x40,%eax
   86dad:	0f 87 be 03 00 00    	ja     87171 <keys_keyname+0x3ef>
   86db3:	8b 04 85 30 21 08 00 	mov    0x82130(,%eax,4),%eax
   86dba:	3e ff e0             	notrack jmp *%eax
   86dbd:	83 f8 58             	cmp    $0x58,%eax
   86dc0:	0f 87 ab 03 00 00    	ja     87171 <keys_keyname+0x3ef>
   86dc6:	8b 04 85 34 22 08 00 	mov    0x82234(,%eax,4),%eax
   86dcd:	3e ff e0             	notrack jmp *%eax
   86dd0:	3d 5d e0 00 00       	cmp    $0xe05d,%eax
   86dd5:	0f 8f 96 03 00 00    	jg     87171 <keys_keyname+0x3ef>
   86ddb:	3d 1d e0 00 00       	cmp    $0xe01d,%eax
   86de0:	7d c3                	jge    86da5 <keys_keyname+0x23>
   86de2:	e9 8a 03 00 00       	jmp    87171 <keys_keyname+0x3ef>
   86de7:	b8 d0 1e 08 00       	mov    $0x81ed0,%eax
   86dec:	e9 85 03 00 00       	jmp    87176 <keys_keyname+0x3f4>
   86df1:	b8 d4 1e 08 00       	mov    $0x81ed4,%eax
   86df6:	e9 7b 03 00 00       	jmp    87176 <keys_keyname+0x3f4>
   86dfb:	b8 d8 1e 08 00       	mov    $0x81ed8,%eax
   86e00:	e9 71 03 00 00       	jmp    87176 <keys_keyname+0x3f4>
   86e05:	b8 dc 1e 08 00       	mov    $0x81edc,%eax
   86e0a:	e9 67 03 00 00       	jmp    87176 <keys_keyname+0x3f4>
   86e0f:	b8 e2 1e 08 00       	mov    $0x81ee2,%eax
   86e14:	e9 5d 03 00 00       	jmp    87176 <keys_keyname+0x3f4>
   86e19:	b8 e7 1e 08 00       	mov    $0x81ee7,%eax
   86e1e:	e9 53 03 00 00       	jmp    87176 <keys_keyname+0x3f4>
   86e23:	b8 ec 1e 08 00       	mov    $0x81eec,%eax
   86e28:	e9 49 03 00 00       	jmp    87176 <keys_keyname+0x3f4>
   86e2d:	b8 f0 1e 08 00       	mov    $0x81ef0,%eax
   86e32:	e9 3f 03 00 00       	jmp    87176 <keys_keyname+0x3f4>
   86e37:	b8 f6 1e 08 00       	mov    $0x81ef6,%eax
   86e3c:	e9 35 03 00 00       	jmp    87176 <keys_keyname+0x3f4>
   86e41:	b8 fc 1e 08 00       	mov    $0x81efc,%eax
   86e46:	e9 2b 03 00 00       	jmp    87176 <keys_keyname+0x3f4>
   86e4b:	b8 01 1f 08 00       	mov    $0x81f01,%eax
   86e50:	e9 21 03 00 00       	jmp    87176 <keys_keyname+0x3f4>
   86e55:	b8 06 1f 08 00       	mov    $0x81f06,%eax
   86e5a:	e9 17 03 00 00       	jmp    87176 <keys_keyname+0x3f4>
   86e5f:	b8 0c 1f 08 00       	mov    $0x81f0c,%eax
   86e64:	e9 0d 03 00 00       	jmp    87176 <keys_keyname+0x3f4>
   86e69:	b8 12 1f 08 00       	mov    $0x81f12,%eax
   86e6e:	e9 03 03 00 00       	jmp    87176 <keys_keyname+0x3f4>
   86e73:	b8 1c 1f 08 00       	mov    $0x81f1c,%eax
   86e78:	e9 f9 02 00 00       	jmp    87176 <keys_keyname+0x3f4>
   86e7d:	b8 20 1f 08 00       	mov    $0x81f20,%eax
   86e82:	e9 ef 02 00 00       	jmp    87176 <keys_keyname+0x3f4>
   86e87:	b8 25 1f 08 00       	mov    $0x81f25,%eax
   86e8c:	e9 e5 02 00 00       	jmp    87176 <keys_keyname+0x3f4>
   86e91:	b8 2a 1f 08 00       	mov    $0x81f2a,%eax
   86e96:	e9 db 02 00 00       	jmp    87176 <keys_keyname+0x3f4>
   86e9b:	b8 2f 1f 08 00       	mov    $0x81f2f,%eax
   86ea0:	e9 d1 02 00 00       	jmp    87176 <keys_keyname+0x3f4>
   86ea5:	b8 34 1f 08 00       	mov    $0x81f34,%eax
   86eaa:	e9 c7 02 00 00       	jmp    87176 <keys_keyname+0x3f4>
   86eaf:	b8 39 1f 08 00       	mov    $0x81f39,%eax
   86eb4:	e9 bd 02 00 00       	jmp    87176 <keys_keyname+0x3f4>
   86eb9:	b8 3e 1f 08 00       	mov    $0x81f3e,%eax
   86ebe:	e9 b3 02 00 00       	jmp    87176 <keys_keyname+0x3f4>
   86ec3:	b8 43 1f 08 00       	mov    $0x81f43,%eax
   86ec8:	e9 a9 02 00 00       	jmp    87176 <keys_keyname+0x3f4>
   86ecd:	b8 48 1f 08 00       	mov    $0x81f48,%eax
   86ed2:	e9 9f 02 00 00       	jmp    87176 <keys_keyname+0x3f4>
   86ed7:	b8 4d 1f 08 00       	mov    $0x81f4d,%eax
   86edc:	e9 95 02 00 00       	jmp    87176 <keys_keyname+0x3f4>
   86ee1:	b8 52 1f 08 00       	mov    $0x81f52,%eax
   86ee6:	e9 8b 02 00 00       	jmp    87176 <keys_keyname+0x3f4>
   86eeb:	b8 5e 1f 08 00       	mov    $0x81f5e,%eax
   86ef0:	e9 81 02 00 00       	jmp    87176 <keys_keyname+0x3f4>
   86ef5:	b8 6b 1f 08 00       	mov    $0x81f6b,%eax
   86efa:	e9 77 02 00 00       	jmp    87176 <keys_keyname+0x3f4>
   86eff:	b8 71 1f 08 00       	mov    $0x81f71,%eax
   86f04:	e9 6d 02 00 00       	jmp    87176 <keys_keyname+0x3f4>
   86f09:	b8 77 1f 08 00       	mov    $0x81f77,%eax
   86f0e:	e9 63 02 00 00       	jmp    87176 <keys_keyname+0x3f4>
   86f13:	b8 7c 1f 08 00       	mov    $0x81f7c,%eax
   86f18:	e9 59 02 00 00       	jmp    87176 <keys_keyname+0x3f4>
   86f1d:	b8 81 1f 08 00       	mov    $0x81f81,%eax
   86f22:	e9 4f 02 00 00       	jmp    87176 <keys_keyname+0x3f4>
   86f27:	b8 86 1f 08 00       	mov    $0x81f86,%eax
   86f2c:	e9 45 02 00 00       	jmp    87176 <keys_keyname+0x3f4>
   86f31:	b8 8b 1f 08 00       	mov    $0x81f8b,%eax
   86f36:	e9 3b 02 00 00       	jmp    87176 <keys_keyname+0x3f4>
   86f3b:	b8 90 1f 08 00       	mov    $0x81f90,%eax
   86f40:	e9 31 02 00 00       	jmp    87176 <keys_keyname+0x3f4>
   86f45:	b8 95 1f 08 00       	mov    $0x81f95,%eax
   86f4a:	e9 27 02 00 00       	jmp    87176 <keys_keyname+0x3f4>
   86f4f:	b8 9a 1f 08 00       	mov    $0x81f9a,%eax
   86f54:	e9 1d 02 00 00       	jmp    87176 <keys_keyname+0x3f4>
   86f59:	b8 9f 1f 08 00       	mov    $0x81f9f,%eax
   86f5e:	e9 13 02 00 00       	jmp    87176 <keys_keyname+0x3f4>
   86f63:	b8 a4 1f 08 00       	mov    $0x81fa4,%eax
   86f68:	e9 09 02 00 00       	jmp    87176 <keys_keyname+0x3f4>
   86f6d:	b8 ae 1f 08 00       	mov    $0x81fae,%eax
   86f72:	e9 ff 01 00 00       	jmp    87176 <keys_keyname+0x3f4>
   86f77:	b8 b8 1f 08 00       	mov    $0x81fb8,%eax
   86f7c:	e9 f5 01 00 00       	jmp    87176 <keys_keyname+0x3f4>
   86f81:	b8 be 1f 08 00       	mov    $0x81fbe,%eax
   86f86:	e9 eb 01 00 00       	jmp    87176 <keys_keyname+0x3f4>
   86f8b:	b8 c5 1f 08 00       	mov    $0x81fc5,%eax
   86f90:	e9 e1 01 00 00       	jmp    87176 <keys_keyname+0x3f4>
   86f95:	b8 d3 1f 08 00       	mov    $0x81fd3,%eax
   86f9a:	e9 d7 01 00 00       	jmp    87176 <keys_keyname+0x3f4>
   86f9f:	b8 d8 1f 08 00       	mov    $0x81fd8,%eax
   86fa4:	e9 cd 01 00 00       	jmp    87176 <keys_keyname+0x3f4>
   86fa9:	b8 dd 1f 08 00       	mov    $0x81fdd,%eax
   86fae:	e9 c3 01 00 00       	jmp    87176 <keys_keyname+0x3f4>
   86fb3:	b8 e2 1f 08 00       	mov    $0x81fe2,%eax
   86fb8:	e9 b9 01 00 00       	jmp    87176 <keys_keyname+0x3f4>
   86fbd:	b8 e7 1f 08 00       	mov    $0x81fe7,%eax
   86fc2:	e9 af 01 00 00       	jmp    87176 <keys_keyname+0x3f4>
   86fc7:	b8 ec 1f 08 00       	mov    $0x81fec,%eax
   86fcc:	e9 a5 01 00 00       	jmp    87176 <keys_keyname+0x3f4>
   86fd1:	b8 f1 1f 08 00       	mov    $0x81ff1,%eax
   86fd6:	e9 9b 01 00 00       	jmp    87176 <keys_keyname+0x3f4>
   86fdb:	b8 f6 1f 08 00       	mov    $0x81ff6,%eax
   86fe0:	e9 91 01 00 00       	jmp    87176 <keys_keyname+0x3f4>
   86fe5:	b8 fc 1f 08 00       	mov    $0x81ffc,%eax
   86fea:	e9 87 01 00 00       	jmp    87176 <keys_keyname+0x3f4>
   86fef:	b8 03 20 08 00       	mov    $0x82003,%eax
   86ff4:	e9 7d 01 00 00       	jmp    87176 <keys_keyname+0x3f4>
   86ff9:	b8 09 20 08 00       	mov    $0x82009,%eax
   86ffe:	e9 73 01 00 00       	jmp    87176 <keys_keyname+0x3f4>
   87003:	b8 10 20 08 00       	mov    $0x82010,%eax
   87008:	e9 69 01 00 00       	jmp    87176 <keys_keyname+0x3f4>
   8700d:	b8 15 20 08 00       	mov    $0x82015,%eax
   87012:	e9 5f 01 00 00       	jmp    87176 <keys_keyname+0x3f4>
   87017:	b8 1b 20 08 00       	mov    $0x8201b,%eax
   8701c:	e9 55 01 00 00       	jmp    87176 <keys_keyname+0x3f4>
   87021:	b8 1e 20 08 00       	mov    $0x8201e,%eax
   87026:	e9 4b 01 00 00       	jmp    87176 <keys_keyname+0x3f4>
   8702b:	b8 21 20 08 00       	mov    $0x82021,%eax
   87030:	e9 41 01 00 00       	jmp    87176 <keys_keyname+0x3f4>
   87035:	b8 24 20 08 00       	mov    $0x82024,%eax
   8703a:	e9 37 01 00 00       	jmp    87176 <keys_keyname+0x3f4>
   8703f:	b8 27 20 08 00       	mov    $0x82027,%eax
   87044:	e9 2d 01 00 00       	jmp    87176 <keys_keyname+0x3f4>
   87049:	b8 2a 20 08 00       	mov    $0x8202a,%eax
   8704e:	e9 23 01 00 00       	jmp    87176 <keys_keyname+0x3f4>
   87053:	b8 2d 20 08 00       	mov    $0x8202d,%eax
   87058:	e9 19 01 00 00       	jmp    87176 <keys_keyname+0x3f4>
   8705d:	b8 30 20 08 00       	mov    $0x82030,%eax
   87062:	e9 0f 01 00 00       	jmp    87176 <keys_keyname+0x3f4>
   87067:	b8 33 20 08 00       	mov    $0x82033,%eax
   8706c:	e9 05 01 00 00       	jmp    87176 <keys_keyname+0x3f4>
   87071:	b8 36 20 08 00       	mov    $0x82036,%eax
   87076:	e9 fb 00 00 00       	jmp    87176 <keys_keyname+0x3f4>
   8707b:	b8 3a 20 08 00       	mov    $0x8203a,%eax
   87080:	e9 f1 00 00 00       	jmp    87176 <keys_keyname+0x3f4>
   87085:	b8 46 20 08 00       	mov    $0x82046,%eax
   8708a:	e9 e7 00 00 00       	jmp    87176 <keys_keyname+0x3f4>
   8708f:	b8 52 20 08 00       	mov    $0x82052,%eax
   87094:	e9 dd 00 00 00       	jmp    87176 <keys_keyname+0x3f4>
   87099:	b8 5d 20 08 00       	mov    $0x8205d,%eax
   8709e:	e9 d3 00 00 00       	jmp    87176 <keys_keyname+0x3f4>
   870a3:	b8 69 20 08 00       	mov    $0x82069,%eax
   870a8:	e9 c9 00 00 00       	jmp    87176 <keys_keyname+0x3f4>
   870ad:	b8 74 20 08 00       	mov    $0x82074,%eax
   870b2:	e9 bf 00 00 00       	jmp    87176 <keys_keyname+0x3f4>
   870b7:	b8 7f 20 08 00       	mov    $0x8207f,%eax
   870bc:	e9 b5 00 00 00       	jmp    87176 <keys_keyname+0x3f4>
   870c1:	b8 89 20 08 00       	mov    $0x82089,%eax
   870c6:	e9 ab 00 00 00       	jmp    87176 <keys_keyname+0x3f4>
   870cb:	b8 94 20 08 00       	mov    $0x82094,%eax
   870d0:	e9 a1 00 00 00       	jmp    87176 <keys_keyname+0x3f4>
   870d5:	b8 9e 20 08 00       	mov    $0x8209e,%eax
   870da:	e9 97 00 00 00       	jmp    87176 <keys_keyname+0x3f4>
   870df:	b8 a8 20 08 00       	mov    $0x820a8,%eax
   870e4:	e9 8d 00 00 00       	jmp    87176 <keys_keyname+0x3f4>
   870e9:	b8 b4 20 08 00       	mov    $0x820b4,%eax
   870ee:	e9 83 00 00 00       	jmp    87176 <keys_keyname+0x3f4>
   870f3:	b8 bf 20 08 00       	mov    $0x820bf,%eax
   870f8:	eb 7c                	jmp    87176 <keys_keyname+0x3f4>
   870fa:	b8 cc 20 08 00       	mov    $0x820cc,%eax
   870ff:	eb 75                	jmp    87176 <keys_keyname+0x3f4>
   87101:	b8 d0 20 08 00       	mov    $0x820d0,%eax
   87106:	eb 6e                	jmp    87176 <keys_keyname+0x3f4>
   87108:	b8 d4 20 08 00       	mov    $0x820d4,%eax
   8710d:	eb 67                	jmp    87176 <keys_keyname+0x3f4>
   8710f:	b8 da 20 08 00       	mov    $0x820da,%eax
   87114:	eb 60                	jmp    87176 <keys_keyname+0x3f4>
   87116:	b8 df 20 08 00       	mov    $0x820df,%eax
   8711b:	eb 59                	jmp    87176 <keys_keyname+0x3f4>
   8711d:	b8 e4 20 08 00       	mov    $0x820e4,%eax
   87122:	eb 52                	jmp    87176 <keys_keyname+0x3f4>
   87124:	b8 eb 20 08 00       	mov    $0x820eb,%eax
   87129:	eb 4b                	jmp    87176 <keys_keyname+0x3f4>
   8712b:	b8 f0 20 08 00       	mov    $0x820f0,%eax
   87130:	eb 44                	jmp    87176 <keys_keyname+0x3f4>
   87132:	b8 f3 20 08 00       	mov    $0x820f3,%eax
   87137:	eb 3d                	jmp    87176 <keys_keyname+0x3f4>
   87139:	b8 f9 20 08 00       	mov    $0x820f9,%eax
   8713e:	eb 36                	jmp    87176 <keys_keyname+0x3f4>
   87140:	b8 fd 20 08 00       	mov    $0x820fd,%eax
   87145:	eb 2f                	jmp    87176 <keys_keyname+0x3f4>
   87147:	b8 02 21 08 00       	mov    $0x82102,%eax
   8714c:	eb 28                	jmp    87176 <keys_keyname+0x3f4>
   8714e:	b8 0b 21 08 00       	mov    $0x8210b,%eax
   87153:	eb 21                	jmp    87176 <keys_keyname+0x3f4>
   87155:	b8 12 21 08 00       	mov    $0x82112,%eax
   8715a:	eb 1a                	jmp    87176 <keys_keyname+0x3f4>
   8715c:	b8 19 21 08 00       	mov    $0x82119,%eax
   87161:	eb 13                	jmp    87176 <keys_keyname+0x3f4>
   87163:	b8 1f 21 08 00       	mov    $0x8211f,%eax
   87168:	eb 0c                	jmp    87176 <keys_keyname+0x3f4>
   8716a:	b8 25 21 08 00       	mov    $0x82125,%eax
   8716f:	eb 05                	jmp    87176 <keys_keyname+0x3f4>
   87171:	b8 00 00 00 00       	mov    $0x0,%eax
   87176:	c9                   	leave  
   87177:	c3                   	ret    

00087178 <set_key_state>:
   87178:	f3 0f 1e fb          	endbr32 
   8717c:	55                   	push   %ebp
   8717d:	89 e5                	mov    %esp,%ebp
   8717f:	83 ec 08             	sub    $0x8,%esp
   87182:	8b 45 08             	mov    0x8(%ebp),%eax
   87185:	8b 55 0c             	mov    0xc(%ebp),%edx
   87188:	66 89 45 fc          	mov    %ax,-0x4(%ebp)
   8718c:	89 d0                	mov    %edx,%eax
   8718e:	88 45 f8             	mov    %al,-0x8(%ebp)
   87191:	0f b7 45 fc          	movzwl -0x4(%ebp),%eax
   87195:	3d 38 e0 00 00       	cmp    $0xe038,%eax
   8719a:	74 68                	je     87204 <set_key_state+0x8c>
   8719c:	3d 38 e0 00 00       	cmp    $0xe038,%eax
   871a1:	0f 8f ab 00 00 00    	jg     87252 <set_key_state+0xda>
   871a7:	83 f8 3a             	cmp    $0x3a,%eax
   871aa:	7f 1f                	jg     871cb <set_key_state+0x53>
   871ac:	83 f8 1d             	cmp    $0x1d,%eax
   871af:	0f 8c 9d 00 00 00    	jl     87252 <set_key_state+0xda>
   871b5:	83 e8 1d             	sub    $0x1d,%eax
   871b8:	83 f8 1d             	cmp    $0x1d,%eax
   871bb:	0f 87 91 00 00 00    	ja     87252 <set_key_state+0xda>
   871c1:	8b 04 85 98 23 08 00 	mov    0x82398(,%eax,4),%eax
   871c8:	3e ff e0             	notrack jmp *%eax
   871cb:	3d 1d e0 00 00       	cmp    $0xe01d,%eax
   871d0:	74 52                	je     87224 <set_key_state+0xac>
   871d2:	eb 7e                	jmp    87252 <set_key_state+0xda>
   871d4:	0f b6 45 f8          	movzbl -0x8(%ebp),%eax
   871d8:	a2 48 bd 0a 00       	mov    %al,0xabd48
   871dd:	b8 01 00 00 00       	mov    $0x1,%eax
   871e2:	eb 73                	jmp    87257 <set_key_state+0xdf>
   871e4:	0f b6 45 f8          	movzbl -0x8(%ebp),%eax
   871e8:	a2 49 bd 0a 00       	mov    %al,0xabd49
   871ed:	b8 01 00 00 00       	mov    $0x1,%eax
   871f2:	eb 63                	jmp    87257 <set_key_state+0xdf>
   871f4:	0f b6 45 f8          	movzbl -0x8(%ebp),%eax
   871f8:	a2 4a bd 0a 00       	mov    %al,0xabd4a
   871fd:	b8 01 00 00 00       	mov    $0x1,%eax
   87202:	eb 53                	jmp    87257 <set_key_state+0xdf>
   87204:	0f b6 45 f8          	movzbl -0x8(%ebp),%eax
   87208:	a2 4b bd 0a 00       	mov    %al,0xabd4b
   8720d:	b8 01 00 00 00       	mov    $0x1,%eax
   87212:	eb 43                	jmp    87257 <set_key_state+0xdf>
   87214:	0f b6 45 f8          	movzbl -0x8(%ebp),%eax
   87218:	a2 4c bd 0a 00       	mov    %al,0xabd4c
   8721d:	b8 01 00 00 00       	mov    $0x1,%eax
   87222:	eb 33                	jmp    87257 <set_key_state+0xdf>
   87224:	0f b6 45 f8          	movzbl -0x8(%ebp),%eax
   87228:	a2 4d bd 0a 00       	mov    %al,0xabd4d
   8722d:	b8 01 00 00 00       	mov    $0x1,%eax
   87232:	eb 23                	jmp    87257 <set_key_state+0xdf>
   87234:	80 7d f8 00          	cmpb   $0x0,-0x8(%ebp)
   87238:	74 11                	je     8724b <set_key_state+0xd3>
   8723a:	0f b6 05 4e bd 0a 00 	movzbl 0xabd4e,%eax
   87241:	84 c0                	test   %al,%al
   87243:	0f 94 c0             	sete   %al
   87246:	a2 4e bd 0a 00       	mov    %al,0xabd4e
   8724b:	b8 01 00 00 00       	mov    $0x1,%eax
   87250:	eb 05                	jmp    87257 <set_key_state+0xdf>
   87252:	b8 00 00 00 00       	mov    $0x0,%eax
   87257:	c9                   	leave  
   87258:	c3                   	ret    

00087259 <shift_down>:
   87259:	f3 0f 1e fb          	endbr32 
   8725d:	55                   	push   %ebp
   8725e:	89 e5                	mov    %esp,%ebp
   87260:	0f b6 05 48 bd 0a 00 	movzbl 0xabd48,%eax
   87267:	84 c0                	test   %al,%al
   87269:	75 0b                	jne    87276 <shift_down+0x1d>
   8726b:	0f b6 05 49 bd 0a 00 	movzbl 0xabd49,%eax
   87272:	84 c0                	test   %al,%al
   87274:	74 07                	je     8727d <shift_down+0x24>
   87276:	b8 01 00 00 00       	mov    $0x1,%eax
   8727b:	eb 05                	jmp    87282 <shift_down+0x29>
   8727d:	b8 00 00 00 00       	mov    $0x0,%eax
   87282:	5d                   	pop    %ebp
   87283:	c3                   	ret    

00087284 <alt_down>:
   87284:	f3 0f 1e fb          	endbr32 
   87288:	55                   	push   %ebp
   87289:	89 e5                	mov    %esp,%ebp
   8728b:	0f b6 05 4a bd 0a 00 	movzbl 0xabd4a,%eax
   87292:	84 c0                	test   %al,%al
   87294:	75 0b                	jne    872a1 <alt_down+0x1d>
   87296:	0f b6 05 4b bd 0a 00 	movzbl 0xabd4b,%eax
   8729d:	84 c0                	test   %al,%al
   8729f:	74 07                	je     872a8 <alt_down+0x24>
   872a1:	b8 01 00 00 00       	mov    $0x1,%eax
   872a6:	eb 05                	jmp    872ad <alt_down+0x29>
   872a8:	b8 00 00 00 00       	mov    $0x0,%eax
   872ad:	5d                   	pop    %ebp
   872ae:	c3                   	ret    

000872af <ctrl_down>:
   872af:	f3 0f 1e fb          	endbr32 
   872b3:	55                   	push   %ebp
   872b4:	89 e5                	mov    %esp,%ebp
   872b6:	0f b6 05 4c bd 0a 00 	movzbl 0xabd4c,%eax
   872bd:	84 c0                	test   %al,%al
   872bf:	75 0b                	jne    872cc <ctrl_down+0x1d>
   872c1:	0f b6 05 4d bd 0a 00 	movzbl 0xabd4d,%eax
   872c8:	84 c0                	test   %al,%al
   872ca:	74 07                	je     872d3 <ctrl_down+0x24>
   872cc:	b8 01 00 00 00       	mov    $0x1,%eax
   872d1:	eb 05                	jmp    872d8 <ctrl_down+0x29>
   872d3:	b8 00 00 00 00       	mov    $0x0,%eax
   872d8:	5d                   	pop    %ebp
   872d9:	c3                   	ret    

000872da <nl_be_qemu_keydown>:
   872da:	f3 0f 1e fb          	endbr32 
   872de:	55                   	push   %ebp
   872df:	89 e5                	mov    %esp,%ebp
   872e1:	83 ec 28             	sub    $0x28,%esp
   872e4:	8b 45 08             	mov    0x8(%ebp),%eax
   872e7:	66 89 45 e4          	mov    %ax,-0x1c(%ebp)
   872eb:	0f b7 45 e4          	movzwl -0x1c(%ebp),%eax
   872ef:	6a 01                	push   $0x1
   872f1:	50                   	push   %eax
   872f2:	e8 81 fe ff ff       	call   87178 <set_key_state>
   872f7:	83 c4 08             	add    $0x8,%esp
   872fa:	84 c0                	test   %al,%al
   872fc:	0f 85 55 06 00 00    	jne    87957 <nl_be_qemu_keydown+0x67d>
   87302:	e8 52 ff ff ff       	call   87259 <shift_down>
   87307:	88 45 f7             	mov    %al,-0x9(%ebp)
   8730a:	e8 75 ff ff ff       	call   87284 <alt_down>
   8730f:	88 45 f6             	mov    %al,-0xa(%ebp)
   87312:	e8 98 ff ff ff       	call   872af <ctrl_down>
   87317:	88 45 f5             	mov    %al,-0xb(%ebp)
   8731a:	80 7d f7 00          	cmpb   $0x0,-0x9(%ebp)
   8731e:	0f 85 f3 02 00 00    	jne    87617 <nl_be_qemu_keydown+0x33d>
   87324:	80 7d f6 00          	cmpb   $0x0,-0xa(%ebp)
   87328:	0f 85 e9 02 00 00    	jne    87617 <nl_be_qemu_keydown+0x33d>
   8732e:	80 7d f5 00          	cmpb   $0x0,-0xb(%ebp)
   87332:	0f 85 df 02 00 00    	jne    87617 <nl_be_qemu_keydown+0x33d>
   87338:	0f b6 05 4e bd 0a 00 	movzbl 0xabd4e,%eax
   8733f:	84 c0                	test   %al,%al
   87341:	0f 85 d0 02 00 00    	jne    87617 <nl_be_qemu_keydown+0x33d>
   87347:	0f b7 45 e4          	movzwl -0x1c(%ebp),%eax
   8734b:	83 f8 39             	cmp    $0x39,%eax
   8734e:	0f 87 02 06 00 00    	ja     87956 <nl_be_qemu_keydown+0x67c>
   87354:	8b 04 85 10 24 08 00 	mov    0x82410(,%eax,4),%eax
   8735b:	3e ff e0             	notrack jmp *%eax
   8735e:	83 ec 0c             	sub    $0xc,%esp
   87361:	6a 26                	push   $0x26
   87363:	e8 de 1d 00 00       	call   89146 <send_char>
   87368:	83 c4 10             	add    $0x10,%esp
   8736b:	e9 a2 02 00 00       	jmp    87612 <nl_be_qemu_keydown+0x338>
   87370:	83 ec 0c             	sub    $0xc,%esp
   87373:	6a 22                	push   $0x22
   87375:	e8 cc 1d 00 00       	call   89146 <send_char>
   8737a:	83 c4 10             	add    $0x10,%esp
   8737d:	e9 90 02 00 00       	jmp    87612 <nl_be_qemu_keydown+0x338>
   87382:	83 ec 0c             	sub    $0xc,%esp
   87385:	6a 27                	push   $0x27
   87387:	e8 ba 1d 00 00       	call   89146 <send_char>
   8738c:	83 c4 10             	add    $0x10,%esp
   8738f:	e9 7e 02 00 00       	jmp    87612 <nl_be_qemu_keydown+0x338>
   87394:	83 ec 0c             	sub    $0xc,%esp
   87397:	6a 28                	push   $0x28
   87399:	e8 a8 1d 00 00       	call   89146 <send_char>
   8739e:	83 c4 10             	add    $0x10,%esp
   873a1:	e9 6c 02 00 00       	jmp    87612 <nl_be_qemu_keydown+0x338>
   873a6:	83 ec 0c             	sub    $0xc,%esp
   873a9:	6a 21                	push   $0x21
   873ab:	e8 96 1d 00 00       	call   89146 <send_char>
   873b0:	83 c4 10             	add    $0x10,%esp
   873b3:	e9 5a 02 00 00       	jmp    87612 <nl_be_qemu_keydown+0x338>
   873b8:	83 ec 0c             	sub    $0xc,%esp
   873bb:	6a 29                	push   $0x29
   873bd:	e8 84 1d 00 00       	call   89146 <send_char>
   873c2:	83 c4 10             	add    $0x10,%esp
   873c5:	e9 48 02 00 00       	jmp    87612 <nl_be_qemu_keydown+0x338>
   873ca:	83 ec 0c             	sub    $0xc,%esp
   873cd:	6a 2d                	push   $0x2d
   873cf:	e8 72 1d 00 00       	call   89146 <send_char>
   873d4:	83 c4 10             	add    $0x10,%esp
   873d7:	e9 36 02 00 00       	jmp    87612 <nl_be_qemu_keydown+0x338>
   873dc:	83 ec 0c             	sub    $0xc,%esp
   873df:	6a 71                	push   $0x71
   873e1:	e8 60 1d 00 00       	call   89146 <send_char>
   873e6:	83 c4 10             	add    $0x10,%esp
   873e9:	e9 24 02 00 00       	jmp    87612 <nl_be_qemu_keydown+0x338>
   873ee:	83 ec 0c             	sub    $0xc,%esp
   873f1:	6a 77                	push   $0x77
   873f3:	e8 4e 1d 00 00       	call   89146 <send_char>
   873f8:	83 c4 10             	add    $0x10,%esp
   873fb:	e9 12 02 00 00       	jmp    87612 <nl_be_qemu_keydown+0x338>
   87400:	83 ec 0c             	sub    $0xc,%esp
   87403:	6a 65                	push   $0x65
   87405:	e8 3c 1d 00 00       	call   89146 <send_char>
   8740a:	83 c4 10             	add    $0x10,%esp
   8740d:	e9 00 02 00 00       	jmp    87612 <nl_be_qemu_keydown+0x338>
   87412:	83 ec 0c             	sub    $0xc,%esp
   87415:	6a 72                	push   $0x72
   87417:	e8 2a 1d 00 00       	call   89146 <send_char>
   8741c:	83 c4 10             	add    $0x10,%esp
   8741f:	e9 ee 01 00 00       	jmp    87612 <nl_be_qemu_keydown+0x338>
   87424:	83 ec 0c             	sub    $0xc,%esp
   87427:	6a 74                	push   $0x74
   87429:	e8 18 1d 00 00       	call   89146 <send_char>
   8742e:	83 c4 10             	add    $0x10,%esp
   87431:	e9 dc 01 00 00       	jmp    87612 <nl_be_qemu_keydown+0x338>
   87436:	83 ec 0c             	sub    $0xc,%esp
   87439:	6a 79                	push   $0x79
   8743b:	e8 06 1d 00 00       	call   89146 <send_char>
   87440:	83 c4 10             	add    $0x10,%esp
   87443:	e9 ca 01 00 00       	jmp    87612 <nl_be_qemu_keydown+0x338>
   87448:	83 ec 0c             	sub    $0xc,%esp
   8744b:	6a 75                	push   $0x75
   8744d:	e8 f4 1c 00 00       	call   89146 <send_char>
   87452:	83 c4 10             	add    $0x10,%esp
   87455:	e9 b8 01 00 00       	jmp    87612 <nl_be_qemu_keydown+0x338>
   8745a:	83 ec 0c             	sub    $0xc,%esp
   8745d:	6a 69                	push   $0x69
   8745f:	e8 e2 1c 00 00       	call   89146 <send_char>
   87464:	83 c4 10             	add    $0x10,%esp
   87467:	e9 a6 01 00 00       	jmp    87612 <nl_be_qemu_keydown+0x338>
   8746c:	83 ec 0c             	sub    $0xc,%esp
   8746f:	6a 6f                	push   $0x6f
   87471:	e8 d0 1c 00 00       	call   89146 <send_char>
   87476:	83 c4 10             	add    $0x10,%esp
   87479:	e9 94 01 00 00       	jmp    87612 <nl_be_qemu_keydown+0x338>
   8747e:	83 ec 0c             	sub    $0xc,%esp
   87481:	6a 70                	push   $0x70
   87483:	e8 be 1c 00 00       	call   89146 <send_char>
   87488:	83 c4 10             	add    $0x10,%esp
   8748b:	e9 82 01 00 00       	jmp    87612 <nl_be_qemu_keydown+0x338>
   87490:	83 ec 0c             	sub    $0xc,%esp
   87493:	6a 5e                	push   $0x5e
   87495:	e8 ac 1c 00 00       	call   89146 <send_char>
   8749a:	83 c4 10             	add    $0x10,%esp
   8749d:	e9 70 01 00 00       	jmp    87612 <nl_be_qemu_keydown+0x338>
   874a2:	83 ec 0c             	sub    $0xc,%esp
   874a5:	6a 24                	push   $0x24
   874a7:	e8 9a 1c 00 00       	call   89146 <send_char>
   874ac:	83 c4 10             	add    $0x10,%esp
   874af:	e9 5e 01 00 00       	jmp    87612 <nl_be_qemu_keydown+0x338>
   874b4:	83 ec 0c             	sub    $0xc,%esp
   874b7:	6a 61                	push   $0x61
   874b9:	e8 88 1c 00 00       	call   89146 <send_char>
   874be:	83 c4 10             	add    $0x10,%esp
   874c1:	e9 4c 01 00 00       	jmp    87612 <nl_be_qemu_keydown+0x338>
   874c6:	83 ec 0c             	sub    $0xc,%esp
   874c9:	6a 73                	push   $0x73
   874cb:	e8 76 1c 00 00       	call   89146 <send_char>
   874d0:	83 c4 10             	add    $0x10,%esp
   874d3:	e9 3a 01 00 00       	jmp    87612 <nl_be_qemu_keydown+0x338>
   874d8:	83 ec 0c             	sub    $0xc,%esp
   874db:	6a 64                	push   $0x64
   874dd:	e8 64 1c 00 00       	call   89146 <send_char>
   874e2:	83 c4 10             	add    $0x10,%esp
   874e5:	e9 28 01 00 00       	jmp    87612 <nl_be_qemu_keydown+0x338>
   874ea:	83 ec 0c             	sub    $0xc,%esp
   874ed:	6a 66                	push   $0x66
   874ef:	e8 52 1c 00 00       	call   89146 <send_char>
   874f4:	83 c4 10             	add    $0x10,%esp
   874f7:	e9 16 01 00 00       	jmp    87612 <nl_be_qemu_keydown+0x338>
   874fc:	83 ec 0c             	sub    $0xc,%esp
   874ff:	6a 67                	push   $0x67
   87501:	e8 40 1c 00 00       	call   89146 <send_char>
   87506:	83 c4 10             	add    $0x10,%esp
   87509:	e9 04 01 00 00       	jmp    87612 <nl_be_qemu_keydown+0x338>
   8750e:	83 ec 0c             	sub    $0xc,%esp
   87511:	6a 68                	push   $0x68
   87513:	e8 2e 1c 00 00       	call   89146 <send_char>
   87518:	83 c4 10             	add    $0x10,%esp
   8751b:	e9 f2 00 00 00       	jmp    87612 <nl_be_qemu_keydown+0x338>
   87520:	83 ec 0c             	sub    $0xc,%esp
   87523:	6a 6a                	push   $0x6a
   87525:	e8 1c 1c 00 00       	call   89146 <send_char>
   8752a:	83 c4 10             	add    $0x10,%esp
   8752d:	e9 e0 00 00 00       	jmp    87612 <nl_be_qemu_keydown+0x338>
   87532:	83 ec 0c             	sub    $0xc,%esp
   87535:	6a 6b                	push   $0x6b
   87537:	e8 0a 1c 00 00       	call   89146 <send_char>
   8753c:	83 c4 10             	add    $0x10,%esp
   8753f:	e9 ce 00 00 00       	jmp    87612 <nl_be_qemu_keydown+0x338>
   87544:	83 ec 0c             	sub    $0xc,%esp
   87547:	6a 6c                	push   $0x6c
   87549:	e8 f8 1b 00 00       	call   89146 <send_char>
   8754e:	83 c4 10             	add    $0x10,%esp
   87551:	e9 bc 00 00 00       	jmp    87612 <nl_be_qemu_keydown+0x338>
   87556:	83 ec 0c             	sub    $0xc,%esp
   87559:	6a 7a                	push   $0x7a
   8755b:	e8 e6 1b 00 00       	call   89146 <send_char>
   87560:	83 c4 10             	add    $0x10,%esp
   87563:	e9 aa 00 00 00       	jmp    87612 <nl_be_qemu_keydown+0x338>
   87568:	83 ec 0c             	sub    $0xc,%esp
   8756b:	6a 78                	push   $0x78
   8756d:	e8 d4 1b 00 00       	call   89146 <send_char>
   87572:	83 c4 10             	add    $0x10,%esp
   87575:	e9 98 00 00 00       	jmp    87612 <nl_be_qemu_keydown+0x338>
   8757a:	83 ec 0c             	sub    $0xc,%esp
   8757d:	6a 63                	push   $0x63
   8757f:	e8 c2 1b 00 00       	call   89146 <send_char>
   87584:	83 c4 10             	add    $0x10,%esp
   87587:	e9 86 00 00 00       	jmp    87612 <nl_be_qemu_keydown+0x338>
   8758c:	83 ec 0c             	sub    $0xc,%esp
   8758f:	6a 76                	push   $0x76
   87591:	e8 b0 1b 00 00       	call   89146 <send_char>
   87596:	83 c4 10             	add    $0x10,%esp
   87599:	eb 77                	jmp    87612 <nl_be_qemu_keydown+0x338>
   8759b:	83 ec 0c             	sub    $0xc,%esp
   8759e:	6a 62                	push   $0x62
   875a0:	e8 a1 1b 00 00       	call   89146 <send_char>
   875a5:	83 c4 10             	add    $0x10,%esp
   875a8:	eb 68                	jmp    87612 <nl_be_qemu_keydown+0x338>
   875aa:	83 ec 0c             	sub    $0xc,%esp
   875ad:	6a 6e                	push   $0x6e
   875af:	e8 92 1b 00 00       	call   89146 <send_char>
   875b4:	83 c4 10             	add    $0x10,%esp
   875b7:	eb 59                	jmp    87612 <nl_be_qemu_keydown+0x338>
   875b9:	83 ec 0c             	sub    $0xc,%esp
   875bc:	6a 6d                	push   $0x6d
   875be:	e8 83 1b 00 00       	call   89146 <send_char>
   875c3:	83 c4 10             	add    $0x10,%esp
   875c6:	eb 4a                	jmp    87612 <nl_be_qemu_keydown+0x338>
   875c8:	83 ec 0c             	sub    $0xc,%esp
   875cb:	6a 2c                	push   $0x2c
   875cd:	e8 74 1b 00 00       	call   89146 <send_char>
   875d2:	83 c4 10             	add    $0x10,%esp
   875d5:	eb 3b                	jmp    87612 <nl_be_qemu_keydown+0x338>
   875d7:	83 ec 0c             	sub    $0xc,%esp
   875da:	6a 3b                	push   $0x3b
   875dc:	e8 65 1b 00 00       	call   89146 <send_char>
   875e1:	83 c4 10             	add    $0x10,%esp
   875e4:	eb 2c                	jmp    87612 <nl_be_qemu_keydown+0x338>
   875e6:	83 ec 0c             	sub    $0xc,%esp
   875e9:	6a 3a                	push   $0x3a
   875eb:	e8 56 1b 00 00       	call   89146 <send_char>
   875f0:	83 c4 10             	add    $0x10,%esp
   875f3:	eb 1d                	jmp    87612 <nl_be_qemu_keydown+0x338>
   875f5:	83 ec 0c             	sub    $0xc,%esp
   875f8:	6a 3d                	push   $0x3d
   875fa:	e8 47 1b 00 00       	call   89146 <send_char>
   875ff:	83 c4 10             	add    $0x10,%esp
   87602:	eb 0e                	jmp    87612 <nl_be_qemu_keydown+0x338>
   87604:	83 ec 0c             	sub    $0xc,%esp
   87607:	6a 20                	push   $0x20
   87609:	e8 38 1b 00 00       	call   89146 <send_char>
   8760e:	83 c4 10             	add    $0x10,%esp
   87611:	90                   	nop
   87612:	e9 3f 03 00 00       	jmp    87956 <nl_be_qemu_keydown+0x67c>
   87617:	80 7d f7 00          	cmpb   $0x0,-0x9(%ebp)
   8761b:	74 0c                	je     87629 <nl_be_qemu_keydown+0x34f>
   8761d:	80 7d f6 00          	cmpb   $0x0,-0xa(%ebp)
   87621:	75 06                	jne    87629 <nl_be_qemu_keydown+0x34f>
   87623:	80 7d f5 00          	cmpb   $0x0,-0xb(%ebp)
   87627:	74 19                	je     87642 <nl_be_qemu_keydown+0x368>
   87629:	80 7d f7 00          	cmpb   $0x0,-0x9(%ebp)
   8762d:	0f 85 24 03 00 00    	jne    87957 <nl_be_qemu_keydown+0x67d>
   87633:	0f b6 05 4e bd 0a 00 	movzbl 0xabd4e,%eax
   8763a:	84 c0                	test   %al,%al
   8763c:	0f 84 15 03 00 00    	je     87957 <nl_be_qemu_keydown+0x67d>
   87642:	0f b7 45 e4          	movzwl -0x1c(%ebp),%eax
   87646:	83 f8 39             	cmp    $0x39,%eax
   87649:	0f 87 08 03 00 00    	ja     87957 <nl_be_qemu_keydown+0x67d>
   8764f:	8b 04 85 f8 24 08 00 	mov    0x824f8(,%eax,4),%eax
   87656:	3e ff e0             	notrack jmp *%eax
   87659:	83 ec 0c             	sub    $0xc,%esp
   8765c:	6a 31                	push   $0x31
   8765e:	e8 e3 1a 00 00       	call   89146 <send_char>
   87663:	83 c4 10             	add    $0x10,%esp
   87666:	e9 ec 02 00 00       	jmp    87957 <nl_be_qemu_keydown+0x67d>
   8766b:	83 ec 0c             	sub    $0xc,%esp
   8766e:	6a 32                	push   $0x32
   87670:	e8 d1 1a 00 00       	call   89146 <send_char>
   87675:	83 c4 10             	add    $0x10,%esp
   87678:	e9 da 02 00 00       	jmp    87957 <nl_be_qemu_keydown+0x67d>
   8767d:	83 ec 0c             	sub    $0xc,%esp
   87680:	6a 33                	push   $0x33
   87682:	e8 bf 1a 00 00       	call   89146 <send_char>
   87687:	83 c4 10             	add    $0x10,%esp
   8768a:	e9 c8 02 00 00       	jmp    87957 <nl_be_qemu_keydown+0x67d>
   8768f:	83 ec 0c             	sub    $0xc,%esp
   87692:	6a 34                	push   $0x34
   87694:	e8 ad 1a 00 00       	call   89146 <send_char>
   87699:	83 c4 10             	add    $0x10,%esp
   8769c:	e9 b6 02 00 00       	jmp    87957 <nl_be_qemu_keydown+0x67d>
   876a1:	83 ec 0c             	sub    $0xc,%esp
   876a4:	6a 35                	push   $0x35
   876a6:	e8 9b 1a 00 00       	call   89146 <send_char>
   876ab:	83 c4 10             	add    $0x10,%esp
   876ae:	e9 a4 02 00 00       	jmp    87957 <nl_be_qemu_keydown+0x67d>
   876b3:	83 ec 0c             	sub    $0xc,%esp
   876b6:	6a 36                	push   $0x36
   876b8:	e8 89 1a 00 00       	call   89146 <send_char>
   876bd:	83 c4 10             	add    $0x10,%esp
   876c0:	e9 92 02 00 00       	jmp    87957 <nl_be_qemu_keydown+0x67d>
   876c5:	83 ec 0c             	sub    $0xc,%esp
   876c8:	6a 37                	push   $0x37
   876ca:	e8 77 1a 00 00       	call   89146 <send_char>
   876cf:	83 c4 10             	add    $0x10,%esp
   876d2:	e9 80 02 00 00       	jmp    87957 <nl_be_qemu_keydown+0x67d>
   876d7:	83 ec 0c             	sub    $0xc,%esp
   876da:	6a 38                	push   $0x38
   876dc:	e8 65 1a 00 00       	call   89146 <send_char>
   876e1:	83 c4 10             	add    $0x10,%esp
   876e4:	e9 6e 02 00 00       	jmp    87957 <nl_be_qemu_keydown+0x67d>
   876e9:	83 ec 0c             	sub    $0xc,%esp
   876ec:	6a 39                	push   $0x39
   876ee:	e8 53 1a 00 00       	call   89146 <send_char>
   876f3:	83 c4 10             	add    $0x10,%esp
   876f6:	e9 5c 02 00 00       	jmp    87957 <nl_be_qemu_keydown+0x67d>
   876fb:	83 ec 0c             	sub    $0xc,%esp
   876fe:	6a 30                	push   $0x30
   87700:	e8 41 1a 00 00       	call   89146 <send_char>
   87705:	83 c4 10             	add    $0x10,%esp
   87708:	e9 4a 02 00 00       	jmp    87957 <nl_be_qemu_keydown+0x67d>
   8770d:	83 ec 0c             	sub    $0xc,%esp
   87710:	6a 5f                	push   $0x5f
   87712:	e8 2f 1a 00 00       	call   89146 <send_char>
   87717:	83 c4 10             	add    $0x10,%esp
   8771a:	e9 38 02 00 00       	jmp    87957 <nl_be_qemu_keydown+0x67d>
   8771f:	83 ec 0c             	sub    $0xc,%esp
   87722:	6a 51                	push   $0x51
   87724:	e8 1d 1a 00 00       	call   89146 <send_char>
   87729:	83 c4 10             	add    $0x10,%esp
   8772c:	e9 26 02 00 00       	jmp    87957 <nl_be_qemu_keydown+0x67d>
   87731:	83 ec 0c             	sub    $0xc,%esp
   87734:	6a 57                	push   $0x57
   87736:	e8 0b 1a 00 00       	call   89146 <send_char>
   8773b:	83 c4 10             	add    $0x10,%esp
   8773e:	e9 14 02 00 00       	jmp    87957 <nl_be_qemu_keydown+0x67d>
   87743:	83 ec 0c             	sub    $0xc,%esp
   87746:	6a 45                	push   $0x45
   87748:	e8 f9 19 00 00       	call   89146 <send_char>
   8774d:	83 c4 10             	add    $0x10,%esp
   87750:	e9 02 02 00 00       	jmp    87957 <nl_be_qemu_keydown+0x67d>
   87755:	83 ec 0c             	sub    $0xc,%esp
   87758:	6a 52                	push   $0x52
   8775a:	e8 e7 19 00 00       	call   89146 <send_char>
   8775f:	83 c4 10             	add    $0x10,%esp
   87762:	e9 f0 01 00 00       	jmp    87957 <nl_be_qemu_keydown+0x67d>
   87767:	83 ec 0c             	sub    $0xc,%esp
   8776a:	6a 54                	push   $0x54
   8776c:	e8 d5 19 00 00       	call   89146 <send_char>
   87771:	83 c4 10             	add    $0x10,%esp
   87774:	e9 de 01 00 00       	jmp    87957 <nl_be_qemu_keydown+0x67d>
   87779:	83 ec 0c             	sub    $0xc,%esp
   8777c:	6a 59                	push   $0x59
   8777e:	e8 c3 19 00 00       	call   89146 <send_char>
   87783:	83 c4 10             	add    $0x10,%esp
   87786:	e9 cc 01 00 00       	jmp    87957 <nl_be_qemu_keydown+0x67d>
   8778b:	83 ec 0c             	sub    $0xc,%esp
   8778e:	6a 55                	push   $0x55
   87790:	e8 b1 19 00 00       	call   89146 <send_char>
   87795:	83 c4 10             	add    $0x10,%esp
   87798:	e9 ba 01 00 00       	jmp    87957 <nl_be_qemu_keydown+0x67d>
   8779d:	83 ec 0c             	sub    $0xc,%esp
   877a0:	6a 49                	push   $0x49
   877a2:	e8 9f 19 00 00       	call   89146 <send_char>
   877a7:	83 c4 10             	add    $0x10,%esp
   877aa:	e9 a8 01 00 00       	jmp    87957 <nl_be_qemu_keydown+0x67d>
   877af:	83 ec 0c             	sub    $0xc,%esp
   877b2:	6a 4f                	push   $0x4f
   877b4:	e8 8d 19 00 00       	call   89146 <send_char>
   877b9:	83 c4 10             	add    $0x10,%esp
   877bc:	e9 96 01 00 00       	jmp    87957 <nl_be_qemu_keydown+0x67d>
   877c1:	83 ec 0c             	sub    $0xc,%esp
   877c4:	6a 50                	push   $0x50
   877c6:	e8 7b 19 00 00       	call   89146 <send_char>
   877cb:	83 c4 10             	add    $0x10,%esp
   877ce:	e9 84 01 00 00       	jmp    87957 <nl_be_qemu_keydown+0x67d>
   877d3:	83 ec 0c             	sub    $0xc,%esp
   877d6:	6a 2a                	push   $0x2a
   877d8:	e8 69 19 00 00       	call   89146 <send_char>
   877dd:	83 c4 10             	add    $0x10,%esp
   877e0:	e9 72 01 00 00       	jmp    87957 <nl_be_qemu_keydown+0x67d>
   877e5:	83 ec 0c             	sub    $0xc,%esp
   877e8:	6a 41                	push   $0x41
   877ea:	e8 57 19 00 00       	call   89146 <send_char>
   877ef:	83 c4 10             	add    $0x10,%esp
   877f2:	e9 60 01 00 00       	jmp    87957 <nl_be_qemu_keydown+0x67d>
   877f7:	83 ec 0c             	sub    $0xc,%esp
   877fa:	6a 53                	push   $0x53
   877fc:	e8 45 19 00 00       	call   89146 <send_char>
   87801:	83 c4 10             	add    $0x10,%esp
   87804:	e9 4e 01 00 00       	jmp    87957 <nl_be_qemu_keydown+0x67d>
   87809:	83 ec 0c             	sub    $0xc,%esp
   8780c:	6a 44                	push   $0x44
   8780e:	e8 33 19 00 00       	call   89146 <send_char>
   87813:	83 c4 10             	add    $0x10,%esp
   87816:	e9 3c 01 00 00       	jmp    87957 <nl_be_qemu_keydown+0x67d>
   8781b:	83 ec 0c             	sub    $0xc,%esp
   8781e:	6a 46                	push   $0x46
   87820:	e8 21 19 00 00       	call   89146 <send_char>
   87825:	83 c4 10             	add    $0x10,%esp
   87828:	e9 2a 01 00 00       	jmp    87957 <nl_be_qemu_keydown+0x67d>
   8782d:	83 ec 0c             	sub    $0xc,%esp
   87830:	6a 47                	push   $0x47
   87832:	e8 0f 19 00 00       	call   89146 <send_char>
   87837:	83 c4 10             	add    $0x10,%esp
   8783a:	e9 18 01 00 00       	jmp    87957 <nl_be_qemu_keydown+0x67d>
   8783f:	83 ec 0c             	sub    $0xc,%esp
   87842:	6a 48                	push   $0x48
   87844:	e8 fd 18 00 00       	call   89146 <send_char>
   87849:	83 c4 10             	add    $0x10,%esp
   8784c:	e9 06 01 00 00       	jmp    87957 <nl_be_qemu_keydown+0x67d>
   87851:	83 ec 0c             	sub    $0xc,%esp
   87854:	6a 4a                	push   $0x4a
   87856:	e8 eb 18 00 00       	call   89146 <send_char>
   8785b:	83 c4 10             	add    $0x10,%esp
   8785e:	e9 f4 00 00 00       	jmp    87957 <nl_be_qemu_keydown+0x67d>
   87863:	83 ec 0c             	sub    $0xc,%esp
   87866:	6a 4b                	push   $0x4b
   87868:	e8 d9 18 00 00       	call   89146 <send_char>
   8786d:	83 c4 10             	add    $0x10,%esp
   87870:	e9 e2 00 00 00       	jmp    87957 <nl_be_qemu_keydown+0x67d>
   87875:	83 ec 0c             	sub    $0xc,%esp
   87878:	6a 4c                	push   $0x4c
   8787a:	e8 c7 18 00 00       	call   89146 <send_char>
   8787f:	83 c4 10             	add    $0x10,%esp
   87882:	e9 d0 00 00 00       	jmp    87957 <nl_be_qemu_keydown+0x67d>
   87887:	83 ec 0c             	sub    $0xc,%esp
   8788a:	6a 25                	push   $0x25
   8788c:	e8 b5 18 00 00       	call   89146 <send_char>
   87891:	83 c4 10             	add    $0x10,%esp
   87894:	e9 be 00 00 00       	jmp    87957 <nl_be_qemu_keydown+0x67d>
   87899:	83 ec 0c             	sub    $0xc,%esp
   8789c:	6a 5a                	push   $0x5a
   8789e:	e8 a3 18 00 00       	call   89146 <send_char>
   878a3:	83 c4 10             	add    $0x10,%esp
   878a6:	e9 ac 00 00 00       	jmp    87957 <nl_be_qemu_keydown+0x67d>
   878ab:	83 ec 0c             	sub    $0xc,%esp
   878ae:	6a 58                	push   $0x58
   878b0:	e8 91 18 00 00       	call   89146 <send_char>
   878b5:	83 c4 10             	add    $0x10,%esp
   878b8:	e9 9a 00 00 00       	jmp    87957 <nl_be_qemu_keydown+0x67d>
   878bd:	83 ec 0c             	sub    $0xc,%esp
   878c0:	6a 43                	push   $0x43
   878c2:	e8 7f 18 00 00       	call   89146 <send_char>
   878c7:	83 c4 10             	add    $0x10,%esp
   878ca:	e9 88 00 00 00       	jmp    87957 <nl_be_qemu_keydown+0x67d>
   878cf:	83 ec 0c             	sub    $0xc,%esp
   878d2:	6a 56                	push   $0x56
   878d4:	e8 6d 18 00 00       	call   89146 <send_char>
   878d9:	83 c4 10             	add    $0x10,%esp
   878dc:	eb 79                	jmp    87957 <nl_be_qemu_keydown+0x67d>
   878de:	83 ec 0c             	sub    $0xc,%esp
   878e1:	6a 42                	push   $0x42
   878e3:	e8 5e 18 00 00       	call   89146 <send_char>
   878e8:	83 c4 10             	add    $0x10,%esp
   878eb:	eb 6a                	jmp    87957 <nl_be_qemu_keydown+0x67d>
   878ed:	83 ec 0c             	sub    $0xc,%esp
   878f0:	6a 4e                	push   $0x4e
   878f2:	e8 4f 18 00 00       	call   89146 <send_char>
   878f7:	83 c4 10             	add    $0x10,%esp
   878fa:	eb 5b                	jmp    87957 <nl_be_qemu_keydown+0x67d>
   878fc:	83 ec 0c             	sub    $0xc,%esp
   878ff:	6a 4d                	push   $0x4d
   87901:	e8 40 18 00 00       	call   89146 <send_char>
   87906:	83 c4 10             	add    $0x10,%esp
   87909:	eb 4c                	jmp    87957 <nl_be_qemu_keydown+0x67d>
   8790b:	83 ec 0c             	sub    $0xc,%esp
   8790e:	6a 3f                	push   $0x3f
   87910:	e8 31 18 00 00       	call   89146 <send_char>
   87915:	83 c4 10             	add    $0x10,%esp
   87918:	eb 3d                	jmp    87957 <nl_be_qemu_keydown+0x67d>
   8791a:	83 ec 0c             	sub    $0xc,%esp
   8791d:	6a 2e                	push   $0x2e
   8791f:	e8 22 18 00 00       	call   89146 <send_char>
   87924:	83 c4 10             	add    $0x10,%esp
   87927:	eb 2e                	jmp    87957 <nl_be_qemu_keydown+0x67d>
   87929:	83 ec 0c             	sub    $0xc,%esp
   8792c:	6a 2f                	push   $0x2f
   8792e:	e8 13 18 00 00       	call   89146 <send_char>
   87933:	83 c4 10             	add    $0x10,%esp
   87936:	eb 1f                	jmp    87957 <nl_be_qemu_keydown+0x67d>
   87938:	83 ec 0c             	sub    $0xc,%esp
   8793b:	6a 2b                	push   $0x2b
   8793d:	e8 04 18 00 00       	call   89146 <send_char>
   87942:	83 c4 10             	add    $0x10,%esp
   87945:	eb 10                	jmp    87957 <nl_be_qemu_keydown+0x67d>
   87947:	83 ec 0c             	sub    $0xc,%esp
   8794a:	6a 20                	push   $0x20
   8794c:	e8 f5 17 00 00       	call   89146 <send_char>
   87951:	83 c4 10             	add    $0x10,%esp
   87954:	eb 01                	jmp    87957 <nl_be_qemu_keydown+0x67d>
   87956:	90                   	nop
   87957:	c9                   	leave  
   87958:	c3                   	ret    

00087959 <nl_be_qemu_keyup>:
   87959:	f3 0f 1e fb          	endbr32 
   8795d:	55                   	push   %ebp
   8795e:	89 e5                	mov    %esp,%ebp
   87960:	83 ec 04             	sub    $0x4,%esp
   87963:	8b 45 08             	mov    0x8(%ebp),%eax
   87966:	66 89 45 fc          	mov    %ax,-0x4(%ebp)
   8796a:	0f b7 45 fc          	movzwl -0x4(%ebp),%eax
   8796e:	6a 00                	push   $0x0
   87970:	50                   	push   %eax
   87971:	e8 02 f8 ff ff       	call   87178 <set_key_state>
   87976:	83 c4 08             	add    $0x8,%esp
   87979:	90                   	nop
   8797a:	c9                   	leave  
   8797b:	c3                   	ret    

0008797c <outb>:
   8797c:	55                   	push   %ebp
   8797d:	89 e5                	mov    %esp,%ebp
   8797f:	83 ec 08             	sub    $0x8,%esp
   87982:	8b 45 08             	mov    0x8(%ebp),%eax
   87985:	8b 55 0c             	mov    0xc(%ebp),%edx
   87988:	66 89 45 fc          	mov    %ax,-0x4(%ebp)
   8798c:	89 d0                	mov    %edx,%eax
   8798e:	88 45 f8             	mov    %al,-0x8(%ebp)
   87991:	0f b6 45 f8          	movzbl -0x8(%ebp),%eax
   87995:	0f b7 55 fc          	movzwl -0x4(%ebp),%edx
   87999:	ee                   	out    %al,(%dx)
   8799a:	90                   	nop
   8799b:	c9                   	leave  
   8799c:	c3                   	ret    

0008799d <inb>:
   8799d:	55                   	push   %ebp
   8799e:	89 e5                	mov    %esp,%ebp
   879a0:	83 ec 14             	sub    $0x14,%esp
   879a3:	8b 45 08             	mov    0x8(%ebp),%eax
   879a6:	66 89 45 ec          	mov    %ax,-0x14(%ebp)
   879aa:	0f b7 45 ec          	movzwl -0x14(%ebp),%eax
   879ae:	89 c2                	mov    %eax,%edx
   879b0:	ec                   	in     (%dx),%al
   879b1:	88 45 ff             	mov    %al,-0x1(%ebp)
   879b4:	0f b6 45 ff          	movzbl -0x1(%ebp),%eax
   879b8:	c9                   	leave  
   879b9:	c3                   	ret    

000879ba <inw>:
   879ba:	55                   	push   %ebp
   879bb:	89 e5                	mov    %esp,%ebp
   879bd:	83 ec 14             	sub    $0x14,%esp
   879c0:	8b 45 08             	mov    0x8(%ebp),%eax
   879c3:	66 89 45 ec          	mov    %ax,-0x14(%ebp)
   879c7:	0f b7 45 ec          	movzwl -0x14(%ebp),%eax
   879cb:	89 c2                	mov    %eax,%edx
   879cd:	66 ed                	in     (%dx),%ax
   879cf:	66 89 45 fe          	mov    %ax,-0x2(%ebp)
   879d3:	0f b7 45 fe          	movzwl -0x2(%ebp),%eax
   879d7:	c9                   	leave  
   879d8:	c3                   	ret    

000879d9 <inl>:
   879d9:	55                   	push   %ebp
   879da:	89 e5                	mov    %esp,%ebp
   879dc:	83 ec 14             	sub    $0x14,%esp
   879df:	8b 45 08             	mov    0x8(%ebp),%eax
   879e2:	66 89 45 ec          	mov    %ax,-0x14(%ebp)
   879e6:	0f b7 45 ec          	movzwl -0x14(%ebp),%eax
   879ea:	89 c2                	mov    %eax,%edx
   879ec:	ed                   	in     (%dx),%eax
   879ed:	89 45 fc             	mov    %eax,-0x4(%ebp)
   879f0:	8b 45 fc             	mov    -0x4(%ebp),%eax
   879f3:	c9                   	leave  
   879f4:	c3                   	ret    

000879f5 <ide_write>:
   879f5:	f3 0f 1e fb          	endbr32 
   879f9:	55                   	push   %ebp
   879fa:	89 e5                	mov    %esp,%ebp
   879fc:	83 ec 28             	sub    $0x28,%esp
   879ff:	8b 4d 08             	mov    0x8(%ebp),%ecx
   87a02:	8b 55 0c             	mov    0xc(%ebp),%edx
   87a05:	8b 45 10             	mov    0x10(%ebp),%eax
   87a08:	88 4d e4             	mov    %cl,-0x1c(%ebp)
   87a0b:	88 55 e0             	mov    %dl,-0x20(%ebp)
   87a0e:	88 45 dc             	mov    %al,-0x24(%ebp)
   87a11:	0f b6 45 e4          	movzbl -0x1c(%ebp),%eax
   87a15:	c1 e0 03             	shl    $0x3,%eax
   87a18:	05 50 bd 0a 00       	add    $0xabd50,%eax
   87a1d:	89 45 f4             	mov    %eax,-0xc(%ebp)
   87a20:	80 7d e0 07          	cmpb   $0x7,-0x20(%ebp)
   87a24:	76 2b                	jbe    87a51 <ide_write+0x5c>
   87a26:	80 7d e0 0b          	cmpb   $0xb,-0x20(%ebp)
   87a2a:	77 25                	ja     87a51 <ide_write+0x5c>
   87a2c:	0f b6 45 e4          	movzbl -0x1c(%ebp),%eax
   87a30:	0f b6 04 c5 56 bd 0a 	movzbl 0xabd56(,%eax,8),%eax
   87a37:	00 
   87a38:	83 c8 80             	or     $0xffffff80,%eax
   87a3b:	0f b6 d0             	movzbl %al,%edx
   87a3e:	0f b6 45 e4          	movzbl -0x1c(%ebp),%eax
   87a42:	83 ec 04             	sub    $0x4,%esp
   87a45:	52                   	push   %edx
   87a46:	6a 0c                	push   $0xc
   87a48:	50                   	push   %eax
   87a49:	e8 a7 ff ff ff       	call   879f5 <ide_write>
   87a4e:	83 c4 10             	add    $0x10,%esp
   87a51:	80 7d e0 07          	cmpb   $0x7,-0x20(%ebp)
   87a55:	77 2b                	ja     87a82 <ide_write+0x8d>
   87a57:	0f b6 55 dc          	movzbl -0x24(%ebp),%edx
   87a5b:	0f b6 45 e4          	movzbl -0x1c(%ebp),%eax
   87a5f:	0f b7 0c c5 50 bd 0a 	movzwl 0xabd50(,%eax,8),%ecx
   87a66:	00 
   87a67:	0f b6 45 e0          	movzbl -0x20(%ebp),%eax
   87a6b:	01 c8                	add    %ecx,%eax
   87a6d:	0f b7 c0             	movzwl %ax,%eax
   87a70:	83 ec 08             	sub    $0x8,%esp
   87a73:	52                   	push   %edx
   87a74:	50                   	push   %eax
   87a75:	e8 02 ff ff ff       	call   8797c <outb>
   87a7a:	83 c4 10             	add    $0x10,%esp
   87a7d:	e9 91 00 00 00       	jmp    87b13 <ide_write+0x11e>
   87a82:	80 7d e0 0b          	cmpb   $0xb,-0x20(%ebp)
   87a86:	77 2b                	ja     87ab3 <ide_write+0xbe>
   87a88:	0f b6 55 dc          	movzbl -0x24(%ebp),%edx
   87a8c:	0f b6 45 e4          	movzbl -0x1c(%ebp),%eax
   87a90:	0f b7 0c c5 50 bd 0a 	movzwl 0xabd50(,%eax,8),%ecx
   87a97:	00 
   87a98:	0f b6 45 e0          	movzbl -0x20(%ebp),%eax
   87a9c:	01 c8                	add    %ecx,%eax
   87a9e:	83 e8 06             	sub    $0x6,%eax
   87aa1:	0f b7 c0             	movzwl %ax,%eax
   87aa4:	83 ec 08             	sub    $0x8,%esp
   87aa7:	52                   	push   %edx
   87aa8:	50                   	push   %eax
   87aa9:	e8 ce fe ff ff       	call   8797c <outb>
   87aae:	83 c4 10             	add    $0x10,%esp
   87ab1:	eb 60                	jmp    87b13 <ide_write+0x11e>
   87ab3:	80 7d e0 0d          	cmpb   $0xd,-0x20(%ebp)
   87ab7:	77 2b                	ja     87ae4 <ide_write+0xef>
   87ab9:	0f b6 55 dc          	movzbl -0x24(%ebp),%edx
   87abd:	0f b6 45 e4          	movzbl -0x1c(%ebp),%eax
   87ac1:	0f b7 0c c5 52 bd 0a 	movzwl 0xabd52(,%eax,8),%ecx
   87ac8:	00 
   87ac9:	0f b6 45 e0          	movzbl -0x20(%ebp),%eax
   87acd:	01 c8                	add    %ecx,%eax
   87acf:	83 e8 0a             	sub    $0xa,%eax
   87ad2:	0f b7 c0             	movzwl %ax,%eax
   87ad5:	83 ec 08             	sub    $0x8,%esp
   87ad8:	52                   	push   %edx
   87ad9:	50                   	push   %eax
   87ada:	e8 9d fe ff ff       	call   8797c <outb>
   87adf:	83 c4 10             	add    $0x10,%esp
   87ae2:	eb 2f                	jmp    87b13 <ide_write+0x11e>
   87ae4:	80 7d e0 15          	cmpb   $0x15,-0x20(%ebp)
   87ae8:	77 29                	ja     87b13 <ide_write+0x11e>
   87aea:	0f b6 55 dc          	movzbl -0x24(%ebp),%edx
   87aee:	0f b6 45 e4          	movzbl -0x1c(%ebp),%eax
   87af2:	0f b7 0c c5 54 bd 0a 	movzwl 0xabd54(,%eax,8),%ecx
   87af9:	00 
   87afa:	0f b6 45 e0          	movzbl -0x20(%ebp),%eax
   87afe:	01 c8                	add    %ecx,%eax
   87b00:	83 e8 0e             	sub    $0xe,%eax
   87b03:	0f b7 c0             	movzwl %ax,%eax
   87b06:	83 ec 08             	sub    $0x8,%esp
   87b09:	52                   	push   %edx
   87b0a:	50                   	push   %eax
   87b0b:	e8 6c fe ff ff       	call   8797c <outb>
   87b10:	83 c4 10             	add    $0x10,%esp
   87b13:	80 7d e0 07          	cmpb   $0x7,-0x20(%ebp)
   87b17:	76 28                	jbe    87b41 <ide_write+0x14c>
   87b19:	80 7d e0 0b          	cmpb   $0xb,-0x20(%ebp)
   87b1d:	77 22                	ja     87b41 <ide_write+0x14c>
   87b1f:	0f b6 45 e4          	movzbl -0x1c(%ebp),%eax
   87b23:	0f b6 04 c5 56 bd 0a 	movzbl 0xabd56(,%eax,8),%eax
   87b2a:	00 
   87b2b:	0f b6 d0             	movzbl %al,%edx
   87b2e:	0f b6 45 e4          	movzbl -0x1c(%ebp),%eax
   87b32:	83 ec 04             	sub    $0x4,%esp
   87b35:	52                   	push   %edx
   87b36:	6a 0c                	push   $0xc
   87b38:	50                   	push   %eax
   87b39:	e8 b7 fe ff ff       	call   879f5 <ide_write>
   87b3e:	83 c4 10             	add    $0x10,%esp
   87b41:	90                   	nop
   87b42:	c9                   	leave  
   87b43:	c3                   	ret    

00087b44 <ide_read>:
   87b44:	f3 0f 1e fb          	endbr32 
   87b48:	55                   	push   %ebp
   87b49:	89 e5                	mov    %esp,%ebp
   87b4b:	83 ec 28             	sub    $0x28,%esp
   87b4e:	8b 55 08             	mov    0x8(%ebp),%edx
   87b51:	8b 45 0c             	mov    0xc(%ebp),%eax
   87b54:	88 55 e4             	mov    %dl,-0x1c(%ebp)
   87b57:	88 45 e0             	mov    %al,-0x20(%ebp)
   87b5a:	80 7d e0 07          	cmpb   $0x7,-0x20(%ebp)
   87b5e:	76 2b                	jbe    87b8b <ide_read+0x47>
   87b60:	80 7d e0 0b          	cmpb   $0xb,-0x20(%ebp)
   87b64:	77 25                	ja     87b8b <ide_read+0x47>
   87b66:	0f b6 45 e4          	movzbl -0x1c(%ebp),%eax
   87b6a:	0f b6 04 c5 56 bd 0a 	movzbl 0xabd56(,%eax,8),%eax
   87b71:	00 
   87b72:	83 c8 80             	or     $0xffffff80,%eax
   87b75:	0f b6 d0             	movzbl %al,%edx
   87b78:	0f b6 45 e4          	movzbl -0x1c(%ebp),%eax
   87b7c:	83 ec 04             	sub    $0x4,%esp
   87b7f:	52                   	push   %edx
   87b80:	6a 0c                	push   $0xc
   87b82:	50                   	push   %eax
   87b83:	e8 6d fe ff ff       	call   879f5 <ide_write>
   87b88:	83 c4 10             	add    $0x10,%esp
   87b8b:	80 7d e0 07          	cmpb   $0x7,-0x20(%ebp)
   87b8f:	77 29                	ja     87bba <ide_read+0x76>
   87b91:	0f b6 45 e4          	movzbl -0x1c(%ebp),%eax
   87b95:	0f b7 14 c5 50 bd 0a 	movzwl 0xabd50(,%eax,8),%edx
   87b9c:	00 
   87b9d:	0f b6 45 e0          	movzbl -0x20(%ebp),%eax
   87ba1:	01 d0                	add    %edx,%eax
   87ba3:	0f b7 c0             	movzwl %ax,%eax
   87ba6:	83 ec 0c             	sub    $0xc,%esp
   87ba9:	50                   	push   %eax
   87baa:	e8 ee fd ff ff       	call   8799d <inb>
   87baf:	83 c4 10             	add    $0x10,%esp
   87bb2:	88 45 f7             	mov    %al,-0x9(%ebp)
   87bb5:	e9 8b 00 00 00       	jmp    87c45 <ide_read+0x101>
   87bba:	80 7d e0 0b          	cmpb   $0xb,-0x20(%ebp)
   87bbe:	77 29                	ja     87be9 <ide_read+0xa5>
   87bc0:	0f b6 45 e4          	movzbl -0x1c(%ebp),%eax
   87bc4:	0f b7 14 c5 50 bd 0a 	movzwl 0xabd50(,%eax,8),%edx
   87bcb:	00 
   87bcc:	0f b6 45 e0          	movzbl -0x20(%ebp),%eax
   87bd0:	01 d0                	add    %edx,%eax
   87bd2:	83 e8 06             	sub    $0x6,%eax
   87bd5:	0f b7 c0             	movzwl %ax,%eax
   87bd8:	83 ec 0c             	sub    $0xc,%esp
   87bdb:	50                   	push   %eax
   87bdc:	e8 bc fd ff ff       	call   8799d <inb>
   87be1:	83 c4 10             	add    $0x10,%esp
   87be4:	88 45 f7             	mov    %al,-0x9(%ebp)
   87be7:	eb 5c                	jmp    87c45 <ide_read+0x101>
   87be9:	80 7d e0 0d          	cmpb   $0xd,-0x20(%ebp)
   87bed:	77 29                	ja     87c18 <ide_read+0xd4>
   87bef:	0f b6 45 e4          	movzbl -0x1c(%ebp),%eax
   87bf3:	0f b7 14 c5 52 bd 0a 	movzwl 0xabd52(,%eax,8),%edx
   87bfa:	00 
   87bfb:	0f b6 45 e0          	movzbl -0x20(%ebp),%eax
   87bff:	01 d0                	add    %edx,%eax
   87c01:	83 e8 0a             	sub    $0xa,%eax
   87c04:	0f b7 c0             	movzwl %ax,%eax
   87c07:	83 ec 0c             	sub    $0xc,%esp
   87c0a:	50                   	push   %eax
   87c0b:	e8 8d fd ff ff       	call   8799d <inb>
   87c10:	83 c4 10             	add    $0x10,%esp
   87c13:	88 45 f7             	mov    %al,-0x9(%ebp)
   87c16:	eb 2d                	jmp    87c45 <ide_read+0x101>
   87c18:	80 7d e0 15          	cmpb   $0x15,-0x20(%ebp)
   87c1c:	77 27                	ja     87c45 <ide_read+0x101>
   87c1e:	0f b6 45 e4          	movzbl -0x1c(%ebp),%eax
   87c22:	0f b7 14 c5 54 bd 0a 	movzwl 0xabd54(,%eax,8),%edx
   87c29:	00 
   87c2a:	0f b6 45 e0          	movzbl -0x20(%ebp),%eax
   87c2e:	01 d0                	add    %edx,%eax
   87c30:	83 e8 0e             	sub    $0xe,%eax
   87c33:	0f b7 c0             	movzwl %ax,%eax
   87c36:	83 ec 0c             	sub    $0xc,%esp
   87c39:	50                   	push   %eax
   87c3a:	e8 5e fd ff ff       	call   8799d <inb>
   87c3f:	83 c4 10             	add    $0x10,%esp
   87c42:	88 45 f7             	mov    %al,-0x9(%ebp)
   87c45:	80 7d e0 07          	cmpb   $0x7,-0x20(%ebp)
   87c49:	76 28                	jbe    87c73 <ide_read+0x12f>
   87c4b:	80 7d e0 0b          	cmpb   $0xb,-0x20(%ebp)
   87c4f:	77 22                	ja     87c73 <ide_read+0x12f>
   87c51:	0f b6 45 e4          	movzbl -0x1c(%ebp),%eax
   87c55:	0f b6 04 c5 56 bd 0a 	movzbl 0xabd56(,%eax,8),%eax
   87c5c:	00 
   87c5d:	0f b6 d0             	movzbl %al,%edx
   87c60:	0f b6 45 e4          	movzbl -0x1c(%ebp),%eax
   87c64:	83 ec 04             	sub    $0x4,%esp
   87c67:	52                   	push   %edx
   87c68:	6a 0c                	push   $0xc
   87c6a:	50                   	push   %eax
   87c6b:	e8 85 fd ff ff       	call   879f5 <ide_write>
   87c70:	83 c4 10             	add    $0x10,%esp
   87c73:	0f b6 45 f7          	movzbl -0x9(%ebp),%eax
   87c77:	c9                   	leave  
   87c78:	c3                   	ret    

00087c79 <ide_readl>:
   87c79:	f3 0f 1e fb          	endbr32 
   87c7d:	55                   	push   %ebp
   87c7e:	89 e5                	mov    %esp,%ebp
   87c80:	83 ec 28             	sub    $0x28,%esp
   87c83:	8b 55 08             	mov    0x8(%ebp),%edx
   87c86:	8b 45 0c             	mov    0xc(%ebp),%eax
   87c89:	88 55 e4             	mov    %dl,-0x1c(%ebp)
   87c8c:	88 45 e0             	mov    %al,-0x20(%ebp)
   87c8f:	80 7d e0 07          	cmpb   $0x7,-0x20(%ebp)
   87c93:	76 2b                	jbe    87cc0 <ide_readl+0x47>
   87c95:	80 7d e0 0b          	cmpb   $0xb,-0x20(%ebp)
   87c99:	77 25                	ja     87cc0 <ide_readl+0x47>
   87c9b:	0f b6 45 e4          	movzbl -0x1c(%ebp),%eax
   87c9f:	0f b6 04 c5 56 bd 0a 	movzbl 0xabd56(,%eax,8),%eax
   87ca6:	00 
   87ca7:	83 c8 80             	or     $0xffffff80,%eax
   87caa:	0f b6 d0             	movzbl %al,%edx
   87cad:	0f b6 45 e4          	movzbl -0x1c(%ebp),%eax
   87cb1:	83 ec 04             	sub    $0x4,%esp
   87cb4:	52                   	push   %edx
   87cb5:	6a 0c                	push   $0xc
   87cb7:	50                   	push   %eax
   87cb8:	e8 38 fd ff ff       	call   879f5 <ide_write>
   87cbd:	83 c4 10             	add    $0x10,%esp
   87cc0:	80 7d e0 07          	cmpb   $0x7,-0x20(%ebp)
   87cc4:	77 29                	ja     87cef <ide_readl+0x76>
   87cc6:	0f b6 45 e4          	movzbl -0x1c(%ebp),%eax
   87cca:	0f b7 14 c5 50 bd 0a 	movzwl 0xabd50(,%eax,8),%edx
   87cd1:	00 
   87cd2:	0f b6 45 e0          	movzbl -0x20(%ebp),%eax
   87cd6:	01 d0                	add    %edx,%eax
   87cd8:	0f b7 c0             	movzwl %ax,%eax
   87cdb:	83 ec 0c             	sub    $0xc,%esp
   87cde:	50                   	push   %eax
   87cdf:	e8 f5 fc ff ff       	call   879d9 <inl>
   87ce4:	83 c4 10             	add    $0x10,%esp
   87ce7:	89 45 f4             	mov    %eax,-0xc(%ebp)
   87cea:	e9 8b 00 00 00       	jmp    87d7a <ide_readl+0x101>
   87cef:	80 7d e0 0b          	cmpb   $0xb,-0x20(%ebp)
   87cf3:	77 29                	ja     87d1e <ide_readl+0xa5>
   87cf5:	0f b6 45 e4          	movzbl -0x1c(%ebp),%eax
   87cf9:	0f b7 14 c5 50 bd 0a 	movzwl 0xabd50(,%eax,8),%edx
   87d00:	00 
   87d01:	0f b6 45 e0          	movzbl -0x20(%ebp),%eax
   87d05:	01 d0                	add    %edx,%eax
   87d07:	83 e8 06             	sub    $0x6,%eax
   87d0a:	0f b7 c0             	movzwl %ax,%eax
   87d0d:	83 ec 0c             	sub    $0xc,%esp
   87d10:	50                   	push   %eax
   87d11:	e8 c3 fc ff ff       	call   879d9 <inl>
   87d16:	83 c4 10             	add    $0x10,%esp
   87d19:	89 45 f4             	mov    %eax,-0xc(%ebp)
   87d1c:	eb 5c                	jmp    87d7a <ide_readl+0x101>
   87d1e:	80 7d e0 0d          	cmpb   $0xd,-0x20(%ebp)
   87d22:	77 29                	ja     87d4d <ide_readl+0xd4>
   87d24:	0f b6 45 e4          	movzbl -0x1c(%ebp),%eax
   87d28:	0f b7 14 c5 52 bd 0a 	movzwl 0xabd52(,%eax,8),%edx
   87d2f:	00 
   87d30:	0f b6 45 e0          	movzbl -0x20(%ebp),%eax
   87d34:	01 d0                	add    %edx,%eax
   87d36:	83 e8 0a             	sub    $0xa,%eax
   87d39:	0f b7 c0             	movzwl %ax,%eax
   87d3c:	83 ec 0c             	sub    $0xc,%esp
   87d3f:	50                   	push   %eax
   87d40:	e8 94 fc ff ff       	call   879d9 <inl>
   87d45:	83 c4 10             	add    $0x10,%esp
   87d48:	89 45 f4             	mov    %eax,-0xc(%ebp)
   87d4b:	eb 2d                	jmp    87d7a <ide_readl+0x101>
   87d4d:	80 7d e0 15          	cmpb   $0x15,-0x20(%ebp)
   87d51:	77 27                	ja     87d7a <ide_readl+0x101>
   87d53:	0f b6 45 e4          	movzbl -0x1c(%ebp),%eax
   87d57:	0f b7 14 c5 54 bd 0a 	movzwl 0xabd54(,%eax,8),%edx
   87d5e:	00 
   87d5f:	0f b6 45 e0          	movzbl -0x20(%ebp),%eax
   87d63:	01 d0                	add    %edx,%eax
   87d65:	83 e8 0e             	sub    $0xe,%eax
   87d68:	0f b7 c0             	movzwl %ax,%eax
   87d6b:	83 ec 0c             	sub    $0xc,%esp
   87d6e:	50                   	push   %eax
   87d6f:	e8 65 fc ff ff       	call   879d9 <inl>
   87d74:	83 c4 10             	add    $0x10,%esp
   87d77:	89 45 f4             	mov    %eax,-0xc(%ebp)
   87d7a:	80 7d e0 07          	cmpb   $0x7,-0x20(%ebp)
   87d7e:	76 28                	jbe    87da8 <ide_readl+0x12f>
   87d80:	80 7d e0 0b          	cmpb   $0xb,-0x20(%ebp)
   87d84:	77 22                	ja     87da8 <ide_readl+0x12f>
   87d86:	0f b6 45 e4          	movzbl -0x1c(%ebp),%eax
   87d8a:	0f b6 04 c5 56 bd 0a 	movzbl 0xabd56(,%eax,8),%eax
   87d91:	00 
   87d92:	0f b6 d0             	movzbl %al,%edx
   87d95:	0f b6 45 e4          	movzbl -0x1c(%ebp),%eax
   87d99:	83 ec 04             	sub    $0x4,%esp
   87d9c:	52                   	push   %edx
   87d9d:	6a 0c                	push   $0xc
   87d9f:	50                   	push   %eax
   87da0:	e8 50 fc ff ff       	call   879f5 <ide_write>
   87da5:	83 c4 10             	add    $0x10,%esp
   87da8:	8b 45 f4             	mov    -0xc(%ebp),%eax
   87dab:	c9                   	leave  
   87dac:	c3                   	ret    

00087dad <ide_select_drive>:
   87dad:	f3 0f 1e fb          	endbr32 
   87db1:	55                   	push   %ebp
   87db2:	89 e5                	mov    %esp,%ebp
   87db4:	83 ec 28             	sub    $0x28,%esp
   87db7:	8b 55 08             	mov    0x8(%ebp),%edx
   87dba:	8b 45 0c             	mov    0xc(%ebp),%eax
   87dbd:	88 55 e4             	mov    %dl,-0x1c(%ebp)
   87dc0:	88 45 e0             	mov    %al,-0x20(%ebp)
   87dc3:	0f b6 45 e4          	movzbl -0x1c(%ebp),%eax
   87dc7:	83 ec 08             	sub    $0x8,%esp
   87dca:	6a 06                	push   $0x6
   87dcc:	50                   	push   %eax
   87dcd:	e8 72 fd ff ff       	call   87b44 <ide_read>
   87dd2:	83 c4 10             	add    $0x10,%esp
   87dd5:	88 45 f7             	mov    %al,-0x9(%ebp)
   87dd8:	0f b6 45 f7          	movzbl -0x9(%ebp),%eax
   87ddc:	83 e0 ef             	and    $0xffffffef,%eax
   87ddf:	89 c2                	mov    %eax,%edx
   87de1:	0f b6 45 e0          	movzbl -0x20(%ebp),%eax
   87de5:	c1 e0 04             	shl    $0x4,%eax
   87de8:	09 d0                	or     %edx,%eax
   87dea:	0f b6 d0             	movzbl %al,%edx
   87ded:	0f b6 45 e4          	movzbl -0x1c(%ebp),%eax
   87df1:	83 ec 04             	sub    $0x4,%esp
   87df4:	52                   	push   %edx
   87df5:	6a 06                	push   $0x6
   87df7:	50                   	push   %eax
   87df8:	e8 f8 fb ff ff       	call   879f5 <ide_write>
   87dfd:	83 c4 10             	add    $0x10,%esp
   87e00:	90                   	nop
   87e01:	c9                   	leave  
   87e02:	c3                   	ret    

00087e03 <ide_lba_mode>:
   87e03:	f3 0f 1e fb          	endbr32 
   87e07:	55                   	push   %ebp
   87e08:	89 e5                	mov    %esp,%ebp
   87e0a:	83 ec 28             	sub    $0x28,%esp
   87e0d:	8b 55 08             	mov    0x8(%ebp),%edx
   87e10:	8b 45 0c             	mov    0xc(%ebp),%eax
   87e13:	88 55 e4             	mov    %dl,-0x1c(%ebp)
   87e16:	88 45 e0             	mov    %al,-0x20(%ebp)
   87e19:	0f b6 45 e4          	movzbl -0x1c(%ebp),%eax
   87e1d:	83 ec 08             	sub    $0x8,%esp
   87e20:	6a 06                	push   $0x6
   87e22:	50                   	push   %eax
   87e23:	e8 1c fd ff ff       	call   87b44 <ide_read>
   87e28:	83 c4 10             	add    $0x10,%esp
   87e2b:	88 45 f7             	mov    %al,-0x9(%ebp)
   87e2e:	0f b6 45 f7          	movzbl -0x9(%ebp),%eax
   87e32:	83 e0 bf             	and    $0xffffffbf,%eax
   87e35:	89 c2                	mov    %eax,%edx
   87e37:	0f b6 45 e0          	movzbl -0x20(%ebp),%eax
   87e3b:	c1 e0 06             	shl    $0x6,%eax
   87e3e:	09 d0                	or     %edx,%eax
   87e40:	0f b6 d0             	movzbl %al,%edx
   87e43:	0f b6 45 e4          	movzbl -0x1c(%ebp),%eax
   87e47:	83 ec 04             	sub    $0x4,%esp
   87e4a:	52                   	push   %edx
   87e4b:	6a 06                	push   $0x6
   87e4d:	50                   	push   %eax
   87e4e:	e8 a2 fb ff ff       	call   879f5 <ide_write>
   87e53:	83 c4 10             	add    $0x10,%esp
   87e56:	90                   	nop
   87e57:	c9                   	leave  
   87e58:	c3                   	ret    

00087e59 <ide_set_lba>:
   87e59:	f3 0f 1e fb          	endbr32 
   87e5d:	55                   	push   %ebp
   87e5e:	89 e5                	mov    %esp,%ebp
   87e60:	53                   	push   %ebx
   87e61:	83 ec 24             	sub    $0x24,%esp
   87e64:	8b 45 10             	mov    0x10(%ebp),%eax
   87e67:	88 45 e4             	mov    %al,-0x1c(%ebp)
   87e6a:	81 7d 0c ff ff ff 0f 	cmpl   $0xfffffff,0xc(%ebp)
   87e71:	76 36                	jbe    87ea9 <ide_set_lba+0x50>
   87e73:	c6 45 f7 02          	movb   $0x2,-0x9(%ebp)
   87e77:	8b 45 0c             	mov    0xc(%ebp),%eax
   87e7a:	88 45 eb             	mov    %al,-0x15(%ebp)
   87e7d:	8b 45 0c             	mov    0xc(%ebp),%eax
   87e80:	c1 e8 08             	shr    $0x8,%eax
   87e83:	88 45 ec             	mov    %al,-0x14(%ebp)
   87e86:	8b 45 0c             	mov    0xc(%ebp),%eax
   87e89:	c1 e8 10             	shr    $0x10,%eax
   87e8c:	88 45 ed             	mov    %al,-0x13(%ebp)
   87e8f:	8b 45 0c             	mov    0xc(%ebp),%eax
   87e92:	c1 e8 18             	shr    $0x18,%eax
   87e95:	88 45 ee             	mov    %al,-0x12(%ebp)
   87e98:	c6 45 ef 00          	movb   $0x0,-0x11(%ebp)
   87e9c:	c6 45 f0 00          	movb   $0x0,-0x10(%ebp)
   87ea0:	c6 45 f6 00          	movb   $0x0,-0xa(%ebp)
   87ea4:	e9 19 01 00 00       	jmp    87fc2 <ide_set_lba+0x169>
   87ea9:	8b 45 08             	mov    0x8(%ebp),%eax
   87eac:	0f b7 40 12          	movzwl 0x12(%eax),%eax
   87eb0:	0f b7 c0             	movzwl %ax,%eax
   87eb3:	25 00 02 00 00       	and    $0x200,%eax
   87eb8:	85 c0                	test   %eax,%eax
   87eba:	74 39                	je     87ef5 <ide_set_lba+0x9c>
   87ebc:	c6 45 f7 01          	movb   $0x1,-0x9(%ebp)
   87ec0:	8b 45 0c             	mov    0xc(%ebp),%eax
   87ec3:	88 45 eb             	mov    %al,-0x15(%ebp)
   87ec6:	8b 45 0c             	mov    0xc(%ebp),%eax
   87ec9:	c1 e8 08             	shr    $0x8,%eax
   87ecc:	88 45 ec             	mov    %al,-0x14(%ebp)
   87ecf:	8b 45 0c             	mov    0xc(%ebp),%eax
   87ed2:	c1 e8 10             	shr    $0x10,%eax
   87ed5:	88 45 ed             	mov    %al,-0x13(%ebp)
   87ed8:	c6 45 ee 00          	movb   $0x0,-0x12(%ebp)
   87edc:	c6 45 ef 00          	movb   $0x0,-0x11(%ebp)
   87ee0:	c6 45 f0 00          	movb   $0x0,-0x10(%ebp)
   87ee4:	8b 45 0c             	mov    0xc(%ebp),%eax
   87ee7:	c1 e8 18             	shr    $0x18,%eax
   87eea:	83 e0 0f             	and    $0xf,%eax
   87eed:	88 45 f6             	mov    %al,-0xa(%ebp)
   87ef0:	e9 cd 00 00 00       	jmp    87fc2 <ide_set_lba+0x169>
   87ef5:	8b 45 08             	mov    0x8(%ebp),%eax
   87ef8:	0f b7 40 12          	movzwl 0x12(%eax),%eax
   87efc:	0f b7 c0             	movzwl %ax,%eax
   87eff:	25 00 02 00 00       	and    $0x200,%eax
   87f04:	85 c0                	test   %eax,%eax
   87f06:	0f 84 b6 00 00 00    	je     87fc2 <ide_set_lba+0x169>
   87f0c:	c6 45 f7 00          	movb   $0x0,-0x9(%ebp)
   87f10:	8b 4d 0c             	mov    0xc(%ebp),%ecx
   87f13:	ba 05 41 10 04       	mov    $0x4104105,%edx
   87f18:	89 c8                	mov    %ecx,%eax
   87f1a:	f7 e2                	mul    %edx
   87f1c:	89 c8                	mov    %ecx,%eax
   87f1e:	29 d0                	sub    %edx,%eax
   87f20:	d1 e8                	shr    %eax
   87f22:	01 d0                	add    %edx,%eax
   87f24:	c1 e8 05             	shr    $0x5,%eax
   87f27:	89 c2                	mov    %eax,%edx
   87f29:	89 d0                	mov    %edx,%eax
   87f2b:	c1 e0 06             	shl    $0x6,%eax
   87f2e:	29 d0                	sub    %edx,%eax
   87f30:	29 c1                	sub    %eax,%ecx
   87f32:	89 ca                	mov    %ecx,%edx
   87f34:	89 d0                	mov    %edx,%eax
   87f36:	83 c0 01             	add    $0x1,%eax
   87f39:	88 45 f5             	mov    %al,-0xb(%ebp)
   87f3c:	0f b6 45 f5          	movzbl -0xb(%ebp),%eax
   87f40:	8b 55 0c             	mov    0xc(%ebp),%edx
   87f43:	29 c2                	sub    %eax,%edx
   87f45:	89 d0                	mov    %edx,%eax
   87f47:	83 c0 01             	add    $0x1,%eax
   87f4a:	c1 e8 04             	shr    $0x4,%eax
   87f4d:	ba 11 04 41 10       	mov    $0x10410411,%edx
   87f52:	f7 e2                	mul    %edx
   87f54:	89 d0                	mov    %edx,%eax
   87f56:	c1 e8 02             	shr    $0x2,%eax
   87f59:	66 89 45 f2          	mov    %ax,-0xe(%ebp)
   87f5d:	0f b6 45 f5          	movzbl -0xb(%ebp),%eax
   87f61:	8b 55 0c             	mov    0xc(%ebp),%edx
   87f64:	29 c2                	sub    %eax,%edx
   87f66:	89 d0                	mov    %edx,%eax
   87f68:	8d 58 01             	lea    0x1(%eax),%ebx
   87f6b:	89 d8                	mov    %ebx,%eax
   87f6d:	c1 e8 04             	shr    $0x4,%eax
   87f70:	ba 11 04 41 10       	mov    $0x10410411,%edx
   87f75:	f7 e2                	mul    %edx
   87f77:	89 d1                	mov    %edx,%ecx
   87f79:	c1 e9 02             	shr    $0x2,%ecx
   87f7c:	69 c1 f0 03 00 00    	imul   $0x3f0,%ecx,%eax
   87f82:	29 c3                	sub    %eax,%ebx
   87f84:	89 d9                	mov    %ebx,%ecx
   87f86:	ba 05 41 10 04       	mov    $0x4104105,%edx
   87f8b:	89 c8                	mov    %ecx,%eax
   87f8d:	f7 e2                	mul    %edx
   87f8f:	89 c8                	mov    %ecx,%eax
   87f91:	29 d0                	sub    %edx,%eax
   87f93:	d1 e8                	shr    %eax
   87f95:	01 d0                	add    %edx,%eax
   87f97:	c1 e8 05             	shr    $0x5,%eax
   87f9a:	88 45 f1             	mov    %al,-0xf(%ebp)
   87f9d:	0f b6 45 f5          	movzbl -0xb(%ebp),%eax
   87fa1:	88 45 eb             	mov    %al,-0x15(%ebp)
   87fa4:	0f b7 45 f2          	movzwl -0xe(%ebp),%eax
   87fa8:	88 45 ec             	mov    %al,-0x14(%ebp)
   87fab:	0f b7 45 f2          	movzwl -0xe(%ebp),%eax
   87faf:	66 c1 e8 08          	shr    $0x8,%ax
   87fb3:	88 45 ed             	mov    %al,-0x13(%ebp)
   87fb6:	c6 45 ee 00          	movb   $0x0,-0x12(%ebp)
   87fba:	c6 45 ef 00          	movb   $0x0,-0x11(%ebp)
   87fbe:	c6 45 f0 00          	movb   $0x0,-0x10(%ebp)
   87fc2:	8b 45 08             	mov    0x8(%ebp),%eax
   87fc5:	0f b6 40 0f          	movzbl 0xf(%eax),%eax
   87fc9:	0f b6 c0             	movzbl %al,%eax
   87fcc:	c1 e0 04             	shl    $0x4,%eax
   87fcf:	83 c8 a0             	or     $0xffffffa0,%eax
   87fd2:	89 c2                	mov    %eax,%edx
   87fd4:	80 7d f7 00          	cmpb   $0x0,-0x9(%ebp)
   87fd8:	74 07                	je     87fe1 <ide_set_lba+0x188>
   87fda:	b8 40 00 00 00       	mov    $0x40,%eax
   87fdf:	eb 05                	jmp    87fe6 <ide_set_lba+0x18d>
   87fe1:	b8 00 00 00 00       	mov    $0x0,%eax
   87fe6:	09 c2                	or     %eax,%edx
   87fe8:	0f b6 45 f6          	movzbl -0xa(%ebp),%eax
   87fec:	09 d0                	or     %edx,%eax
   87fee:	0f b6 d0             	movzbl %al,%edx
   87ff1:	8b 45 08             	mov    0x8(%ebp),%eax
   87ff4:	0f b6 40 0e          	movzbl 0xe(%eax),%eax
   87ff8:	0f b6 c0             	movzbl %al,%eax
   87ffb:	83 ec 04             	sub    $0x4,%esp
   87ffe:	52                   	push   %edx
   87fff:	6a 06                	push   $0x6
   88001:	50                   	push   %eax
   88002:	e8 ee f9 ff ff       	call   879f5 <ide_write>
   88007:	83 c4 10             	add    $0x10,%esp
   8800a:	80 7d f7 02          	cmpb   $0x2,-0x9(%ebp)
   8800e:	75 7a                	jne    8808a <ide_set_lba+0x231>
   88010:	8b 45 08             	mov    0x8(%ebp),%eax
   88013:	0f b6 40 0e          	movzbl 0xe(%eax),%eax
   88017:	0f b6 c0             	movzbl %al,%eax
   8801a:	83 ec 04             	sub    $0x4,%esp
   8801d:	6a 00                	push   $0x0
   8801f:	6a 08                	push   $0x8
   88021:	50                   	push   %eax
   88022:	e8 ce f9 ff ff       	call   879f5 <ide_write>
   88027:	83 c4 10             	add    $0x10,%esp
   8802a:	0f b6 45 ee          	movzbl -0x12(%ebp),%eax
   8802e:	0f b6 d0             	movzbl %al,%edx
   88031:	8b 45 08             	mov    0x8(%ebp),%eax
   88034:	0f b6 40 0e          	movzbl 0xe(%eax),%eax
   88038:	0f b6 c0             	movzbl %al,%eax
   8803b:	83 ec 04             	sub    $0x4,%esp
   8803e:	52                   	push   %edx
   8803f:	6a 09                	push   $0x9
   88041:	50                   	push   %eax
   88042:	e8 ae f9 ff ff       	call   879f5 <ide_write>
   88047:	83 c4 10             	add    $0x10,%esp
   8804a:	0f b6 45 ef          	movzbl -0x11(%ebp),%eax
   8804e:	0f b6 d0             	movzbl %al,%edx
   88051:	8b 45 08             	mov    0x8(%ebp),%eax
   88054:	0f b6 40 0e          	movzbl 0xe(%eax),%eax
   88058:	0f b6 c0             	movzbl %al,%eax
   8805b:	83 ec 04             	sub    $0x4,%esp
   8805e:	52                   	push   %edx
   8805f:	6a 0a                	push   $0xa
   88061:	50                   	push   %eax
   88062:	e8 8e f9 ff ff       	call   879f5 <ide_write>
   88067:	83 c4 10             	add    $0x10,%esp
   8806a:	0f b6 45 f0          	movzbl -0x10(%ebp),%eax
   8806e:	0f b6 d0             	movzbl %al,%edx
   88071:	8b 45 08             	mov    0x8(%ebp),%eax
   88074:	0f b6 40 0e          	movzbl 0xe(%eax),%eax
   88078:	0f b6 c0             	movzbl %al,%eax
   8807b:	83 ec 04             	sub    $0x4,%esp
   8807e:	52                   	push   %edx
   8807f:	6a 0b                	push   $0xb
   88081:	50                   	push   %eax
   88082:	e8 6e f9 ff ff       	call   879f5 <ide_write>
   88087:	83 c4 10             	add    $0x10,%esp
   8808a:	0f b6 55 e4          	movzbl -0x1c(%ebp),%edx
   8808e:	8b 45 08             	mov    0x8(%ebp),%eax
   88091:	0f b6 40 0e          	movzbl 0xe(%eax),%eax
   88095:	0f b6 c0             	movzbl %al,%eax
   88098:	83 ec 04             	sub    $0x4,%esp
   8809b:	52                   	push   %edx
   8809c:	6a 02                	push   $0x2
   8809e:	50                   	push   %eax
   8809f:	e8 51 f9 ff ff       	call   879f5 <ide_write>
   880a4:	83 c4 10             	add    $0x10,%esp
   880a7:	0f b6 45 eb          	movzbl -0x15(%ebp),%eax
   880ab:	0f b6 d0             	movzbl %al,%edx
   880ae:	8b 45 08             	mov    0x8(%ebp),%eax
   880b1:	0f b6 40 0e          	movzbl 0xe(%eax),%eax
   880b5:	0f b6 c0             	movzbl %al,%eax
   880b8:	83 ec 04             	sub    $0x4,%esp
   880bb:	52                   	push   %edx
   880bc:	6a 03                	push   $0x3
   880be:	50                   	push   %eax
   880bf:	e8 31 f9 ff ff       	call   879f5 <ide_write>
   880c4:	83 c4 10             	add    $0x10,%esp
   880c7:	0f b6 45 ec          	movzbl -0x14(%ebp),%eax
   880cb:	0f b6 d0             	movzbl %al,%edx
   880ce:	8b 45 08             	mov    0x8(%ebp),%eax
   880d1:	0f b6 40 0e          	movzbl 0xe(%eax),%eax
   880d5:	0f b6 c0             	movzbl %al,%eax
   880d8:	83 ec 04             	sub    $0x4,%esp
   880db:	52                   	push   %edx
   880dc:	6a 04                	push   $0x4
   880de:	50                   	push   %eax
   880df:	e8 11 f9 ff ff       	call   879f5 <ide_write>
   880e4:	83 c4 10             	add    $0x10,%esp
   880e7:	0f b6 45 ed          	movzbl -0x13(%ebp),%eax
   880eb:	0f b6 d0             	movzbl %al,%edx
   880ee:	8b 45 08             	mov    0x8(%ebp),%eax
   880f1:	0f b6 40 0e          	movzbl 0xe(%eax),%eax
   880f5:	0f b6 c0             	movzbl %al,%eax
   880f8:	83 ec 04             	sub    $0x4,%esp
   880fb:	52                   	push   %edx
   880fc:	6a 05                	push   $0x5
   880fe:	50                   	push   %eax
   880ff:	e8 f1 f8 ff ff       	call   879f5 <ide_write>
   88104:	83 c4 10             	add    $0x10,%esp
   88107:	0f b6 45 f7          	movzbl -0x9(%ebp),%eax
   8810b:	8b 5d fc             	mov    -0x4(%ebp),%ebx
   8810e:	c9                   	leave  
   8810f:	c3                   	ret    

00088110 <ide_polling>:
   88110:	f3 0f 1e fb          	endbr32 
   88114:	55                   	push   %ebp
   88115:	89 e5                	mov    %esp,%ebp
   88117:	83 ec 28             	sub    $0x28,%esp
   8811a:	8b 45 08             	mov    0x8(%ebp),%eax
   8811d:	88 45 e4             	mov    %al,-0x1c(%ebp)
   88120:	c7 45 f4 00 00 00 00 	movl   $0x0,-0xc(%ebp)
   88127:	eb 16                	jmp    8813f <ide_polling+0x2f>
   88129:	0f b6 45 e4          	movzbl -0x1c(%ebp),%eax
   8812d:	83 ec 08             	sub    $0x8,%esp
   88130:	6a 0c                	push   $0xc
   88132:	50                   	push   %eax
   88133:	e8 0c fa ff ff       	call   87b44 <ide_read>
   88138:	83 c4 10             	add    $0x10,%esp
   8813b:	83 45 f4 01          	addl   $0x1,-0xc(%ebp)
   8813f:	83 7d f4 03          	cmpl   $0x3,-0xc(%ebp)
   88143:	7e e4                	jle    88129 <ide_polling+0x19>
   88145:	90                   	nop
   88146:	0f b6 45 e4          	movzbl -0x1c(%ebp),%eax
   8814a:	83 ec 08             	sub    $0x8,%esp
   8814d:	6a 07                	push   $0x7
   8814f:	50                   	push   %eax
   88150:	e8 ef f9 ff ff       	call   87b44 <ide_read>
   88155:	83 c4 10             	add    $0x10,%esp
   88158:	84 c0                	test   %al,%al
   8815a:	78 ea                	js     88146 <ide_polling+0x36>
   8815c:	83 7d 0c 00          	cmpl   $0x0,0xc(%ebp)
   88160:	74 4b                	je     881ad <ide_polling+0x9d>
   88162:	0f b6 45 e4          	movzbl -0x1c(%ebp),%eax
   88166:	83 ec 08             	sub    $0x8,%esp
   88169:	6a 07                	push   $0x7
   8816b:	50                   	push   %eax
   8816c:	e8 d3 f9 ff ff       	call   87b44 <ide_read>
   88171:	83 c4 10             	add    $0x10,%esp
   88174:	88 45 f3             	mov    %al,-0xd(%ebp)
   88177:	0f b6 45 f3          	movzbl -0xd(%ebp),%eax
   8817b:	83 e0 01             	and    $0x1,%eax
   8817e:	85 c0                	test   %eax,%eax
   88180:	74 07                	je     88189 <ide_polling+0x79>
   88182:	b8 02 00 00 00       	mov    $0x2,%eax
   88187:	eb 29                	jmp    881b2 <ide_polling+0xa2>
   88189:	0f b6 45 f3          	movzbl -0xd(%ebp),%eax
   8818d:	83 e0 20             	and    $0x20,%eax
   88190:	85 c0                	test   %eax,%eax
   88192:	74 07                	je     8819b <ide_polling+0x8b>
   88194:	b8 01 00 00 00       	mov    $0x1,%eax
   88199:	eb 17                	jmp    881b2 <ide_polling+0xa2>
   8819b:	0f b6 45 f3          	movzbl -0xd(%ebp),%eax
   8819f:	83 e0 08             	and    $0x8,%eax
   881a2:	85 c0                	test   %eax,%eax
   881a4:	75 07                	jne    881ad <ide_polling+0x9d>
   881a6:	b8 03 00 00 00       	mov    $0x3,%eax
   881ab:	eb 05                	jmp    881b2 <ide_polling+0xa2>
   881ad:	b8 00 00 00 00       	mov    $0x0,%eax
   881b2:	c9                   	leave  
   881b3:	c3                   	ret    

000881b4 <ide_addDevice>:
   881b4:	f3 0f 1e fb          	endbr32 
   881b8:	55                   	push   %ebp
   881b9:	89 e5                	mov    %esp,%ebp
   881bb:	57                   	push   %edi
   881bc:	56                   	push   %esi
   881bd:	53                   	push   %ebx
   881be:	83 ec 5c             	sub    $0x5c,%esp
   881c1:	8b 5d 08             	mov    0x8(%ebp),%ebx
   881c4:	8b 4d 0c             	mov    0xc(%ebp),%ecx
   881c7:	8b 55 10             	mov    0x10(%ebp),%edx
   881ca:	8b 45 14             	mov    0x14(%ebp),%eax
   881cd:	88 5d a4             	mov    %bl,-0x5c(%ebp)
   881d0:	88 4d a0             	mov    %cl,-0x60(%ebp)
   881d3:	88 55 9c             	mov    %dl,-0x64(%ebp)
   881d6:	88 45 98             	mov    %al,-0x68(%ebp)
   881d9:	8b 45 18             	mov    0x18(%ebp),%eax
   881dc:	0f b7 00             	movzwl (%eax),%eax
   881df:	66 89 45 de          	mov    %ax,-0x22(%ebp)
   881e3:	8b 45 18             	mov    0x18(%ebp),%eax
   881e6:	0f b7 40 62          	movzwl 0x62(%eax),%eax
   881ea:	66 89 45 dc          	mov    %ax,-0x24(%ebp)
   881ee:	8b 45 18             	mov    0x18(%ebp),%eax
   881f1:	8b 80 a4 00 00 00    	mov    0xa4(%eax),%eax
   881f7:	89 45 d8             	mov    %eax,-0x28(%ebp)
   881fa:	8b 45 d8             	mov    -0x28(%ebp),%eax
   881fd:	25 00 00 00 04       	and    $0x4000000,%eax
   88202:	85 c0                	test   %eax,%eax
   88204:	74 0e                	je     88214 <ide_addDevice+0x60>
   88206:	8b 45 18             	mov    0x18(%ebp),%eax
   88209:	8b 80 c8 00 00 00    	mov    0xc8(%eax),%eax
   8820f:	89 45 e4             	mov    %eax,-0x1c(%ebp)
   88212:	eb 09                	jmp    8821d <ide_addDevice+0x69>
   88214:	8b 45 18             	mov    0x18(%ebp),%eax
   88217:	8b 40 78             	mov    0x78(%eax),%eax
   8821a:	89 45 e4             	mov    %eax,-0x1c(%ebp)
   8821d:	c7 45 e0 00 00 00 00 	movl   $0x0,-0x20(%ebp)
   88224:	eb 38                	jmp    8825e <ide_addDevice+0xaa>
   88226:	8b 45 e0             	mov    -0x20(%ebp),%eax
   88229:	8d 50 37             	lea    0x37(%eax),%edx
   8822c:	8b 45 18             	mov    0x18(%ebp),%eax
   8822f:	01 d0                	add    %edx,%eax
   88231:	0f b6 00             	movzbl (%eax),%eax
   88234:	89 c1                	mov    %eax,%ecx
   88236:	8d 55 b0             	lea    -0x50(%ebp),%edx
   88239:	8b 45 e0             	mov    -0x20(%ebp),%eax
   8823c:	01 d0                	add    %edx,%eax
   8823e:	88 08                	mov    %cl,(%eax)
   88240:	8b 45 e0             	mov    -0x20(%ebp),%eax
   88243:	83 c0 36             	add    $0x36,%eax
   88246:	89 c2                	mov    %eax,%edx
   88248:	8b 45 18             	mov    0x18(%ebp),%eax
   8824b:	01 d0                	add    %edx,%eax
   8824d:	0f b6 10             	movzbl (%eax),%edx
   88250:	8b 45 e0             	mov    -0x20(%ebp),%eax
   88253:	83 c0 01             	add    $0x1,%eax
   88256:	88 54 05 b0          	mov    %dl,-0x50(%ebp,%eax,1)
   8825a:	83 45 e0 02          	addl   $0x2,-0x20(%ebp)
   8825e:	83 7d e0 27          	cmpl   $0x27,-0x20(%ebp)
   88262:	7e c2                	jle    88226 <ide_addDevice+0x72>
   88264:	0f b7 7d dc          	movzwl -0x24(%ebp),%edi
   88268:	0f b7 75 de          	movzwl -0x22(%ebp),%esi
   8826c:	0f b6 5d 9c          	movzbl -0x64(%ebp),%ebx
   88270:	0f b6 4d a0          	movzbl -0x60(%ebp),%ecx
   88274:	0f b6 55 a4          	movzbl -0x5c(%ebp),%edx
   88278:	0f b6 45 98          	movzbl -0x68(%ebp),%eax
   8827c:	83 ec 0c             	sub    $0xc,%esp
   8827f:	ff 75 d8             	pushl  -0x28(%ebp)
   88282:	57                   	push   %edi
   88283:	56                   	push   %esi
   88284:	53                   	push   %ebx
   88285:	51                   	push   %ecx
   88286:	52                   	push   %edx
   88287:	50                   	push   %eax
   88288:	ff 75 e4             	pushl  -0x1c(%ebp)
   8828b:	8d 45 b0             	lea    -0x50(%ebp),%eax
   8828e:	50                   	push   %eax
   8828f:	e8 8e 10 00 00       	call   89322 <storage_addIDEDevice>
   88294:	83 c4 30             	add    $0x30,%esp
   88297:	90                   	nop
   88298:	8d 65 f4             	lea    -0xc(%ebp),%esp
   8829b:	5b                   	pop    %ebx
   8829c:	5e                   	pop    %esi
   8829d:	5f                   	pop    %edi
   8829e:	5d                   	pop    %ebp
   8829f:	c3                   	ret    

000882a0 <ide_search>:
   882a0:	f3 0f 1e fb          	endbr32 
   882a4:	55                   	push   %ebp
   882a5:	89 e5                	mov    %esp,%ebp
   882a7:	53                   	push   %ebx
   882a8:	81 ec 34 02 00 00    	sub    $0x234,%esp
   882ae:	83 ec 0c             	sub    $0xc,%esp
   882b1:	ff 75 08             	pushl  0x8(%ebp)
   882b4:	e8 b7 06 00 00       	call   88970 <pci_BAR0>
   882b9:	83 c4 10             	add    $0x10,%esp
   882bc:	89 45 e4             	mov    %eax,-0x1c(%ebp)
   882bf:	83 ec 0c             	sub    $0xc,%esp
   882c2:	ff 75 08             	pushl  0x8(%ebp)
   882c5:	e8 d9 06 00 00       	call   889a3 <pci_BAR1>
   882ca:	83 c4 10             	add    $0x10,%esp
   882cd:	89 45 e0             	mov    %eax,-0x20(%ebp)
   882d0:	83 ec 0c             	sub    $0xc,%esp
   882d3:	ff 75 08             	pushl  0x8(%ebp)
   882d6:	e8 fb 06 00 00       	call   889d6 <pci_BAR2>
   882db:	83 c4 10             	add    $0x10,%esp
   882de:	89 45 dc             	mov    %eax,-0x24(%ebp)
   882e1:	83 ec 0c             	sub    $0xc,%esp
   882e4:	ff 75 08             	pushl  0x8(%ebp)
   882e7:	e8 1d 07 00 00       	call   88a09 <pci_BAR3>
   882ec:	83 c4 10             	add    $0x10,%esp
   882ef:	89 45 d8             	mov    %eax,-0x28(%ebp)
   882f2:	83 ec 0c             	sub    $0xc,%esp
   882f5:	ff 75 08             	pushl  0x8(%ebp)
   882f8:	e8 3f 07 00 00       	call   88a3c <pci_BAR4>
   882fd:	83 c4 10             	add    $0x10,%esp
   88300:	89 45 d4             	mov    %eax,-0x2c(%ebp)
   88303:	83 7d e4 00          	cmpl   $0x0,-0x1c(%ebp)
   88307:	74 0a                	je     88313 <ide_search+0x73>
   88309:	8b 45 e4             	mov    -0x1c(%ebp),%eax
   8830c:	83 e0 fc             	and    $0xfffffffc,%eax
   8830f:	89 c2                	mov    %eax,%edx
   88311:	eb 05                	jmp    88318 <ide_search+0x78>
   88313:	ba f0 01 00 00       	mov    $0x1f0,%edx
   88318:	83 7d e0 00          	cmpl   $0x0,-0x20(%ebp)
   8831c:	74 08                	je     88326 <ide_search+0x86>
   8831e:	8b 45 e0             	mov    -0x20(%ebp),%eax
   88321:	83 e0 fc             	and    $0xfffffffc,%eax
   88324:	eb 05                	jmp    8832b <ide_search+0x8b>
   88326:	b8 f6 03 00 00       	mov    $0x3f6,%eax
   8832b:	8b 4d d4             	mov    -0x2c(%ebp),%ecx
   8832e:	83 e1 fc             	and    $0xfffffffc,%ecx
   88331:	c7 05 50 bd 0a 00 00 	movl   $0x0,0xabd50
   88338:	00 00 00 
   8833b:	c7 05 54 bd 0a 00 00 	movl   $0x0,0xabd54
   88342:	00 00 00 
   88345:	66 89 15 50 bd 0a 00 	mov    %dx,0xabd50
   8834c:	66 a3 52 bd 0a 00    	mov    %ax,0xabd52
   88352:	66 89 0d 54 bd 0a 00 	mov    %cx,0xabd54
   88359:	83 7d dc 00          	cmpl   $0x0,-0x24(%ebp)
   8835d:	74 0a                	je     88369 <ide_search+0xc9>
   8835f:	8b 45 dc             	mov    -0x24(%ebp),%eax
   88362:	83 e0 fc             	and    $0xfffffffc,%eax
   88365:	89 c2                	mov    %eax,%edx
   88367:	eb 05                	jmp    8836e <ide_search+0xce>
   88369:	ba 70 01 00 00       	mov    $0x170,%edx
   8836e:	83 7d d8 00          	cmpl   $0x0,-0x28(%ebp)
   88372:	74 08                	je     8837c <ide_search+0xdc>
   88374:	8b 45 d8             	mov    -0x28(%ebp),%eax
   88377:	83 e0 fc             	and    $0xfffffffc,%eax
   8837a:	eb 05                	jmp    88381 <ide_search+0xe1>
   8837c:	b8 76 03 00 00       	mov    $0x376,%eax
   88381:	8b 4d d4             	mov    -0x2c(%ebp),%ecx
   88384:	83 e1 fc             	and    $0xfffffffc,%ecx
   88387:	c7 05 58 bd 0a 00 00 	movl   $0x0,0xabd58
   8838e:	00 00 00 
   88391:	c7 05 5c bd 0a 00 00 	movl   $0x0,0xabd5c
   88398:	00 00 00 
   8839b:	66 89 15 58 bd 0a 00 	mov    %dx,0xabd58
   883a2:	66 a3 5a bd 0a 00    	mov    %ax,0xabd5a
   883a8:	66 89 0d 5c bd 0a 00 	mov    %cx,0xabd5c
   883af:	83 ec 04             	sub    $0x4,%esp
   883b2:	6a 02                	push   $0x2
   883b4:	6a 0c                	push   $0xc
   883b6:	6a 00                	push   $0x0
   883b8:	e8 38 f6 ff ff       	call   879f5 <ide_write>
   883bd:	83 c4 10             	add    $0x10,%esp
   883c0:	83 ec 04             	sub    $0x4,%esp
   883c3:	6a 02                	push   $0x2
   883c5:	6a 0c                	push   $0xc
   883c7:	6a 01                	push   $0x1
   883c9:	e8 27 f6 ff ff       	call   879f5 <ide_write>
   883ce:	83 c4 10             	add    $0x10,%esp
   883d1:	c7 45 f4 00 00 00 00 	movl   $0x0,-0xc(%ebp)
   883d8:	e9 c1 01 00 00       	jmp    8859e <ide_search+0x2fe>
   883dd:	c7 45 f0 00 00 00 00 	movl   $0x0,-0x10(%ebp)
   883e4:	e9 a7 01 00 00       	jmp    88590 <ide_search+0x2f0>
   883e9:	c6 45 ef 00          	movb   $0x0,-0x11(%ebp)
   883ed:	c6 45 ee 00          	movb   $0x0,-0x12(%ebp)
   883f1:	8b 45 f0             	mov    -0x10(%ebp),%eax
   883f4:	c1 e0 04             	shl    $0x4,%eax
   883f7:	83 c8 a0             	or     $0xffffffa0,%eax
   883fa:	0f b6 d0             	movzbl %al,%edx
   883fd:	8b 45 f4             	mov    -0xc(%ebp),%eax
   88400:	0f b6 c0             	movzbl %al,%eax
   88403:	83 ec 04             	sub    $0x4,%esp
   88406:	52                   	push   %edx
   88407:	6a 06                	push   $0x6
   88409:	50                   	push   %eax
   8840a:	e8 e6 f5 ff ff       	call   879f5 <ide_write>
   8840f:	83 c4 10             	add    $0x10,%esp
   88412:	83 ec 0c             	sub    $0xc,%esp
   88415:	6a 01                	push   $0x1
   88417:	e8 0a 0a 00 00       	call   88e26 <timer_sleep>
   8841c:	83 c4 10             	add    $0x10,%esp
   8841f:	8b 45 f4             	mov    -0xc(%ebp),%eax
   88422:	0f b6 c0             	movzbl %al,%eax
   88425:	83 ec 04             	sub    $0x4,%esp
   88428:	68 ec 00 00 00       	push   $0xec
   8842d:	6a 07                	push   $0x7
   8842f:	50                   	push   %eax
   88430:	e8 c0 f5 ff ff       	call   879f5 <ide_write>
   88435:	83 c4 10             	add    $0x10,%esp
   88438:	83 ec 0c             	sub    $0xc,%esp
   8843b:	6a 01                	push   $0x1
   8843d:	e8 e4 09 00 00       	call   88e26 <timer_sleep>
   88442:	83 c4 10             	add    $0x10,%esp
   88445:	8b 45 f4             	mov    -0xc(%ebp),%eax
   88448:	0f b6 c0             	movzbl %al,%eax
   8844b:	83 ec 08             	sub    $0x8,%esp
   8844e:	6a 07                	push   $0x7
   88450:	50                   	push   %eax
   88451:	e8 ee f6 ff ff       	call   87b44 <ide_read>
   88456:	83 c4 10             	add    $0x10,%esp
   88459:	84 c0                	test   %al,%al
   8845b:	0f 84 27 01 00 00    	je     88588 <ide_search+0x2e8>
   88461:	8b 45 f4             	mov    -0xc(%ebp),%eax
   88464:	0f b6 c0             	movzbl %al,%eax
   88467:	83 ec 08             	sub    $0x8,%esp
   8846a:	6a 07                	push   $0x7
   8846c:	50                   	push   %eax
   8846d:	e8 d2 f6 ff ff       	call   87b44 <ide_read>
   88472:	83 c4 10             	add    $0x10,%esp
   88475:	88 45 d3             	mov    %al,-0x2d(%ebp)
   88478:	0f b6 45 d3          	movzbl -0x2d(%ebp),%eax
   8847c:	83 e0 01             	and    $0x1,%eax
   8847f:	85 c0                	test   %eax,%eax
   88481:	74 06                	je     88489 <ide_search+0x1e9>
   88483:	c6 45 ef 01          	movb   $0x1,-0x11(%ebp)
   88487:	eb 16                	jmp    8849f <ide_search+0x1ff>
   88489:	0f b6 45 d3          	movzbl -0x2d(%ebp),%eax
   8848d:	84 c0                	test   %al,%al
   8848f:	78 d0                	js     88461 <ide_search+0x1c1>
   88491:	0f b6 45 d3          	movzbl -0x2d(%ebp),%eax
   88495:	83 e0 08             	and    $0x8,%eax
   88498:	85 c0                	test   %eax,%eax
   8849a:	75 02                	jne    8849e <ide_search+0x1fe>
   8849c:	eb c3                	jmp    88461 <ide_search+0x1c1>
   8849e:	90                   	nop
   8849f:	80 7d ef 00          	cmpb   $0x0,-0x11(%ebp)
   884a3:	74 7e                	je     88523 <ide_search+0x283>
   884a5:	8b 45 f4             	mov    -0xc(%ebp),%eax
   884a8:	0f b6 c0             	movzbl %al,%eax
   884ab:	83 ec 08             	sub    $0x8,%esp
   884ae:	6a 04                	push   $0x4
   884b0:	50                   	push   %eax
   884b1:	e8 8e f6 ff ff       	call   87b44 <ide_read>
   884b6:	83 c4 10             	add    $0x10,%esp
   884b9:	88 45 d2             	mov    %al,-0x2e(%ebp)
   884bc:	8b 45 f4             	mov    -0xc(%ebp),%eax
   884bf:	0f b6 c0             	movzbl %al,%eax
   884c2:	83 ec 08             	sub    $0x8,%esp
   884c5:	6a 05                	push   $0x5
   884c7:	50                   	push   %eax
   884c8:	e8 77 f6 ff ff       	call   87b44 <ide_read>
   884cd:	83 c4 10             	add    $0x10,%esp
   884d0:	88 45 d1             	mov    %al,-0x2f(%ebp)
   884d3:	80 7d d2 14          	cmpb   $0x14,-0x2e(%ebp)
   884d7:	75 0c                	jne    884e5 <ide_search+0x245>
   884d9:	80 7d d1 eb          	cmpb   $0xeb,-0x2f(%ebp)
   884dd:	75 06                	jne    884e5 <ide_search+0x245>
   884df:	c6 45 ee 01          	movb   $0x1,-0x12(%ebp)
   884e3:	eb 18                	jmp    884fd <ide_search+0x25d>
   884e5:	80 7d d2 69          	cmpb   $0x69,-0x2e(%ebp)
   884e9:	0f 85 9c 00 00 00    	jne    8858b <ide_search+0x2eb>
   884ef:	80 7d d1 96          	cmpb   $0x96,-0x2f(%ebp)
   884f3:	0f 85 92 00 00 00    	jne    8858b <ide_search+0x2eb>
   884f9:	c6 45 ee 01          	movb   $0x1,-0x12(%ebp)
   884fd:	8b 45 f4             	mov    -0xc(%ebp),%eax
   88500:	0f b6 c0             	movzbl %al,%eax
   88503:	83 ec 04             	sub    $0x4,%esp
   88506:	68 a1 00 00 00       	push   $0xa1
   8850b:	6a 07                	push   $0x7
   8850d:	50                   	push   %eax
   8850e:	e8 e2 f4 ff ff       	call   879f5 <ide_write>
   88513:	83 c4 10             	add    $0x10,%esp
   88516:	83 ec 0c             	sub    $0xc,%esp
   88519:	6a 01                	push   $0x1
   8851b:	e8 06 09 00 00       	call   88e26 <timer_sleep>
   88520:	83 c4 10             	add    $0x10,%esp
   88523:	c7 45 e8 00 00 00 00 	movl   $0x0,-0x18(%ebp)
   8852a:	eb 2d                	jmp    88559 <ide_search+0x2b9>
   8852c:	8b 45 f4             	mov    -0xc(%ebp),%eax
   8852f:	0f b6 c0             	movzbl %al,%eax
   88532:	8b 55 e8             	mov    -0x18(%ebp),%edx
   88535:	8d 0c 95 00 00 00 00 	lea    0x0(,%edx,4),%ecx
   8853c:	8d 95 d1 fd ff ff    	lea    -0x22f(%ebp),%edx
   88542:	8d 1c 0a             	lea    (%edx,%ecx,1),%ebx
   88545:	83 ec 08             	sub    $0x8,%esp
   88548:	6a 00                	push   $0x0
   8854a:	50                   	push   %eax
   8854b:	e8 29 f7 ff ff       	call   87c79 <ide_readl>
   88550:	83 c4 10             	add    $0x10,%esp
   88553:	89 03                	mov    %eax,(%ebx)
   88555:	83 45 e8 01          	addl   $0x1,-0x18(%ebp)
   88559:	83 7d e8 7f          	cmpl   $0x7f,-0x18(%ebp)
   8855d:	7e cd                	jle    8852c <ide_search+0x28c>
   8855f:	0f b6 4d ee          	movzbl -0x12(%ebp),%ecx
   88563:	8b 45 f0             	mov    -0x10(%ebp),%eax
   88566:	0f b6 d0             	movzbl %al,%edx
   88569:	8b 45 f4             	mov    -0xc(%ebp),%eax
   8856c:	0f b6 c0             	movzbl %al,%eax
   8856f:	83 ec 0c             	sub    $0xc,%esp
   88572:	8d 9d d1 fd ff ff    	lea    -0x22f(%ebp),%ebx
   88578:	53                   	push   %ebx
   88579:	51                   	push   %ecx
   8857a:	52                   	push   %edx
   8857b:	50                   	push   %eax
   8857c:	6a 01                	push   $0x1
   8857e:	e8 31 fc ff ff       	call   881b4 <ide_addDevice>
   88583:	83 c4 20             	add    $0x20,%esp
   88586:	eb 04                	jmp    8858c <ide_search+0x2ec>
   88588:	90                   	nop
   88589:	eb 01                	jmp    8858c <ide_search+0x2ec>
   8858b:	90                   	nop
   8858c:	83 45 f0 01          	addl   $0x1,-0x10(%ebp)
   88590:	83 7d f0 01          	cmpl   $0x1,-0x10(%ebp)
   88594:	0f 8e 4f fe ff ff    	jle    883e9 <ide_search+0x149>
   8859a:	83 45 f4 01          	addl   $0x1,-0xc(%ebp)
   8859e:	83 7d f4 01          	cmpl   $0x1,-0xc(%ebp)
   885a2:	0f 8e 35 fe ff ff    	jle    883dd <ide_search+0x13d>
   885a8:	90                   	nop
   885a9:	8b 5d fc             	mov    -0x4(%ebp),%ebx
   885ac:	c9                   	leave  
   885ad:	c3                   	ret    

000885ae <ide_ata_read>:
   885ae:	f3 0f 1e fb          	endbr32 
   885b2:	55                   	push   %ebp
   885b3:	89 e5                	mov    %esp,%ebp
   885b5:	53                   	push   %ebx
   885b6:	83 ec 24             	sub    $0x24,%esp
   885b9:	8b 45 10             	mov    0x10(%ebp),%eax
   885bc:	88 45 e4             	mov    %al,-0x1c(%ebp)
   885bf:	8b 45 08             	mov    0x8(%ebp),%eax
   885c2:	0f b6 40 0e          	movzbl 0xe(%eax),%eax
   885c6:	88 45 eb             	mov    %al,-0x15(%ebp)
   885c9:	0f b6 45 eb          	movzbl -0x15(%ebp),%eax
   885cd:	c6 04 c5 56 bd 0a 00 	movb   $0x2,0xabd56(,%eax,8)
   885d4:	02 
   885d5:	0f b6 45 eb          	movzbl -0x15(%ebp),%eax
   885d9:	83 ec 04             	sub    $0x4,%esp
   885dc:	6a 02                	push   $0x2
   885de:	6a 0c                	push   $0xc
   885e0:	50                   	push   %eax
   885e1:	e8 0f f4 ff ff       	call   879f5 <ide_write>
   885e6:	83 c4 10             	add    $0x10,%esp
   885e9:	90                   	nop
   885ea:	0f b6 45 eb          	movzbl -0x15(%ebp),%eax
   885ee:	83 ec 08             	sub    $0x8,%esp
   885f1:	6a 07                	push   $0x7
   885f3:	50                   	push   %eax
   885f4:	e8 4b f5 ff ff       	call   87b44 <ide_read>
   885f9:	83 c4 10             	add    $0x10,%esp
   885fc:	84 c0                	test   %al,%al
   885fe:	78 ea                	js     885ea <ide_ata_read+0x3c>
   88600:	0f b6 45 e4          	movzbl -0x1c(%ebp),%eax
   88604:	83 ec 04             	sub    $0x4,%esp
   88607:	50                   	push   %eax
   88608:	ff 75 0c             	pushl  0xc(%ebp)
   8860b:	ff 75 08             	pushl  0x8(%ebp)
   8860e:	e8 46 f8 ff ff       	call   87e59 <ide_set_lba>
   88613:	83 c4 10             	add    $0x10,%esp
   88616:	88 45 ea             	mov    %al,-0x16(%ebp)
   88619:	80 7d ea 02          	cmpb   $0x2,-0x16(%ebp)
   8861d:	75 06                	jne    88625 <ide_ata_read+0x77>
   8861f:	c6 45 f7 24          	movb   $0x24,-0x9(%ebp)
   88623:	eb 04                	jmp    88629 <ide_ata_read+0x7b>
   88625:	c6 45 f7 20          	movb   $0x20,-0x9(%ebp)
   88629:	0f b6 55 f7          	movzbl -0x9(%ebp),%edx
   8862d:	0f b6 45 eb          	movzbl -0x15(%ebp),%eax
   88631:	83 ec 04             	sub    $0x4,%esp
   88634:	52                   	push   %edx
   88635:	6a 07                	push   $0x7
   88637:	50                   	push   %eax
   88638:	e8 b8 f3 ff ff       	call   879f5 <ide_write>
   8863d:	83 c4 10             	add    $0x10,%esp
   88640:	c7 45 f0 00 00 00 00 	movl   $0x0,-0x10(%ebp)
   88647:	eb 6f                	jmp    886b8 <ide_ata_read+0x10a>
   88649:	0f b6 45 eb          	movzbl -0x15(%ebp),%eax
   8864d:	83 ec 08             	sub    $0x8,%esp
   88650:	6a 01                	push   $0x1
   88652:	50                   	push   %eax
   88653:	e8 b8 fa ff ff       	call   88110 <ide_polling>
   88658:	83 c4 10             	add    $0x10,%esp
   8865b:	88 45 e9             	mov    %al,-0x17(%ebp)
   8865e:	80 7d e9 00          	cmpb   $0x0,-0x17(%ebp)
   88662:	74 06                	je     8866a <ide_ata_read+0xbc>
   88664:	0f b6 45 e9          	movzbl -0x17(%ebp),%eax
   88668:	eb 5c                	jmp    886c6 <ide_ata_read+0x118>
   8866a:	c7 45 ec 00 00 00 00 	movl   $0x0,-0x14(%ebp)
   88671:	eb 38                	jmp    886ab <ide_ata_read+0xfd>
   88673:	0f b6 45 eb          	movzbl -0x15(%ebp),%eax
   88677:	0f b7 04 c5 50 bd 0a 	movzwl 0xabd50(,%eax,8),%eax
   8867e:	00 
   8867f:	0f b7 c0             	movzwl %ax,%eax
   88682:	8b 55 f0             	mov    -0x10(%ebp),%edx
   88685:	89 d1                	mov    %edx,%ecx
   88687:	c1 e1 08             	shl    $0x8,%ecx
   8868a:	8b 55 ec             	mov    -0x14(%ebp),%edx
   8868d:	01 ca                	add    %ecx,%edx
   8868f:	8d 0c 12             	lea    (%edx,%edx,1),%ecx
   88692:	8b 55 14             	mov    0x14(%ebp),%edx
   88695:	8d 1c 11             	lea    (%ecx,%edx,1),%ebx
   88698:	83 ec 0c             	sub    $0xc,%esp
   8869b:	50                   	push   %eax
   8869c:	e8 19 f3 ff ff       	call   879ba <inw>
   886a1:	83 c4 10             	add    $0x10,%esp
   886a4:	66 89 03             	mov    %ax,(%ebx)
   886a7:	83 45 ec 01          	addl   $0x1,-0x14(%ebp)
   886ab:	81 7d ec ff 00 00 00 	cmpl   $0xff,-0x14(%ebp)
   886b2:	7e bf                	jle    88673 <ide_ata_read+0xc5>
   886b4:	83 45 f0 01          	addl   $0x1,-0x10(%ebp)
   886b8:	0f b6 45 e4          	movzbl -0x1c(%ebp),%eax
   886bc:	39 45 f0             	cmp    %eax,-0x10(%ebp)
   886bf:	7c 88                	jl     88649 <ide_ata_read+0x9b>
   886c1:	b8 00 00 00 00       	mov    $0x0,%eax
   886c6:	8b 5d fc             	mov    -0x4(%ebp),%ebx
   886c9:	c9                   	leave  
   886ca:	c3                   	ret    

000886cb <ide_init>:
   886cb:	f3 0f 1e fb          	endbr32 
   886cf:	55                   	push   %ebp
   886d0:	89 e5                	mov    %esp,%ebp
   886d2:	83 ec 18             	sub    $0x18,%esp
   886d5:	c7 45 f4 00 00 00 00 	movl   $0x0,-0xc(%ebp)
   886dc:	eb 3b                	jmp    88719 <ide_init+0x4e>
   886de:	83 ec 0c             	sub    $0xc,%esp
   886e1:	ff 75 f4             	pushl  -0xc(%ebp)
   886e4:	e8 c7 03 00 00       	call   88ab0 <pci_getDevice>
   886e9:	83 c4 10             	add    $0x10,%esp
   886ec:	89 45 f0             	mov    %eax,-0x10(%ebp)
   886ef:	8b 45 f0             	mov    -0x10(%ebp),%eax
   886f2:	0f b6 40 08          	movzbl 0x8(%eax),%eax
   886f6:	3c 01                	cmp    $0x1,%al
   886f8:	75 1b                	jne    88715 <ide_init+0x4a>
   886fa:	8b 45 f0             	mov    -0x10(%ebp),%eax
   886fd:	0f b6 40 08          	movzbl 0x8(%eax),%eax
   88701:	3c 01                	cmp    $0x1,%al
   88703:	75 10                	jne    88715 <ide_init+0x4a>
   88705:	83 ec 0c             	sub    $0xc,%esp
   88708:	ff 75 f0             	pushl  -0x10(%ebp)
   8870b:	e8 90 fb ff ff       	call   882a0 <ide_search>
   88710:	83 c4 10             	add    $0x10,%esp
   88713:	eb 0f                	jmp    88724 <ide_init+0x59>
   88715:	83 45 f4 01          	addl   $0x1,-0xc(%ebp)
   88719:	e8 84 03 00 00       	call   88aa2 <pci_devicesFound>
   8871e:	39 45 f4             	cmp    %eax,-0xc(%ebp)
   88721:	7c bb                	jl     886de <ide_init+0x13>
   88723:	90                   	nop
   88724:	90                   	nop
   88725:	c9                   	leave  
   88726:	c3                   	ret    

00088727 <outl>:
   88727:	55                   	push   %ebp
   88728:	89 e5                	mov    %esp,%ebp
   8872a:	83 ec 04             	sub    $0x4,%esp
   8872d:	8b 45 08             	mov    0x8(%ebp),%eax
   88730:	66 89 45 fc          	mov    %ax,-0x4(%ebp)
   88734:	8b 45 0c             	mov    0xc(%ebp),%eax
   88737:	0f b7 55 fc          	movzwl -0x4(%ebp),%edx
   8873b:	ef                   	out    %eax,(%dx)
   8873c:	90                   	nop
   8873d:	c9                   	leave  
   8873e:	c3                   	ret    

0008873f <inl>:
   8873f:	55                   	push   %ebp
   88740:	89 e5                	mov    %esp,%ebp
   88742:	83 ec 14             	sub    $0x14,%esp
   88745:	8b 45 08             	mov    0x8(%ebp),%eax
   88748:	66 89 45 ec          	mov    %ax,-0x14(%ebp)
   8874c:	0f b7 45 ec          	movzwl -0x14(%ebp),%eax
   88750:	89 c2                	mov    %eax,%edx
   88752:	ed                   	in     (%dx),%eax
   88753:	89 45 fc             	mov    %eax,-0x4(%ebp)
   88756:	8b 45 fc             	mov    -0x4(%ebp),%eax
   88759:	c9                   	leave  
   8875a:	c3                   	ret    

0008875b <pci_configRead>:
   8875b:	f3 0f 1e fb          	endbr32 
   8875f:	55                   	push   %ebp
   88760:	89 e5                	mov    %esp,%ebp
   88762:	53                   	push   %ebx
   88763:	83 ec 20             	sub    $0x20,%esp
   88766:	8b 5d 08             	mov    0x8(%ebp),%ebx
   88769:	8b 4d 0c             	mov    0xc(%ebp),%ecx
   8876c:	8b 55 10             	mov    0x10(%ebp),%edx
   8876f:	8b 45 14             	mov    0x14(%ebp),%eax
   88772:	88 5d e8             	mov    %bl,-0x18(%ebp)
   88775:	88 4d e4             	mov    %cl,-0x1c(%ebp)
   88778:	88 55 e0             	mov    %dl,-0x20(%ebp)
   8877b:	88 45 dc             	mov    %al,-0x24(%ebp)
   8877e:	0f b6 45 e8          	movzbl -0x18(%ebp),%eax
   88782:	89 45 f8             	mov    %eax,-0x8(%ebp)
   88785:	0f b6 45 e4          	movzbl -0x1c(%ebp),%eax
   88789:	89 45 f4             	mov    %eax,-0xc(%ebp)
   8878c:	0f b6 45 e0          	movzbl -0x20(%ebp),%eax
   88790:	89 45 f0             	mov    %eax,-0x10(%ebp)
   88793:	8b 45 f8             	mov    -0x8(%ebp),%eax
   88796:	c1 e0 10             	shl    $0x10,%eax
   88799:	89 c2                	mov    %eax,%edx
   8879b:	8b 45 f4             	mov    -0xc(%ebp),%eax
   8879e:	c1 e0 0b             	shl    $0xb,%eax
   887a1:	09 c2                	or     %eax,%edx
   887a3:	8b 45 f0             	mov    -0x10(%ebp),%eax
   887a6:	c1 e0 08             	shl    $0x8,%eax
   887a9:	09 c2                	or     %eax,%edx
   887ab:	0f b6 45 dc          	movzbl -0x24(%ebp),%eax
   887af:	25 fc 00 00 00       	and    $0xfc,%eax
   887b4:	09 d0                	or     %edx,%eax
   887b6:	0d 00 00 00 80       	or     $0x80000000,%eax
   887bb:	89 45 ec             	mov    %eax,-0x14(%ebp)
   887be:	ff 75 ec             	pushl  -0x14(%ebp)
   887c1:	68 f8 0c 00 00       	push   $0xcf8
   887c6:	e8 5c ff ff ff       	call   88727 <outl>
   887cb:	83 c4 08             	add    $0x8,%esp
   887ce:	68 fc 0c 00 00       	push   $0xcfc
   887d3:	e8 67 ff ff ff       	call   8873f <inl>
   887d8:	83 c4 04             	add    $0x4,%esp
   887db:	8b 5d fc             	mov    -0x4(%ebp),%ebx
   887de:	c9                   	leave  
   887df:	c3                   	ret    

000887e0 <pci_vendorID>:
   887e0:	f3 0f 1e fb          	endbr32 
   887e4:	55                   	push   %ebp
   887e5:	89 e5                	mov    %esp,%ebp
   887e7:	83 ec 0c             	sub    $0xc,%esp
   887ea:	8b 4d 08             	mov    0x8(%ebp),%ecx
   887ed:	8b 55 0c             	mov    0xc(%ebp),%edx
   887f0:	8b 45 10             	mov    0x10(%ebp),%eax
   887f3:	88 4d fc             	mov    %cl,-0x4(%ebp)
   887f6:	88 55 f8             	mov    %dl,-0x8(%ebp)
   887f9:	88 45 f4             	mov    %al,-0xc(%ebp)
   887fc:	0f b6 4d f4          	movzbl -0xc(%ebp),%ecx
   88800:	0f b6 55 f8          	movzbl -0x8(%ebp),%edx
   88804:	0f b6 45 fc          	movzbl -0x4(%ebp),%eax
   88808:	6a 00                	push   $0x0
   8880a:	51                   	push   %ecx
   8880b:	52                   	push   %edx
   8880c:	50                   	push   %eax
   8880d:	e8 49 ff ff ff       	call   8875b <pci_configRead>
   88812:	83 c4 10             	add    $0x10,%esp
   88815:	c9                   	leave  
   88816:	c3                   	ret    

00088817 <pci_deviceID>:
   88817:	f3 0f 1e fb          	endbr32 
   8881b:	55                   	push   %ebp
   8881c:	89 e5                	mov    %esp,%ebp
   8881e:	83 ec 0c             	sub    $0xc,%esp
   88821:	8b 4d 08             	mov    0x8(%ebp),%ecx
   88824:	8b 55 0c             	mov    0xc(%ebp),%edx
   88827:	8b 45 10             	mov    0x10(%ebp),%eax
   8882a:	88 4d fc             	mov    %cl,-0x4(%ebp)
   8882d:	88 55 f8             	mov    %dl,-0x8(%ebp)
   88830:	88 45 f4             	mov    %al,-0xc(%ebp)
   88833:	0f b6 4d f4          	movzbl -0xc(%ebp),%ecx
   88837:	0f b6 55 f8          	movzbl -0x8(%ebp),%edx
   8883b:	0f b6 45 fc          	movzbl -0x4(%ebp),%eax
   8883f:	6a 00                	push   $0x0
   88841:	51                   	push   %ecx
   88842:	52                   	push   %edx
   88843:	50                   	push   %eax
   88844:	e8 12 ff ff ff       	call   8875b <pci_configRead>
   88849:	83 c4 10             	add    $0x10,%esp
   8884c:	c1 e8 10             	shr    $0x10,%eax
   8884f:	c9                   	leave  
   88850:	c3                   	ret    

00088851 <pci_baseClass>:
   88851:	f3 0f 1e fb          	endbr32 
   88855:	55                   	push   %ebp
   88856:	89 e5                	mov    %esp,%ebp
   88858:	83 ec 0c             	sub    $0xc,%esp
   8885b:	8b 4d 08             	mov    0x8(%ebp),%ecx
   8885e:	8b 55 0c             	mov    0xc(%ebp),%edx
   88861:	8b 45 10             	mov    0x10(%ebp),%eax
   88864:	88 4d fc             	mov    %cl,-0x4(%ebp)
   88867:	88 55 f8             	mov    %dl,-0x8(%ebp)
   8886a:	88 45 f4             	mov    %al,-0xc(%ebp)
   8886d:	0f b6 4d f4          	movzbl -0xc(%ebp),%ecx
   88871:	0f b6 55 f8          	movzbl -0x8(%ebp),%edx
   88875:	0f b6 45 fc          	movzbl -0x4(%ebp),%eax
   88879:	6a 08                	push   $0x8
   8887b:	51                   	push   %ecx
   8887c:	52                   	push   %edx
   8887d:	50                   	push   %eax
   8887e:	e8 d8 fe ff ff       	call   8875b <pci_configRead>
   88883:	83 c4 10             	add    $0x10,%esp
   88886:	c1 e8 18             	shr    $0x18,%eax
   88889:	c9                   	leave  
   8888a:	c3                   	ret    

0008888b <pci_subClass>:
   8888b:	f3 0f 1e fb          	endbr32 
   8888f:	55                   	push   %ebp
   88890:	89 e5                	mov    %esp,%ebp
   88892:	83 ec 0c             	sub    $0xc,%esp
   88895:	8b 4d 08             	mov    0x8(%ebp),%ecx
   88898:	8b 55 0c             	mov    0xc(%ebp),%edx
   8889b:	8b 45 10             	mov    0x10(%ebp),%eax
   8889e:	88 4d fc             	mov    %cl,-0x4(%ebp)
   888a1:	88 55 f8             	mov    %dl,-0x8(%ebp)
   888a4:	88 45 f4             	mov    %al,-0xc(%ebp)
   888a7:	0f b6 4d f4          	movzbl -0xc(%ebp),%ecx
   888ab:	0f b6 55 f8          	movzbl -0x8(%ebp),%edx
   888af:	0f b6 45 fc          	movzbl -0x4(%ebp),%eax
   888b3:	6a 08                	push   $0x8
   888b5:	51                   	push   %ecx
   888b6:	52                   	push   %edx
   888b7:	50                   	push   %eax
   888b8:	e8 9e fe ff ff       	call   8875b <pci_configRead>
   888bd:	83 c4 10             	add    $0x10,%esp
   888c0:	c1 e8 10             	shr    $0x10,%eax
   888c3:	c9                   	leave  
   888c4:	c3                   	ret    

000888c5 <pci_progIf>:
   888c5:	f3 0f 1e fb          	endbr32 
   888c9:	55                   	push   %ebp
   888ca:	89 e5                	mov    %esp,%ebp
   888cc:	83 ec 0c             	sub    $0xc,%esp
   888cf:	8b 4d 08             	mov    0x8(%ebp),%ecx
   888d2:	8b 55 0c             	mov    0xc(%ebp),%edx
   888d5:	8b 45 10             	mov    0x10(%ebp),%eax
   888d8:	88 4d fc             	mov    %cl,-0x4(%ebp)
   888db:	88 55 f8             	mov    %dl,-0x8(%ebp)
   888de:	88 45 f4             	mov    %al,-0xc(%ebp)
   888e1:	0f b6 4d f4          	movzbl -0xc(%ebp),%ecx
   888e5:	0f b6 55 f8          	movzbl -0x8(%ebp),%edx
   888e9:	0f b6 45 fc          	movzbl -0x4(%ebp),%eax
   888ed:	6a 08                	push   $0x8
   888ef:	51                   	push   %ecx
   888f0:	52                   	push   %edx
   888f1:	50                   	push   %eax
   888f2:	e8 64 fe ff ff       	call   8875b <pci_configRead>
   888f7:	83 c4 10             	add    $0x10,%esp
   888fa:	c1 e8 08             	shr    $0x8,%eax
   888fd:	c9                   	leave  
   888fe:	c3                   	ret    

000888ff <pci_revision>:
   888ff:	f3 0f 1e fb          	endbr32 
   88903:	55                   	push   %ebp
   88904:	89 e5                	mov    %esp,%ebp
   88906:	83 ec 0c             	sub    $0xc,%esp
   88909:	8b 4d 08             	mov    0x8(%ebp),%ecx
   8890c:	8b 55 0c             	mov    0xc(%ebp),%edx
   8890f:	8b 45 10             	mov    0x10(%ebp),%eax
   88912:	88 4d fc             	mov    %cl,-0x4(%ebp)
   88915:	88 55 f8             	mov    %dl,-0x8(%ebp)
   88918:	88 45 f4             	mov    %al,-0xc(%ebp)
   8891b:	0f b6 4d f4          	movzbl -0xc(%ebp),%ecx
   8891f:	0f b6 55 f8          	movzbl -0x8(%ebp),%edx
   88923:	0f b6 45 fc          	movzbl -0x4(%ebp),%eax
   88927:	6a 08                	push   $0x8
   88929:	51                   	push   %ecx
   8892a:	52                   	push   %edx
   8892b:	50                   	push   %eax
   8892c:	e8 2a fe ff ff       	call   8875b <pci_configRead>
   88931:	83 c4 10             	add    $0x10,%esp
   88934:	c9                   	leave  
   88935:	c3                   	ret    

00088936 <pci_headerType>:
   88936:	f3 0f 1e fb          	endbr32 
   8893a:	55                   	push   %ebp
   8893b:	89 e5                	mov    %esp,%ebp
   8893d:	83 ec 0c             	sub    $0xc,%esp
   88940:	8b 4d 08             	mov    0x8(%ebp),%ecx
   88943:	8b 55 0c             	mov    0xc(%ebp),%edx
   88946:	8b 45 10             	mov    0x10(%ebp),%eax
   88949:	88 4d fc             	mov    %cl,-0x4(%ebp)
   8894c:	88 55 f8             	mov    %dl,-0x8(%ebp)
   8894f:	88 45 f4             	mov    %al,-0xc(%ebp)
   88952:	0f b6 4d f4          	movzbl -0xc(%ebp),%ecx
   88956:	0f b6 55 f8          	movzbl -0x8(%ebp),%edx
   8895a:	0f b6 45 fc          	movzbl -0x4(%ebp),%eax
   8895e:	6a 0c                	push   $0xc
   88960:	51                   	push   %ecx
   88961:	52                   	push   %edx
   88962:	50                   	push   %eax
   88963:	e8 f3 fd ff ff       	call   8875b <pci_configRead>
   88968:	83 c4 10             	add    $0x10,%esp
   8896b:	c1 e8 10             	shr    $0x10,%eax
   8896e:	c9                   	leave  
   8896f:	c3                   	ret    

00088970 <pci_BAR0>:
   88970:	f3 0f 1e fb          	endbr32 
   88974:	55                   	push   %ebp
   88975:	89 e5                	mov    %esp,%ebp
   88977:	8b 45 08             	mov    0x8(%ebp),%eax
   8897a:	0f b6 40 02          	movzbl 0x2(%eax),%eax
   8897e:	0f b6 c8             	movzbl %al,%ecx
   88981:	8b 45 08             	mov    0x8(%ebp),%eax
   88984:	0f b6 40 01          	movzbl 0x1(%eax),%eax
   88988:	0f b6 d0             	movzbl %al,%edx
   8898b:	8b 45 08             	mov    0x8(%ebp),%eax
   8898e:	0f b6 00             	movzbl (%eax),%eax
   88991:	0f b6 c0             	movzbl %al,%eax
   88994:	6a 10                	push   $0x10
   88996:	51                   	push   %ecx
   88997:	52                   	push   %edx
   88998:	50                   	push   %eax
   88999:	e8 bd fd ff ff       	call   8875b <pci_configRead>
   8899e:	83 c4 10             	add    $0x10,%esp
   889a1:	c9                   	leave  
   889a2:	c3                   	ret    

000889a3 <pci_BAR1>:
   889a3:	f3 0f 1e fb          	endbr32 
   889a7:	55                   	push   %ebp
   889a8:	89 e5                	mov    %esp,%ebp
   889aa:	8b 45 08             	mov    0x8(%ebp),%eax
   889ad:	0f b6 40 02          	movzbl 0x2(%eax),%eax
   889b1:	0f b6 c8             	movzbl %al,%ecx
   889b4:	8b 45 08             	mov    0x8(%ebp),%eax
   889b7:	0f b6 40 01          	movzbl 0x1(%eax),%eax
   889bb:	0f b6 d0             	movzbl %al,%edx
   889be:	8b 45 08             	mov    0x8(%ebp),%eax
   889c1:	0f b6 00             	movzbl (%eax),%eax
   889c4:	0f b6 c0             	movzbl %al,%eax
   889c7:	6a 14                	push   $0x14
   889c9:	51                   	push   %ecx
   889ca:	52                   	push   %edx
   889cb:	50                   	push   %eax
   889cc:	e8 8a fd ff ff       	call   8875b <pci_configRead>
   889d1:	83 c4 10             	add    $0x10,%esp
   889d4:	c9                   	leave  
   889d5:	c3                   	ret    

000889d6 <pci_BAR2>:
   889d6:	f3 0f 1e fb          	endbr32 
   889da:	55                   	push   %ebp
   889db:	89 e5                	mov    %esp,%ebp
   889dd:	8b 45 08             	mov    0x8(%ebp),%eax
   889e0:	0f b6 40 02          	movzbl 0x2(%eax),%eax
   889e4:	0f b6 c8             	movzbl %al,%ecx
   889e7:	8b 45 08             	mov    0x8(%ebp),%eax
   889ea:	0f b6 40 01          	movzbl 0x1(%eax),%eax
   889ee:	0f b6 d0             	movzbl %al,%edx
   889f1:	8b 45 08             	mov    0x8(%ebp),%eax
   889f4:	0f b6 00             	movzbl (%eax),%eax
   889f7:	0f b6 c0             	movzbl %al,%eax
   889fa:	6a 18                	push   $0x18
   889fc:	51                   	push   %ecx
   889fd:	52                   	push   %edx
   889fe:	50                   	push   %eax
   889ff:	e8 57 fd ff ff       	call   8875b <pci_configRead>
   88a04:	83 c4 10             	add    $0x10,%esp
   88a07:	c9                   	leave  
   88a08:	c3                   	ret    

00088a09 <pci_BAR3>:
   88a09:	f3 0f 1e fb          	endbr32 
   88a0d:	55                   	push   %ebp
   88a0e:	89 e5                	mov    %esp,%ebp
   88a10:	8b 45 08             	mov    0x8(%ebp),%eax
   88a13:	0f b6 40 02          	movzbl 0x2(%eax),%eax
   88a17:	0f b6 c8             	movzbl %al,%ecx
   88a1a:	8b 45 08             	mov    0x8(%ebp),%eax
   88a1d:	0f b6 40 01          	movzbl 0x1(%eax),%eax
   88a21:	0f b6 d0             	movzbl %al,%edx
   88a24:	8b 45 08             	mov    0x8(%ebp),%eax
   88a27:	0f b6 00             	movzbl (%eax),%eax
   88a2a:	0f b6 c0             	movzbl %al,%eax
   88a2d:	6a 1c                	push   $0x1c
   88a2f:	51                   	push   %ecx
   88a30:	52                   	push   %edx
   88a31:	50                   	push   %eax
   88a32:	e8 24 fd ff ff       	call   8875b <pci_configRead>
   88a37:	83 c4 10             	add    $0x10,%esp
   88a3a:	c9                   	leave  
   88a3b:	c3                   	ret    

00088a3c <pci_BAR4>:
   88a3c:	f3 0f 1e fb          	endbr32 
   88a40:	55                   	push   %ebp
   88a41:	89 e5                	mov    %esp,%ebp
   88a43:	8b 45 08             	mov    0x8(%ebp),%eax
   88a46:	0f b6 40 02          	movzbl 0x2(%eax),%eax
   88a4a:	0f b6 c8             	movzbl %al,%ecx
   88a4d:	8b 45 08             	mov    0x8(%ebp),%eax
   88a50:	0f b6 40 01          	movzbl 0x1(%eax),%eax
   88a54:	0f b6 d0             	movzbl %al,%edx
   88a57:	8b 45 08             	mov    0x8(%ebp),%eax
   88a5a:	0f b6 00             	movzbl (%eax),%eax
   88a5d:	0f b6 c0             	movzbl %al,%eax
   88a60:	6a 20                	push   $0x20
   88a62:	51                   	push   %ecx
   88a63:	52                   	push   %edx
   88a64:	50                   	push   %eax
   88a65:	e8 f1 fc ff ff       	call   8875b <pci_configRead>
   88a6a:	83 c4 10             	add    $0x10,%esp
   88a6d:	c9                   	leave  
   88a6e:	c3                   	ret    

00088a6f <pci_BAR5>:
   88a6f:	f3 0f 1e fb          	endbr32 
   88a73:	55                   	push   %ebp
   88a74:	89 e5                	mov    %esp,%ebp
   88a76:	8b 45 08             	mov    0x8(%ebp),%eax
   88a79:	0f b6 40 02          	movzbl 0x2(%eax),%eax
   88a7d:	0f b6 c8             	movzbl %al,%ecx
   88a80:	8b 45 08             	mov    0x8(%ebp),%eax
   88a83:	0f b6 40 01          	movzbl 0x1(%eax),%eax
   88a87:	0f b6 d0             	movzbl %al,%edx
   88a8a:	8b 45 08             	mov    0x8(%ebp),%eax
   88a8d:	0f b6 00             	movzbl (%eax),%eax
   88a90:	0f b6 c0             	movzbl %al,%eax
   88a93:	6a 24                	push   $0x24
   88a95:	51                   	push   %ecx
   88a96:	52                   	push   %edx
   88a97:	50                   	push   %eax
   88a98:	e8 be fc ff ff       	call   8875b <pci_configRead>
   88a9d:	83 c4 10             	add    $0x10,%esp
   88aa0:	c9                   	leave  
   88aa1:	c3                   	ret    

00088aa2 <pci_devicesFound>:
   88aa2:	f3 0f 1e fb          	endbr32 
   88aa6:	55                   	push   %ebp
   88aa7:	89 e5                	mov    %esp,%ebp
   88aa9:	a1 60 bd 0a 00       	mov    0xabd60,%eax
   88aae:	5d                   	pop    %ebp
   88aaf:	c3                   	ret    

00088ab0 <pci_getDevice>:
   88ab0:	f3 0f 1e fb          	endbr32 
   88ab4:	55                   	push   %ebp
   88ab5:	89 e5                	mov    %esp,%ebp
   88ab7:	8b 55 08             	mov    0x8(%ebp),%edx
   88aba:	89 d0                	mov    %edx,%eax
   88abc:	01 c0                	add    %eax,%eax
   88abe:	01 d0                	add    %edx,%eax
   88ac0:	c1 e0 02             	shl    $0x2,%eax
   88ac3:	05 80 bd 0a 00       	add    $0xabd80,%eax
   88ac8:	5d                   	pop    %ebp
   88ac9:	c3                   	ret    

00088aca <pci_addDevice>:
   88aca:	f3 0f 1e fb          	endbr32 
   88ace:	55                   	push   %ebp
   88acf:	89 e5                	mov    %esp,%ebp
   88ad1:	83 ec 1c             	sub    $0x1c,%esp
   88ad4:	8b 4d 08             	mov    0x8(%ebp),%ecx
   88ad7:	8b 55 0c             	mov    0xc(%ebp),%edx
   88ada:	8b 45 10             	mov    0x10(%ebp),%eax
   88add:	88 4d ec             	mov    %cl,-0x14(%ebp)
   88ae0:	88 55 e8             	mov    %dl,-0x18(%ebp)
   88ae3:	88 45 e4             	mov    %al,-0x1c(%ebp)
   88ae6:	0f b6 4d e4          	movzbl -0x1c(%ebp),%ecx
   88aea:	0f b6 55 e8          	movzbl -0x18(%ebp),%edx
   88aee:	0f b6 45 ec          	movzbl -0x14(%ebp),%eax
   88af2:	51                   	push   %ecx
   88af3:	52                   	push   %edx
   88af4:	50                   	push   %eax
   88af5:	e8 e6 fc ff ff       	call   887e0 <pci_vendorID>
   88afa:	83 c4 0c             	add    $0xc,%esp
   88afd:	66 89 45 fe          	mov    %ax,-0x2(%ebp)
   88b01:	66 83 7d fe ff       	cmpw   $0xffff,-0x2(%ebp)
   88b06:	0f 84 e0 00 00 00    	je     88bec <pci_addDevice+0x122>
   88b0c:	8b 15 60 bd 0a 00    	mov    0xabd60,%edx
   88b12:	89 d0                	mov    %edx,%eax
   88b14:	01 c0                	add    %eax,%eax
   88b16:	01 d0                	add    %edx,%eax
   88b18:	c1 e0 02             	shl    $0x2,%eax
   88b1b:	05 80 bd 0a 00       	add    $0xabd80,%eax
   88b20:	89 45 f8             	mov    %eax,-0x8(%ebp)
   88b23:	8b 45 f8             	mov    -0x8(%ebp),%eax
   88b26:	0f b6 55 ec          	movzbl -0x14(%ebp),%edx
   88b2a:	88 10                	mov    %dl,(%eax)
   88b2c:	8b 45 f8             	mov    -0x8(%ebp),%eax
   88b2f:	0f b6 55 e8          	movzbl -0x18(%ebp),%edx
   88b33:	88 50 01             	mov    %dl,0x1(%eax)
   88b36:	8b 45 f8             	mov    -0x8(%ebp),%eax
   88b39:	0f b6 55 e4          	movzbl -0x1c(%ebp),%edx
   88b3d:	88 50 02             	mov    %dl,0x2(%eax)
   88b40:	8b 45 f8             	mov    -0x8(%ebp),%eax
   88b43:	0f b7 55 fe          	movzwl -0x2(%ebp),%edx
   88b47:	66 89 50 04          	mov    %dx,0x4(%eax)
   88b4b:	0f b6 4d e4          	movzbl -0x1c(%ebp),%ecx
   88b4f:	0f b6 55 e8          	movzbl -0x18(%ebp),%edx
   88b53:	0f b6 45 ec          	movzbl -0x14(%ebp),%eax
   88b57:	51                   	push   %ecx
   88b58:	52                   	push   %edx
   88b59:	50                   	push   %eax
   88b5a:	e8 b8 fc ff ff       	call   88817 <pci_deviceID>
   88b5f:	83 c4 0c             	add    $0xc,%esp
   88b62:	8b 55 f8             	mov    -0x8(%ebp),%edx
   88b65:	66 89 42 06          	mov    %ax,0x6(%edx)
   88b69:	0f b6 4d e4          	movzbl -0x1c(%ebp),%ecx
   88b6d:	0f b6 55 e8          	movzbl -0x18(%ebp),%edx
   88b71:	0f b6 45 ec          	movzbl -0x14(%ebp),%eax
   88b75:	51                   	push   %ecx
   88b76:	52                   	push   %edx
   88b77:	50                   	push   %eax
   88b78:	e8 d4 fc ff ff       	call   88851 <pci_baseClass>
   88b7d:	83 c4 0c             	add    $0xc,%esp
   88b80:	8b 55 f8             	mov    -0x8(%ebp),%edx
   88b83:	88 42 08             	mov    %al,0x8(%edx)
   88b86:	0f b6 4d e4          	movzbl -0x1c(%ebp),%ecx
   88b8a:	0f b6 55 e8          	movzbl -0x18(%ebp),%edx
   88b8e:	0f b6 45 ec          	movzbl -0x14(%ebp),%eax
   88b92:	51                   	push   %ecx
   88b93:	52                   	push   %edx
   88b94:	50                   	push   %eax
   88b95:	e8 f1 fc ff ff       	call   8888b <pci_subClass>
   88b9a:	83 c4 0c             	add    $0xc,%esp
   88b9d:	8b 55 f8             	mov    -0x8(%ebp),%edx
   88ba0:	88 42 09             	mov    %al,0x9(%edx)
   88ba3:	0f b6 4d e4          	movzbl -0x1c(%ebp),%ecx
   88ba7:	0f b6 55 e8          	movzbl -0x18(%ebp),%edx
   88bab:	0f b6 45 ec          	movzbl -0x14(%ebp),%eax
   88baf:	51                   	push   %ecx
   88bb0:	52                   	push   %edx
   88bb1:	50                   	push   %eax
   88bb2:	e8 0e fd ff ff       	call   888c5 <pci_progIf>
   88bb7:	83 c4 0c             	add    $0xc,%esp
   88bba:	8b 55 f8             	mov    -0x8(%ebp),%edx
   88bbd:	88 42 0a             	mov    %al,0xa(%edx)
   88bc0:	0f b6 4d e4          	movzbl -0x1c(%ebp),%ecx
   88bc4:	0f b6 55 e8          	movzbl -0x18(%ebp),%edx
   88bc8:	0f b6 45 ec          	movzbl -0x14(%ebp),%eax
   88bcc:	51                   	push   %ecx
   88bcd:	52                   	push   %edx
   88bce:	50                   	push   %eax
   88bcf:	e8 2b fd ff ff       	call   888ff <pci_revision>
   88bd4:	83 c4 0c             	add    $0xc,%esp
   88bd7:	8b 55 f8             	mov    -0x8(%ebp),%edx
   88bda:	88 42 0b             	mov    %al,0xb(%edx)
   88bdd:	a1 60 bd 0a 00       	mov    0xabd60,%eax
   88be2:	83 c0 01             	add    $0x1,%eax
   88be5:	a3 60 bd 0a 00       	mov    %eax,0xabd60
   88bea:	eb 01                	jmp    88bed <pci_addDevice+0x123>
   88bec:	90                   	nop
   88bed:	c9                   	leave  
   88bee:	c3                   	ret    

00088bef <pci_checkDevice>:
   88bef:	f3 0f 1e fb          	endbr32 
   88bf3:	55                   	push   %ebp
   88bf4:	89 e5                	mov    %esp,%ebp
   88bf6:	83 ec 18             	sub    $0x18,%esp
   88bf9:	8b 55 08             	mov    0x8(%ebp),%edx
   88bfc:	8b 45 0c             	mov    0xc(%ebp),%eax
   88bff:	88 55 ec             	mov    %dl,-0x14(%ebp)
   88c02:	88 45 e8             	mov    %al,-0x18(%ebp)
   88c05:	c6 45 ff 00          	movb   $0x0,-0x1(%ebp)
   88c09:	0f b6 4d ff          	movzbl -0x1(%ebp),%ecx
   88c0d:	0f b6 55 e8          	movzbl -0x18(%ebp),%edx
   88c11:	0f b6 45 ec          	movzbl -0x14(%ebp),%eax
   88c15:	51                   	push   %ecx
   88c16:	52                   	push   %edx
   88c17:	50                   	push   %eax
   88c18:	e8 c3 fb ff ff       	call   887e0 <pci_vendorID>
   88c1d:	83 c4 0c             	add    $0xc,%esp
   88c20:	66 89 45 fc          	mov    %ax,-0x4(%ebp)
   88c24:	66 83 7d fc ff       	cmpw   $0xffff,-0x4(%ebp)
   88c29:	0f 84 85 00 00 00    	je     88cb4 <pci_checkDevice+0xc5>
   88c2f:	0f b6 4d ff          	movzbl -0x1(%ebp),%ecx
   88c33:	0f b6 55 e8          	movzbl -0x18(%ebp),%edx
   88c37:	0f b6 45 ec          	movzbl -0x14(%ebp),%eax
   88c3b:	51                   	push   %ecx
   88c3c:	52                   	push   %edx
   88c3d:	50                   	push   %eax
   88c3e:	e8 87 fe ff ff       	call   88aca <pci_addDevice>
   88c43:	83 c4 0c             	add    $0xc,%esp
   88c46:	0f b6 4d ff          	movzbl -0x1(%ebp),%ecx
   88c4a:	0f b6 55 e8          	movzbl -0x18(%ebp),%edx
   88c4e:	0f b6 45 ec          	movzbl -0x14(%ebp),%eax
   88c52:	51                   	push   %ecx
   88c53:	52                   	push   %edx
   88c54:	50                   	push   %eax
   88c55:	e8 dc fc ff ff       	call   88936 <pci_headerType>
   88c5a:	83 c4 0c             	add    $0xc,%esp
   88c5d:	88 45 fb             	mov    %al,-0x5(%ebp)
   88c60:	0f b6 45 fb          	movzbl -0x5(%ebp),%eax
   88c64:	84 c0                	test   %al,%al
   88c66:	79 4d                	jns    88cb5 <pci_checkDevice+0xc6>
   88c68:	c6 45 ff 01          	movb   $0x1,-0x1(%ebp)
   88c6c:	eb 3e                	jmp    88cac <pci_checkDevice+0xbd>
   88c6e:	0f b6 4d ff          	movzbl -0x1(%ebp),%ecx
   88c72:	0f b6 55 e8          	movzbl -0x18(%ebp),%edx
   88c76:	0f b6 45 ec          	movzbl -0x14(%ebp),%eax
   88c7a:	51                   	push   %ecx
   88c7b:	52                   	push   %edx
   88c7c:	50                   	push   %eax
   88c7d:	e8 5e fb ff ff       	call   887e0 <pci_vendorID>
   88c82:	83 c4 0c             	add    $0xc,%esp
   88c85:	66 83 f8 ff          	cmp    $0xffff,%ax
   88c89:	74 17                	je     88ca2 <pci_checkDevice+0xb3>
   88c8b:	0f b6 4d ff          	movzbl -0x1(%ebp),%ecx
   88c8f:	0f b6 55 e8          	movzbl -0x18(%ebp),%edx
   88c93:	0f b6 45 ec          	movzbl -0x14(%ebp),%eax
   88c97:	51                   	push   %ecx
   88c98:	52                   	push   %edx
   88c99:	50                   	push   %eax
   88c9a:	e8 2b fe ff ff       	call   88aca <pci_addDevice>
   88c9f:	83 c4 0c             	add    $0xc,%esp
   88ca2:	0f b6 45 ff          	movzbl -0x1(%ebp),%eax
   88ca6:	83 c0 01             	add    $0x1,%eax
   88ca9:	88 45 ff             	mov    %al,-0x1(%ebp)
   88cac:	80 7d ff 07          	cmpb   $0x7,-0x1(%ebp)
   88cb0:	76 bc                	jbe    88c6e <pci_checkDevice+0x7f>
   88cb2:	eb 01                	jmp    88cb5 <pci_checkDevice+0xc6>
   88cb4:	90                   	nop
   88cb5:	c9                   	leave  
   88cb6:	c3                   	ret    

00088cb7 <pci_checkBus>:
   88cb7:	f3 0f 1e fb          	endbr32 
   88cbb:	55                   	push   %ebp
   88cbc:	89 e5                	mov    %esp,%ebp
   88cbe:	83 ec 14             	sub    $0x14,%esp
   88cc1:	8b 45 08             	mov    0x8(%ebp),%eax
   88cc4:	88 45 ec             	mov    %al,-0x14(%ebp)
   88cc7:	c7 45 fc 00 00 00 00 	movl   $0x0,-0x4(%ebp)
   88cce:	eb 18                	jmp    88ce8 <pci_checkBus+0x31>
   88cd0:	8b 45 fc             	mov    -0x4(%ebp),%eax
   88cd3:	0f b6 d0             	movzbl %al,%edx
   88cd6:	0f b6 45 ec          	movzbl -0x14(%ebp),%eax
   88cda:	52                   	push   %edx
   88cdb:	50                   	push   %eax
   88cdc:	e8 0e ff ff ff       	call   88bef <pci_checkDevice>
   88ce1:	83 c4 08             	add    $0x8,%esp
   88ce4:	83 45 fc 01          	addl   $0x1,-0x4(%ebp)
   88ce8:	83 7d fc 1f          	cmpl   $0x1f,-0x4(%ebp)
   88cec:	7e e2                	jle    88cd0 <pci_checkBus+0x19>
   88cee:	90                   	nop
   88cef:	90                   	nop
   88cf0:	c9                   	leave  
   88cf1:	c3                   	ret    

00088cf2 <pci_checkAll>:
   88cf2:	f3 0f 1e fb          	endbr32 
   88cf6:	55                   	push   %ebp
   88cf7:	89 e5                	mov    %esp,%ebp
   88cf9:	83 ec 10             	sub    $0x10,%esp
   88cfc:	6a 00                	push   $0x0
   88cfe:	6a 00                	push   $0x0
   88d00:	6a 00                	push   $0x0
   88d02:	e8 2f fc ff ff       	call   88936 <pci_headerType>
   88d07:	83 c4 0c             	add    $0xc,%esp
   88d0a:	84 c0                	test   %al,%al
   88d0c:	78 0c                	js     88d1a <pci_checkAll+0x28>
   88d0e:	6a 00                	push   $0x0
   88d10:	e8 a2 ff ff ff       	call   88cb7 <pci_checkBus>
   88d15:	83 c4 04             	add    $0x4,%esp
   88d18:	eb 22                	jmp    88d3c <pci_checkAll+0x4a>
   88d1a:	c7 45 fc 00 00 00 00 	movl   $0x0,-0x4(%ebp)
   88d21:	eb 13                	jmp    88d36 <pci_checkAll+0x44>
   88d23:	8b 45 fc             	mov    -0x4(%ebp),%eax
   88d26:	0f b6 c0             	movzbl %al,%eax
   88d29:	50                   	push   %eax
   88d2a:	e8 88 ff ff ff       	call   88cb7 <pci_checkBus>
   88d2f:	83 c4 04             	add    $0x4,%esp
   88d32:	83 45 fc 01          	addl   $0x1,-0x4(%ebp)
   88d36:	83 7d fc 07          	cmpl   $0x7,-0x4(%ebp)
   88d3a:	7e e7                	jle    88d23 <pci_checkAll+0x31>
   88d3c:	90                   	nop
   88d3d:	c9                   	leave  
   88d3e:	c3                   	ret    

00088d3f <pci_init>:
   88d3f:	f3 0f 1e fb          	endbr32 
   88d43:	55                   	push   %ebp
   88d44:	89 e5                	mov    %esp,%ebp
   88d46:	e8 a7 ff ff ff       	call   88cf2 <pci_checkAll>
   88d4b:	90                   	nop
   88d4c:	5d                   	pop    %ebp
   88d4d:	c3                   	ret    

00088d4e <pci_vendorName>:
   88d4e:	f3 0f 1e fb          	endbr32 
   88d52:	55                   	push   %ebp
   88d53:	89 e5                	mov    %esp,%ebp
   88d55:	83 ec 04             	sub    $0x4,%esp
   88d58:	8b 45 08             	mov    0x8(%ebp),%eax
   88d5b:	66 89 45 fc          	mov    %ax,-0x4(%ebp)
   88d5f:	0f b7 45 fc          	movzwl -0x4(%ebp),%eax
   88d63:	3d 13 10 00 00       	cmp    $0x1013,%eax
   88d68:	74 0e                	je     88d78 <pci_vendorName+0x2a>
   88d6a:	3d 86 80 00 00       	cmp    $0x8086,%eax
   88d6f:	75 0e                	jne    88d7f <pci_vendorName+0x31>
   88d71:	b8 e0 25 08 00       	mov    $0x825e0,%eax
   88d76:	eb 0c                	jmp    88d84 <pci_vendorName+0x36>
   88d78:	b8 f2 25 08 00       	mov    $0x825f2,%eax
   88d7d:	eb 05                	jmp    88d84 <pci_vendorName+0x36>
   88d7f:	b8 00 00 00 00       	mov    $0x0,%eax
   88d84:	c9                   	leave  
   88d85:	c3                   	ret    

00088d86 <outb>:
   88d86:	55                   	push   %ebp
   88d87:	89 e5                	mov    %esp,%ebp
   88d89:	83 ec 08             	sub    $0x8,%esp
   88d8c:	8b 45 08             	mov    0x8(%ebp),%eax
   88d8f:	8b 55 0c             	mov    0xc(%ebp),%edx
   88d92:	66 89 45 fc          	mov    %ax,-0x4(%ebp)
   88d96:	89 d0                	mov    %edx,%eax
   88d98:	88 45 f8             	mov    %al,-0x8(%ebp)
   88d9b:	0f b6 45 f8          	movzbl -0x8(%ebp),%eax
   88d9f:	0f b7 55 fc          	movzwl -0x4(%ebp),%edx
   88da3:	ee                   	out    %al,(%dx)
   88da4:	90                   	nop
   88da5:	c9                   	leave  
   88da6:	c3                   	ret    

00088da7 <timer_callback>:
   88da7:	f3 0f 1e fb          	endbr32 
   88dab:	55                   	push   %ebp
   88dac:	89 e5                	mov    %esp,%ebp
   88dae:	a1 70 be 0a 00       	mov    0xabe70,%eax
   88db3:	83 c0 01             	add    $0x1,%eax
   88db6:	a3 70 be 0a 00       	mov    %eax,0xabe70
   88dbb:	90                   	nop
   88dbc:	5d                   	pop    %ebp
   88dbd:	c3                   	ret    

00088dbe <timer_init>:
   88dbe:	f3 0f 1e fb          	endbr32 
   88dc2:	55                   	push   %ebp
   88dc3:	89 e5                	mov    %esp,%ebp
   88dc5:	83 ec 18             	sub    $0x18,%esp
   88dc8:	83 ec 08             	sub    $0x8,%esp
   88dcb:	68 a7 8d 08 00       	push   $0x88da7
   88dd0:	6a 20                	push   $0x20
   88dd2:	e8 2a c1 ff ff       	call   84f01 <isr_register>
   88dd7:	83 c4 10             	add    $0x10,%esp
   88dda:	c7 45 f4 a9 04 00 00 	movl   $0x4a9,-0xc(%ebp)
   88de1:	8b 45 f4             	mov    -0xc(%ebp),%eax
   88de4:	88 45 f3             	mov    %al,-0xd(%ebp)
   88de7:	8b 45 f4             	mov    -0xc(%ebp),%eax
   88dea:	c1 e8 08             	shr    $0x8,%eax
   88ded:	88 45 f2             	mov    %al,-0xe(%ebp)
   88df0:	83 ec 08             	sub    $0x8,%esp
   88df3:	6a 36                	push   $0x36
   88df5:	6a 43                	push   $0x43
   88df7:	e8 8a ff ff ff       	call   88d86 <outb>
   88dfc:	83 c4 10             	add    $0x10,%esp
   88dff:	0f b6 45 f3          	movzbl -0xd(%ebp),%eax
   88e03:	83 ec 08             	sub    $0x8,%esp
   88e06:	50                   	push   %eax
   88e07:	6a 40                	push   $0x40
   88e09:	e8 78 ff ff ff       	call   88d86 <outb>
   88e0e:	83 c4 10             	add    $0x10,%esp
   88e11:	0f b6 45 f2          	movzbl -0xe(%ebp),%eax
   88e15:	83 ec 08             	sub    $0x8,%esp
   88e18:	50                   	push   %eax
   88e19:	6a 40                	push   $0x40
   88e1b:	e8 66 ff ff ff       	call   88d86 <outb>
   88e20:	83 c4 10             	add    $0x10,%esp
   88e23:	90                   	nop
   88e24:	c9                   	leave  
   88e25:	c3                   	ret    

00088e26 <timer_sleep>:
   88e26:	f3 0f 1e fb          	endbr32 
   88e2a:	55                   	push   %ebp
   88e2b:	89 e5                	mov    %esp,%ebp
   88e2d:	c7 05 70 be 0a 00 00 	movl   $0x0,0xabe70
   88e34:	00 00 00 
   88e37:	fb                   	sti    
   88e38:	eb 01                	jmp    88e3b <timer_sleep+0x15>
   88e3a:	f4                   	hlt    
   88e3b:	a1 70 be 0a 00       	mov    0xabe70,%eax
   88e40:	39 45 08             	cmp    %eax,0x8(%ebp)
   88e43:	77 f5                	ja     88e3a <timer_sleep+0x14>
   88e45:	90                   	nop
   88e46:	90                   	nop
   88e47:	5d                   	pop    %ebp
   88e48:	c3                   	ret    

00088e49 <pci_deviceClassName>:
   88e49:	f3 0f 1e fb          	endbr32 
   88e4d:	55                   	push   %ebp
   88e4e:	89 e5                	mov    %esp,%ebp
   88e50:	83 ec 10             	sub    $0x10,%esp
   88e53:	c7 45 fc 00 00 00 00 	movl   $0x0,-0x4(%ebp)
   88e5a:	8b 45 08             	mov    0x8(%ebp),%eax
   88e5d:	0f b6 40 09          	movzbl 0x9(%eax),%eax
   88e61:	3c 80                	cmp    $0x80,%al
   88e63:	75 2b                	jne    88e90 <pci_deviceClassName+0x47>
   88e65:	8b 45 08             	mov    0x8(%ebp),%eax
   88e68:	0f b6 40 08          	movzbl 0x8(%eax),%eax
   88e6c:	3c 0b                	cmp    $0xb,%al
   88e6e:	76 0a                	jbe    88e7a <pci_deviceClassName+0x31>
   88e70:	b8 29 2b 08 00       	mov    $0x82b29,%eax
   88e75:	e9 31 01 00 00       	jmp    88fab <pci_deviceClassName+0x162>
   88e7a:	8b 45 08             	mov    0x8(%ebp),%eax
   88e7d:	0f b6 40 08          	movzbl 0x8(%eax),%eax
   88e81:	0f b6 c0             	movzbl %al,%eax
   88e84:	8b 04 85 40 b0 08 00 	mov    0x8b040(,%eax,4),%eax
   88e8b:	e9 1b 01 00 00       	jmp    88fab <pci_deviceClassName+0x162>
   88e90:	8b 45 08             	mov    0x8(%ebp),%eax
   88e93:	0f b6 40 08          	movzbl 0x8(%eax),%eax
   88e97:	0f b6 c0             	movzbl %al,%eax
   88e9a:	83 f8 0b             	cmp    $0xb,%eax
   88e9d:	0f 87 e9 00 00 00    	ja     88f8c <pci_deviceClassName+0x143>
   88ea3:	8b 04 85 64 2b 08 00 	mov    0x82b64(,%eax,4),%eax
   88eaa:	3e ff e0             	notrack jmp *%eax
   88ead:	a1 e0 ae 08 00       	mov    0x8aee0,%eax
   88eb2:	e9 f4 00 00 00       	jmp    88fab <pci_deviceClassName+0x162>
   88eb7:	c7 45 fc 00 af 08 00 	movl   $0x8af00,-0x4(%ebp)
   88ebe:	e9 d0 00 00 00       	jmp    88f93 <pci_deviceClassName+0x14a>
   88ec3:	c7 45 fc 40 af 08 00 	movl   $0x8af40,-0x4(%ebp)
   88eca:	e9 c4 00 00 00       	jmp    88f93 <pci_deviceClassName+0x14a>
   88ecf:	c7 45 fc 64 af 08 00 	movl   $0x8af64,-0x4(%ebp)
   88ed6:	e9 b8 00 00 00       	jmp    88f93 <pci_deviceClassName+0x14a>
   88edb:	c7 45 fc 70 af 08 00 	movl   $0x8af70,-0x4(%ebp)
   88ee2:	e9 ac 00 00 00       	jmp    88f93 <pci_deviceClassName+0x14a>
   88ee7:	c7 45 fc 80 af 08 00 	movl   $0x8af80,-0x4(%ebp)
   88eee:	e9 a0 00 00 00       	jmp    88f93 <pci_deviceClassName+0x14a>
   88ef3:	c7 45 fc a0 af 08 00 	movl   $0x8afa0,-0x4(%ebp)
   88efa:	e9 94 00 00 00       	jmp    88f93 <pci_deviceClassName+0x14a>
   88eff:	c7 45 fc cc af 08 00 	movl   $0x8afcc,-0x4(%ebp)
   88f06:	e9 88 00 00 00       	jmp    88f93 <pci_deviceClassName+0x14a>
   88f0b:	8b 45 08             	mov    0x8(%ebp),%eax
   88f0e:	0f b6 40 09          	movzbl 0x9(%eax),%eax
   88f12:	3c 99                	cmp    $0x99,%al
   88f14:	75 0a                	jne    88f20 <pci_deviceClassName+0xd7>
   88f16:	b8 36 2b 08 00       	mov    $0x82b36,%eax
   88f1b:	e9 8b 00 00 00       	jmp    88fab <pci_deviceClassName+0x162>
   88f20:	c7 45 fc e4 af 08 00 	movl   $0x8afe4,-0x4(%ebp)
   88f27:	eb 6a                	jmp    88f93 <pci_deviceClassName+0x14a>
   88f29:	c7 45 fc 00 b0 08 00 	movl   $0x8b000,-0x4(%ebp)
   88f30:	eb 61                	jmp    88f93 <pci_deviceClassName+0x14a>
   88f32:	c7 45 fc 14 b0 08 00 	movl   $0x8b014,-0x4(%ebp)
   88f39:	eb 58                	jmp    88f93 <pci_deviceClassName+0x14a>
   88f3b:	8b 45 08             	mov    0x8(%ebp),%eax
   88f3e:	0f b6 40 09          	movzbl 0x9(%eax),%eax
   88f42:	3c 10                	cmp    $0x10,%al
   88f44:	75 07                	jne    88f4d <pci_deviceClassName+0x104>
   88f46:	b8 42 2b 08 00       	mov    $0x82b42,%eax
   88f4b:	eb 5e                	jmp    88fab <pci_deviceClassName+0x162>
   88f4d:	8b 45 08             	mov    0x8(%ebp),%eax
   88f50:	0f b6 40 09          	movzbl 0x9(%eax),%eax
   88f54:	3c 20                	cmp    $0x20,%al
   88f56:	75 07                	jne    88f5f <pci_deviceClassName+0x116>
   88f58:	b8 48 2b 08 00       	mov    $0x82b48,%eax
   88f5d:	eb 4c                	jmp    88fab <pci_deviceClassName+0x162>
   88f5f:	8b 45 08             	mov    0x8(%ebp),%eax
   88f62:	0f b6 40 09          	movzbl 0x9(%eax),%eax
   88f66:	3c 30                	cmp    $0x30,%al
   88f68:	75 07                	jne    88f71 <pci_deviceClassName+0x128>
   88f6a:	b8 51 2b 08 00       	mov    $0x82b51,%eax
   88f6f:	eb 3a                	jmp    88fab <pci_deviceClassName+0x162>
   88f71:	8b 45 08             	mov    0x8(%ebp),%eax
   88f74:	0f b6 40 09          	movzbl 0x9(%eax),%eax
   88f78:	3c 40                	cmp    $0x40,%al
   88f7a:	75 07                	jne    88f83 <pci_deviceClassName+0x13a>
   88f7c:	b8 56 2b 08 00       	mov    $0x82b56,%eax
   88f81:	eb 28                	jmp    88fab <pci_deviceClassName+0x162>
   88f83:	c7 45 fc 18 b0 08 00 	movl   $0x8b018,-0x4(%ebp)
   88f8a:	eb 07                	jmp    88f93 <pci_deviceClassName+0x14a>
   88f8c:	b8 29 2b 08 00       	mov    $0x82b29,%eax
   88f91:	eb 18                	jmp    88fab <pci_deviceClassName+0x162>
   88f93:	8b 45 08             	mov    0x8(%ebp),%eax
   88f96:	0f b6 40 09          	movzbl 0x9(%eax),%eax
   88f9a:	0f b6 c0             	movzbl %al,%eax
   88f9d:	8d 14 85 00 00 00 00 	lea    0x0(,%eax,4),%edx
   88fa4:	8b 45 fc             	mov    -0x4(%ebp),%eax
   88fa7:	01 d0                	add    %edx,%eax
   88fa9:	8b 00                	mov    (%eax),%eax
   88fab:	c9                   	leave  
   88fac:	c3                   	ret    

00088fad <inb>:
   88fad:	55                   	push   %ebp
   88fae:	89 e5                	mov    %esp,%ebp
   88fb0:	83 ec 14             	sub    $0x14,%esp
   88fb3:	8b 45 08             	mov    0x8(%ebp),%eax
   88fb6:	66 89 45 ec          	mov    %ax,-0x14(%ebp)
   88fba:	0f b7 45 ec          	movzwl -0x14(%ebp),%eax
   88fbe:	89 c2                	mov    %eax,%edx
   88fc0:	ec                   	in     (%dx),%al
   88fc1:	88 45 ff             	mov    %al,-0x1(%ebp)
   88fc4:	0f b6 45 ff          	movzbl -0x1(%ebp),%eax
   88fc8:	c9                   	leave  
   88fc9:	c3                   	ret    

00088fca <send_keydown>:
   88fca:	f3 0f 1e fb          	endbr32 
   88fce:	55                   	push   %ebp
   88fcf:	89 e5                	mov    %esp,%ebp
   88fd1:	83 ec 18             	sub    $0x18,%esp
   88fd4:	8b 45 08             	mov    0x8(%ebp),%eax
   88fd7:	66 89 45 f4          	mov    %ax,-0xc(%ebp)
   88fdb:	0f b7 45 f4          	movzwl -0xc(%ebp),%eax
   88fdf:	83 ec 0c             	sub    $0xc,%esp
   88fe2:	50                   	push   %eax
   88fe3:	e8 f2 e2 ff ff       	call   872da <nl_be_qemu_keydown>
   88fe8:	83 c4 10             	add    $0x10,%esp
   88feb:	a1 78 be 0a 00       	mov    0xabe78,%eax
   88ff0:	85 c0                	test   %eax,%eax
   88ff2:	74 12                	je     89006 <send_keydown+0x3c>
   88ff4:	a1 78 be 0a 00       	mov    0xabe78,%eax
   88ff9:	0f b7 55 f4          	movzwl -0xc(%ebp),%edx
   88ffd:	83 ec 0c             	sub    $0xc,%esp
   89000:	52                   	push   %edx
   89001:	ff d0                	call   *%eax
   89003:	83 c4 10             	add    $0x10,%esp
   89006:	90                   	nop
   89007:	c9                   	leave  
   89008:	c3                   	ret    

00089009 <send_keyup>:
   89009:	f3 0f 1e fb          	endbr32 
   8900d:	55                   	push   %ebp
   8900e:	89 e5                	mov    %esp,%ebp
   89010:	83 ec 18             	sub    $0x18,%esp
   89013:	8b 45 08             	mov    0x8(%ebp),%eax
   89016:	66 89 45 f4          	mov    %ax,-0xc(%ebp)
   8901a:	0f b7 45 f4          	movzwl -0xc(%ebp),%eax
   8901e:	83 ec 0c             	sub    $0xc,%esp
   89021:	50                   	push   %eax
   89022:	e8 32 e9 ff ff       	call   87959 <nl_be_qemu_keyup>
   89027:	83 c4 10             	add    $0x10,%esp
   8902a:	a1 80 be 0a 00       	mov    0xabe80,%eax
   8902f:	85 c0                	test   %eax,%eax
   89031:	74 12                	je     89045 <send_keyup+0x3c>
   89033:	a1 80 be 0a 00       	mov    0xabe80,%eax
   89038:	0f b7 55 f4          	movzwl -0xc(%ebp),%edx
   8903c:	83 ec 0c             	sub    $0xc,%esp
   8903f:	52                   	push   %edx
   89040:	ff d0                	call   *%eax
   89042:	83 c4 10             	add    $0x10,%esp
   89045:	90                   	nop
   89046:	c9                   	leave  
   89047:	c3                   	ret    

00089048 <handle_scancode>:
   89048:	f3 0f 1e fb          	endbr32 
   8904c:	55                   	push   %ebp
   8904d:	89 e5                	mov    %esp,%ebp
   8904f:	83 ec 28             	sub    $0x28,%esp
   89052:	8b 45 08             	mov    0x8(%ebp),%eax
   89055:	88 45 e4             	mov    %al,-0x1c(%ebp)
   89058:	80 7d e4 00          	cmpb   $0x0,-0x1c(%ebp)
   8905c:	74 06                	je     89064 <handle_scancode+0x1c>
   8905e:	80 7d e4 ff          	cmpb   $0xff,-0x1c(%ebp)
   89062:	75 15                	jne    89079 <handle_scancode+0x31>
   89064:	83 ec 0c             	sub    $0xc,%esp
   89067:	68 94 2b 08 00       	push   $0x82b94
   8906c:	e8 b6 a1 ff ff       	call   83227 <error>
   89071:	83 c4 10             	add    $0x10,%esp
   89074:	e9 95 00 00 00       	jmp    8910e <handle_scancode+0xc6>
   89079:	0f b6 45 e4          	movzbl -0x1c(%ebp),%eax
   8907d:	c0 e8 07             	shr    $0x7,%al
   89080:	88 45 f7             	mov    %al,-0x9(%ebp)
   89083:	0f b6 45 e4          	movzbl -0x1c(%ebp),%eax
   89087:	83 e0 7f             	and    $0x7f,%eax
   8908a:	88 45 f6             	mov    %al,-0xa(%ebp)
   8908d:	0f b6 05 74 be 0a 00 	movzbl 0xabe74,%eax
   89094:	84 c0                	test   %al,%al
   89096:	75 39                	jne    890d1 <handle_scancode+0x89>
   89098:	80 7d e4 e0          	cmpb   $0xe0,-0x1c(%ebp)
   8909c:	75 09                	jne    890a7 <handle_scancode+0x5f>
   8909e:	c6 05 74 be 0a 00 01 	movb   $0x1,0xabe74
   890a5:	eb 67                	jmp    8910e <handle_scancode+0xc6>
   890a7:	80 7d f7 00          	cmpb   $0x0,-0x9(%ebp)
   890ab:	74 12                	je     890bf <handle_scancode+0x77>
   890ad:	0f b6 45 f6          	movzbl -0xa(%ebp),%eax
   890b1:	83 ec 0c             	sub    $0xc,%esp
   890b4:	50                   	push   %eax
   890b5:	e8 4f ff ff ff       	call   89009 <send_keyup>
   890ba:	83 c4 10             	add    $0x10,%esp
   890bd:	eb 4f                	jmp    8910e <handle_scancode+0xc6>
   890bf:	0f b6 45 f6          	movzbl -0xa(%ebp),%eax
   890c3:	83 ec 0c             	sub    $0xc,%esp
   890c6:	50                   	push   %eax
   890c7:	e8 fe fe ff ff       	call   88fca <send_keydown>
   890cc:	83 c4 10             	add    $0x10,%esp
   890cf:	eb 3d                	jmp    8910e <handle_scancode+0xc6>
   890d1:	80 7d f7 00          	cmpb   $0x0,-0x9(%ebp)
   890d5:	74 19                	je     890f0 <handle_scancode+0xa8>
   890d7:	0f b6 45 f6          	movzbl -0xa(%ebp),%eax
   890db:	66 0d 00 e0          	or     $0xe000,%ax
   890df:	0f b7 c0             	movzwl %ax,%eax
   890e2:	83 ec 0c             	sub    $0xc,%esp
   890e5:	50                   	push   %eax
   890e6:	e8 1e ff ff ff       	call   89009 <send_keyup>
   890eb:	83 c4 10             	add    $0x10,%esp
   890ee:	eb 17                	jmp    89107 <handle_scancode+0xbf>
   890f0:	0f b6 45 f6          	movzbl -0xa(%ebp),%eax
   890f4:	66 0d 00 e0          	or     $0xe000,%ax
   890f8:	0f b7 c0             	movzwl %ax,%eax
   890fb:	83 ec 0c             	sub    $0xc,%esp
   890fe:	50                   	push   %eax
   890ff:	e8 c6 fe ff ff       	call   88fca <send_keydown>
   89104:	83 c4 10             	add    $0x10,%esp
   89107:	c6 05 74 be 0a 00 00 	movb   $0x0,0xabe74
   8910e:	c9                   	leave  
   8910f:	c3                   	ret    

00089110 <keyboard_keydown>:
   89110:	f3 0f 1e fb          	endbr32 
   89114:	55                   	push   %ebp
   89115:	89 e5                	mov    %esp,%ebp
   89117:	8b 45 08             	mov    0x8(%ebp),%eax
   8911a:	a3 78 be 0a 00       	mov    %eax,0xabe78
   8911f:	90                   	nop
   89120:	5d                   	pop    %ebp
   89121:	c3                   	ret    

00089122 <keyboard_keyup>:
   89122:	f3 0f 1e fb          	endbr32 
   89126:	55                   	push   %ebp
   89127:	89 e5                	mov    %esp,%ebp
   89129:	8b 45 08             	mov    0x8(%ebp),%eax
   8912c:	a3 80 be 0a 00       	mov    %eax,0xabe80
   89131:	90                   	nop
   89132:	5d                   	pop    %ebp
   89133:	c3                   	ret    

00089134 <keyboard_char>:
   89134:	f3 0f 1e fb          	endbr32 
   89138:	55                   	push   %ebp
   89139:	89 e5                	mov    %esp,%ebp
   8913b:	8b 45 08             	mov    0x8(%ebp),%eax
   8913e:	a3 7c be 0a 00       	mov    %eax,0xabe7c
   89143:	90                   	nop
   89144:	5d                   	pop    %ebp
   89145:	c3                   	ret    

00089146 <send_char>:
   89146:	f3 0f 1e fb          	endbr32 
   8914a:	55                   	push   %ebp
   8914b:	89 e5                	mov    %esp,%ebp
   8914d:	83 ec 18             	sub    $0x18,%esp
   89150:	8b 45 08             	mov    0x8(%ebp),%eax
   89153:	88 45 f4             	mov    %al,-0xc(%ebp)
   89156:	a1 7c be 0a 00       	mov    0xabe7c,%eax
   8915b:	85 c0                	test   %eax,%eax
   8915d:	74 12                	je     89171 <send_char+0x2b>
   8915f:	a1 7c be 0a 00       	mov    0xabe7c,%eax
   89164:	0f be 55 f4          	movsbl -0xc(%ebp),%edx
   89168:	83 ec 0c             	sub    $0xc,%esp
   8916b:	52                   	push   %edx
   8916c:	ff d0                	call   *%eax
   8916e:	83 c4 10             	add    $0x10,%esp
   89171:	90                   	nop
   89172:	c9                   	leave  
   89173:	c3                   	ret    

00089174 <keyboard_callback>:
   89174:	f3 0f 1e fb          	endbr32 
   89178:	55                   	push   %ebp
   89179:	89 e5                	mov    %esp,%ebp
   8917b:	83 ec 18             	sub    $0x18,%esp
   8917e:	6a 60                	push   $0x60
   89180:	e8 28 fe ff ff       	call   88fad <inb>
   89185:	83 c4 04             	add    $0x4,%esp
   89188:	88 45 f7             	mov    %al,-0x9(%ebp)
   8918b:	0f b6 45 f7          	movzbl -0x9(%ebp),%eax
   8918f:	83 ec 0c             	sub    $0xc,%esp
   89192:	50                   	push   %eax
   89193:	e8 b0 fe ff ff       	call   89048 <handle_scancode>
   89198:	83 c4 10             	add    $0x10,%esp
   8919b:	90                   	nop
   8919c:	c9                   	leave  
   8919d:	c3                   	ret    

0008919e <keyboard_init>:
   8919e:	f3 0f 1e fb          	endbr32 
   891a2:	55                   	push   %ebp
   891a3:	89 e5                	mov    %esp,%ebp
   891a5:	83 ec 08             	sub    $0x8,%esp
   891a8:	83 ec 08             	sub    $0x8,%esp
   891ab:	68 74 91 08 00       	push   $0x89174
   891b0:	6a 21                	push   $0x21
   891b2:	e8 4a bd ff ff       	call   84f01 <isr_register>
   891b7:	83 c4 10             	add    $0x10,%esp
   891ba:	90                   	nop
   891bb:	c9                   	leave  
   891bc:	c3                   	ret    

000891bd <storage_getDevice>:
   891bd:	f3 0f 1e fb          	endbr32 
   891c1:	55                   	push   %ebp
   891c2:	89 e5                	mov    %esp,%ebp
   891c4:	83 7d 08 00          	cmpl   $0x0,0x8(%ebp)
   891c8:	78 0a                	js     891d4 <storage_getDevice+0x17>
   891ca:	a1 8c be 0a 00       	mov    0xabe8c,%eax
   891cf:	39 45 08             	cmp    %eax,0x8(%ebp)
   891d2:	7c 07                	jl     891db <storage_getDevice+0x1e>
   891d4:	b8 00 00 00 00       	mov    $0x0,%eax
   891d9:	eb 0f                	jmp    891ea <storage_getDevice+0x2d>
   891db:	a1 84 be 0a 00       	mov    0xabe84,%eax
   891e0:	8b 55 08             	mov    0x8(%ebp),%edx
   891e3:	c1 e2 02             	shl    $0x2,%edx
   891e6:	01 d0                	add    %edx,%eax
   891e8:	8b 00                	mov    (%eax),%eax
   891ea:	5d                   	pop    %ebp
   891eb:	c3                   	ret    

000891ec <storage_path>:
   891ec:	f3 0f 1e fb          	endbr32 
   891f0:	55                   	push   %ebp
   891f1:	89 e5                	mov    %esp,%ebp
   891f3:	83 ec 18             	sub    $0x18,%esp
   891f6:	83 7d 08 00          	cmpl   $0x0,0x8(%ebp)
   891fa:	75 07                	jne    89203 <storage_path+0x17>
   891fc:	b8 a3 2b 08 00       	mov    $0x82ba3,%eax
   89201:	eb 58                	jmp    8925b <storage_path+0x6f>
   89203:	8b 45 08             	mov    0x8(%ebp),%eax
   89206:	8b 00                	mov    (%eax),%eax
   89208:	85 c0                	test   %eax,%eax
   8920a:	75 4a                	jne    89256 <storage_path+0x6a>
   8920c:	8b 45 08             	mov    0x8(%ebp),%eax
   8920f:	89 45 f4             	mov    %eax,-0xc(%ebp)
   89212:	b8 75 b0 08 00       	mov    $0x8b075,%eax
   89217:	83 ec 04             	sub    $0x4,%esp
   8921a:	6a 04                	push   $0x4
   8921c:	68 ab 2b 08 00       	push   $0x82bab
   89221:	50                   	push   %eax
   89222:	e8 18 9f ff ff       	call   8313f <memcpy>
   89227:	83 c4 10             	add    $0x10,%esp
   8922a:	8b 45 f4             	mov    -0xc(%ebp),%eax
   8922d:	0f b6 40 0e          	movzbl 0xe(%eax),%eax
   89231:	0f b6 c0             	movzbl %al,%eax
   89234:	8d 14 00             	lea    (%eax,%eax,1),%edx
   89237:	8b 45 f4             	mov    -0xc(%ebp),%eax
   8923a:	0f b6 40 0f          	movzbl 0xf(%eax),%eax
   8923e:	0f b6 c0             	movzbl %al,%eax
   89241:	09 d0                	or     %edx,%eax
   89243:	0f b6 80 af 2b 08 00 	movzbl 0x82baf(%eax),%eax
   8924a:	a2 77 b0 08 00       	mov    %al,0x8b077
   8924f:	b8 70 b0 08 00       	mov    $0x8b070,%eax
   89254:	eb 05                	jmp    8925b <storage_path+0x6f>
   89256:	b8 a3 2b 08 00       	mov    $0x82ba3,%eax
   8925b:	c9                   	leave  
   8925c:	c3                   	ret    

0008925d <storage_read>:
   8925d:	f3 0f 1e fb          	endbr32 
   89261:	55                   	push   %ebp
   89262:	89 e5                	mov    %esp,%ebp
   89264:	83 ec 28             	sub    $0x28,%esp
   89267:	8b 45 10             	mov    0x10(%ebp),%eax
   8926a:	88 45 e4             	mov    %al,-0x1c(%ebp)
   8926d:	8b 45 08             	mov    0x8(%ebp),%eax
   89270:	8b 00                	mov    (%eax),%eax
   89272:	85 c0                	test   %eax,%eax
   89274:	75 30                	jne    892a6 <storage_read+0x49>
   89276:	8b 45 08             	mov    0x8(%ebp),%eax
   89279:	89 45 f4             	mov    %eax,-0xc(%ebp)
   8927c:	8b 45 f4             	mov    -0xc(%ebp),%eax
   8927f:	0f b6 40 0c          	movzbl 0xc(%eax),%eax
   89283:	84 c0                	test   %al,%al
   89285:	75 18                	jne    8929f <storage_read+0x42>
   89287:	0f b6 45 e4          	movzbl -0x1c(%ebp),%eax
   8928b:	ff 75 14             	pushl  0x14(%ebp)
   8928e:	50                   	push   %eax
   8928f:	ff 75 0c             	pushl  0xc(%ebp)
   89292:	ff 75 f4             	pushl  -0xc(%ebp)
   89295:	e8 14 f3 ff ff       	call   885ae <ide_ata_read>
   8929a:	83 c4 10             	add    $0x10,%esp
   8929d:	eb 07                	jmp    892a6 <storage_read+0x49>
   8929f:	b8 01 00 00 00       	mov    $0x1,%eax
   892a4:	eb 00                	jmp    892a6 <storage_read+0x49>
   892a6:	c9                   	leave  
   892a7:	c3                   	ret    

000892a8 <storage_add>:
   892a8:	f3 0f 1e fb          	endbr32 
   892ac:	55                   	push   %ebp
   892ad:	89 e5                	mov    %esp,%ebp
   892af:	83 ec 18             	sub    $0x18,%esp
   892b2:	8b 15 8c be 0a 00    	mov    0xabe8c,%edx
   892b8:	a1 88 be 0a 00       	mov    0xabe88,%eax
   892bd:	39 c2                	cmp    %eax,%edx
   892bf:	7c 40                	jl     89301 <storage_add+0x59>
   892c1:	a1 88 be 0a 00       	mov    0xabe88,%eax
   892c6:	83 c0 05             	add    $0x5,%eax
   892c9:	a3 88 be 0a 00       	mov    %eax,0xabe88
   892ce:	a1 88 be 0a 00       	mov    0xabe88,%eax
   892d3:	89 c2                	mov    %eax,%edx
   892d5:	a1 84 be 0a 00       	mov    0xabe84,%eax
   892da:	83 ec 08             	sub    $0x8,%esp
   892dd:	52                   	push   %edx
   892de:	50                   	push   %eax
   892df:	e8 a9 a6 ff ff       	call   8398d <krealloc>
   892e4:	83 c4 10             	add    $0x10,%esp
   892e7:	89 45 f4             	mov    %eax,-0xc(%ebp)
   892ea:	83 7d f4 00          	cmpl   $0x0,-0xc(%ebp)
   892ee:	74 0a                	je     892fa <storage_add+0x52>
   892f0:	8b 45 f4             	mov    -0xc(%ebp),%eax
   892f3:	a3 84 be 0a 00       	mov    %eax,0xabe84
   892f8:	eb 07                	jmp    89301 <storage_add+0x59>
   892fa:	b8 01 00 00 00       	mov    $0x1,%eax
   892ff:	eb 1f                	jmp    89320 <storage_add+0x78>
   89301:	8b 0d 84 be 0a 00    	mov    0xabe84,%ecx
   89307:	a1 8c be 0a 00       	mov    0xabe8c,%eax
   8930c:	8d 50 01             	lea    0x1(%eax),%edx
   8930f:	89 15 8c be 0a 00    	mov    %edx,0xabe8c
   89315:	c1 e0 02             	shl    $0x2,%eax
   89318:	8d 14 01             	lea    (%ecx,%eax,1),%edx
   8931b:	8b 45 08             	mov    0x8(%ebp),%eax
   8931e:	89 02                	mov    %eax,(%edx)
   89320:	c9                   	leave  
   89321:	c3                   	ret    

00089322 <storage_addIDEDevice>:
   89322:	f3 0f 1e fb          	endbr32 
   89326:	55                   	push   %ebp
   89327:	89 e5                	mov    %esp,%ebp
   89329:	57                   	push   %edi
   8932a:	56                   	push   %esi
   8932b:	53                   	push   %ebx
   8932c:	83 ec 4c             	sub    $0x4c,%esp
   8932f:	8b 7d 10             	mov    0x10(%ebp),%edi
   89332:	8b 75 14             	mov    0x14(%ebp),%esi
   89335:	8b 5d 18             	mov    0x18(%ebp),%ebx
   89338:	8b 4d 1c             	mov    0x1c(%ebp),%ecx
   8933b:	8b 55 20             	mov    0x20(%ebp),%edx
   8933e:	8b 45 24             	mov    0x24(%ebp),%eax
   89341:	89 45 ac             	mov    %eax,-0x54(%ebp)
   89344:	89 f8                	mov    %edi,%eax
   89346:	88 45 c4             	mov    %al,-0x3c(%ebp)
   89349:	89 f0                	mov    %esi,%eax
   8934b:	88 45 c0             	mov    %al,-0x40(%ebp)
   8934e:	88 5d bc             	mov    %bl,-0x44(%ebp)
   89351:	88 4d b8             	mov    %cl,-0x48(%ebp)
   89354:	66 89 55 b4          	mov    %dx,-0x4c(%ebp)
   89358:	0f b7 45 ac          	movzwl -0x54(%ebp),%eax
   8935c:	66 89 45 b0          	mov    %ax,-0x50(%ebp)
   89360:	c7 45 e4 00 00 00 00 	movl   $0x0,-0x1c(%ebp)
   89367:	c7 45 e0 00 00 00 00 	movl   $0x0,-0x20(%ebp)
   8936e:	eb 2b                	jmp    8939b <storage_addIDEDevice+0x79>
   89370:	8b 55 e0             	mov    -0x20(%ebp),%edx
   89373:	8b 45 08             	mov    0x8(%ebp),%eax
   89376:	01 d0                	add    %edx,%eax
   89378:	0f b6 00             	movzbl (%eax),%eax
   8937b:	3c 20                	cmp    $0x20,%al
   8937d:	74 18                	je     89397 <storage_addIDEDevice+0x75>
   8937f:	8b 55 e0             	mov    -0x20(%ebp),%edx
   89382:	8b 45 08             	mov    0x8(%ebp),%eax
   89385:	01 d0                	add    %edx,%eax
   89387:	0f b6 00             	movzbl (%eax),%eax
   8938a:	84 c0                	test   %al,%al
   8938c:	74 09                	je     89397 <storage_addIDEDevice+0x75>
   8938e:	8b 45 e0             	mov    -0x20(%ebp),%eax
   89391:	83 c0 01             	add    $0x1,%eax
   89394:	89 45 e4             	mov    %eax,-0x1c(%ebp)
   89397:	83 45 e0 01          	addl   $0x1,-0x20(%ebp)
   8939b:	83 7d e0 27          	cmpl   $0x27,-0x20(%ebp)
   8939f:	7e cf                	jle    89370 <storage_addIDEDevice+0x4e>
   893a1:	8b 45 e4             	mov    -0x1c(%ebp),%eax
   893a4:	83 c0 01             	add    $0x1,%eax
   893a7:	83 ec 0c             	sub    $0xc,%esp
   893aa:	50                   	push   %eax
   893ab:	e8 85 a8 ff ff       	call   83c35 <kmalloc>
   893b0:	83 c4 10             	add    $0x10,%esp
   893b3:	89 45 d8             	mov    %eax,-0x28(%ebp)
   893b6:	c7 45 dc 00 00 00 00 	movl   $0x0,-0x24(%ebp)
   893bd:	eb 19                	jmp    893d8 <storage_addIDEDevice+0xb6>
   893bf:	8b 55 dc             	mov    -0x24(%ebp),%edx
   893c2:	8b 45 08             	mov    0x8(%ebp),%eax
   893c5:	01 d0                	add    %edx,%eax
   893c7:	8b 4d dc             	mov    -0x24(%ebp),%ecx
   893ca:	8b 55 d8             	mov    -0x28(%ebp),%edx
   893cd:	01 ca                	add    %ecx,%edx
   893cf:	0f b6 00             	movzbl (%eax),%eax
   893d2:	88 02                	mov    %al,(%edx)
   893d4:	83 45 dc 01          	addl   $0x1,-0x24(%ebp)
   893d8:	8b 45 dc             	mov    -0x24(%ebp),%eax
   893db:	3b 45 e4             	cmp    -0x1c(%ebp),%eax
   893de:	7c df                	jl     893bf <storage_addIDEDevice+0x9d>
   893e0:	8b 55 e4             	mov    -0x1c(%ebp),%edx
   893e3:	8b 45 d8             	mov    -0x28(%ebp),%eax
   893e6:	01 d0                	add    %edx,%eax
   893e8:	c6 00 00             	movb   $0x0,(%eax)
   893eb:	83 ec 0c             	sub    $0xc,%esp
   893ee:	6a 18                	push   $0x18
   893f0:	e8 40 a8 ff ff       	call   83c35 <kmalloc>
   893f5:	83 c4 10             	add    $0x10,%esp
   893f8:	89 45 d4             	mov    %eax,-0x2c(%ebp)
   893fb:	83 7d d4 00          	cmpl   $0x0,-0x2c(%ebp)
   893ff:	75 07                	jne    89408 <storage_addIDEDevice+0xe6>
   89401:	b8 01 00 00 00       	mov    $0x1,%eax
   89406:	eb 70                	jmp    89478 <storage_addIDEDevice+0x156>
   89408:	8b 45 d4             	mov    -0x2c(%ebp),%eax
   8940b:	c7 00 00 00 00 00    	movl   $0x0,(%eax)
   89411:	8b 45 d4             	mov    -0x2c(%ebp),%eax
   89414:	8b 55 d8             	mov    -0x28(%ebp),%edx
   89417:	89 50 04             	mov    %edx,0x4(%eax)
   8941a:	8b 45 d4             	mov    -0x2c(%ebp),%eax
   8941d:	8b 55 0c             	mov    0xc(%ebp),%edx
   89420:	89 50 08             	mov    %edx,0x8(%eax)
   89423:	8b 45 d4             	mov    -0x2c(%ebp),%eax
   89426:	0f b6 55 c4          	movzbl -0x3c(%ebp),%edx
   8942a:	88 50 0c             	mov    %dl,0xc(%eax)
   8942d:	8b 45 d4             	mov    -0x2c(%ebp),%eax
   89430:	0f b6 55 c0          	movzbl -0x40(%ebp),%edx
   89434:	88 50 0d             	mov    %dl,0xd(%eax)
   89437:	8b 45 d4             	mov    -0x2c(%ebp),%eax
   8943a:	0f b6 55 bc          	movzbl -0x44(%ebp),%edx
   8943e:	88 50 0e             	mov    %dl,0xe(%eax)
   89441:	8b 45 d4             	mov    -0x2c(%ebp),%eax
   89444:	0f b6 55 b8          	movzbl -0x48(%ebp),%edx
   89448:	88 50 0f             	mov    %dl,0xf(%eax)
   8944b:	8b 45 d4             	mov    -0x2c(%ebp),%eax
   8944e:	0f b7 55 b4          	movzwl -0x4c(%ebp),%edx
   89452:	66 89 50 10          	mov    %dx,0x10(%eax)
   89456:	8b 45 d4             	mov    -0x2c(%ebp),%eax
   89459:	0f b7 55 b0          	movzwl -0x50(%ebp),%edx
   8945d:	66 89 50 12          	mov    %dx,0x12(%eax)
   89461:	8b 45 d4             	mov    -0x2c(%ebp),%eax
   89464:	8b 55 28             	mov    0x28(%ebp),%edx
   89467:	89 50 14             	mov    %edx,0x14(%eax)
   8946a:	83 ec 0c             	sub    $0xc,%esp
   8946d:	ff 75 d4             	pushl  -0x2c(%ebp)
   89470:	e8 33 fe ff ff       	call   892a8 <storage_add>
   89475:	83 c4 10             	add    $0x10,%esp
   89478:	8d 65 f4             	lea    -0xc(%ebp),%esp
   8947b:	5b                   	pop    %ebx
   8947c:	5e                   	pop    %esi
   8947d:	5f                   	pop    %edi
   8947e:	5d                   	pop    %ebp
   8947f:	c3                   	ret    

00089480 <storage_init>:
   89480:	f3 0f 1e fb          	endbr32 
   89484:	55                   	push   %ebp
   89485:	89 e5                	mov    %esp,%ebp
   89487:	83 ec 08             	sub    $0x8,%esp
   8948a:	c7 05 8c be 0a 00 00 	movl   $0x0,0xabe8c
   89491:	00 00 00 
   89494:	c7 05 88 be 0a 00 0a 	movl   $0xa,0xabe88
   8949b:	00 00 00 
   8949e:	a1 88 be 0a 00       	mov    0xabe88,%eax
   894a3:	c1 e0 02             	shl    $0x2,%eax
   894a6:	83 ec 0c             	sub    $0xc,%esp
   894a9:	50                   	push   %eax
   894aa:	e8 86 a7 ff ff       	call   83c35 <kmalloc>
   894af:	83 c4 10             	add    $0x10,%esp
   894b2:	a3 84 be 0a 00       	mov    %eax,0xabe84
   894b7:	90                   	nop
   894b8:	c9                   	leave  
   894b9:	c3                   	ret    

000894ba <syscall_exec>:
   894ba:	f3 0f 1e fb          	endbr32 
   894be:	55                   	push   %ebp
   894bf:	89 e5                	mov    %esp,%ebp
   894c1:	53                   	push   %ebx
   894c2:	83 ec 14             	sub    $0x14,%esp
   894c5:	81 7d 08 81 00 00 00 	cmpl   $0x81,0x8(%ebp)
   894cc:	0f 84 0f 02 00 00    	je     896e1 <syscall_exec+0x227>
   894d2:	81 7d 08 81 00 00 00 	cmpl   $0x81,0x8(%ebp)
   894d9:	0f 87 17 02 00 00    	ja     896f6 <syscall_exec+0x23c>
   894df:	83 7d 08 60          	cmpl   $0x60,0x8(%ebp)
   894e3:	77 24                	ja     89509 <syscall_exec+0x4f>
   894e5:	83 7d 08 00          	cmpl   $0x0,0x8(%ebp)
   894e9:	0f 84 07 02 00 00    	je     896f6 <syscall_exec+0x23c>
   894ef:	83 7d 08 60          	cmpl   $0x60,0x8(%ebp)
   894f3:	0f 87 fd 01 00 00    	ja     896f6 <syscall_exec+0x23c>
   894f9:	8b 45 08             	mov    0x8(%ebp),%eax
   894fc:	c1 e0 02             	shl    $0x2,%eax
   894ff:	05 b4 2b 08 00       	add    $0x82bb4,%eax
   89504:	8b 00                	mov    (%eax),%eax
   89506:	3e ff e0             	notrack jmp *%eax
   89509:	81 7d 08 80 00 00 00 	cmpl   $0x80,0x8(%ebp)
   89510:	0f 84 ba 01 00 00    	je     896d0 <syscall_exec+0x216>
   89516:	e9 db 01 00 00       	jmp    896f6 <syscall_exec+0x23c>
   8951b:	8b 5d 0c             	mov    0xc(%ebp),%ebx
   8951e:	e8 5f 0e 00 00       	call   8a382 <task_getCurrent>
   89523:	83 ec 08             	sub    $0x8,%esp
   89526:	53                   	push   %ebx
   89527:	50                   	push   %eax
   89528:	e8 b5 0d 00 00       	call   8a2e2 <task_close>
   8952d:	83 c4 10             	add    $0x10,%esp
   89530:	e9 ce 01 00 00       	jmp    89703 <syscall_exec+0x249>
   89535:	8b 55 10             	mov    0x10(%ebp),%edx
   89538:	8b 45 0c             	mov    0xc(%ebp),%eax
   8953b:	83 ec 04             	sub    $0x4,%esp
   8953e:	ff 75 14             	pushl  0x14(%ebp)
   89541:	52                   	push   %edx
   89542:	50                   	push   %eax
   89543:	e8 93 10 00 00       	call   8a5db <task_read>
   89548:	83 c4 10             	add    $0x10,%esp
   8954b:	e9 b8 01 00 00       	jmp    89708 <syscall_exec+0x24e>
   89550:	8b 55 10             	mov    0x10(%ebp),%edx
   89553:	8b 45 0c             	mov    0xc(%ebp),%eax
   89556:	83 ec 04             	sub    $0x4,%esp
   89559:	ff 75 14             	pushl  0x14(%ebp)
   8955c:	52                   	push   %edx
   8955d:	50                   	push   %eax
   8955e:	e8 e0 10 00 00       	call   8a643 <task_write>
   89563:	83 c4 10             	add    $0x10,%esp
   89566:	e9 9d 01 00 00       	jmp    89708 <syscall_exec+0x24e>
   8956b:	8b 4d 14             	mov    0x14(%ebp),%ecx
   8956e:	8b 55 10             	mov    0x10(%ebp),%edx
   89571:	8b 45 0c             	mov    0xc(%ebp),%eax
   89574:	83 ec 04             	sub    $0x4,%esp
   89577:	51                   	push   %ecx
   89578:	52                   	push   %edx
   89579:	50                   	push   %eax
   8957a:	e8 6b 11 00 00       	call   8a6ea <task_seek>
   8957f:	83 c4 10             	add    $0x10,%esp
   89582:	e9 81 01 00 00       	jmp    89708 <syscall_exec+0x24e>
   89587:	8b 45 0c             	mov    0xc(%ebp),%eax
   8958a:	83 ec 0c             	sub    $0xc,%esp
   8958d:	50                   	push   %eax
   8958e:	e8 18 11 00 00       	call   8a6ab <task_tell>
   89593:	83 c4 10             	add    $0x10,%esp
   89596:	e9 6d 01 00 00       	jmp    89708 <syscall_exec+0x24e>
   8959b:	83 ec 0c             	sub    $0xc,%esp
   8959e:	ff 75 0c             	pushl  0xc(%ebp)
   895a1:	e8 f3 16 00 00       	call   8ac99 <task_malloc>
   895a6:	83 c4 10             	add    $0x10,%esp
   895a9:	e9 5a 01 00 00       	jmp    89708 <syscall_exec+0x24e>
   895ae:	8b 45 0c             	mov    0xc(%ebp),%eax
   895b1:	83 ec 0c             	sub    $0xc,%esp
   895b4:	50                   	push   %eax
   895b5:	e8 05 18 00 00       	call   8adbf <task_free>
   895ba:	83 c4 10             	add    $0x10,%esp
   895bd:	e9 41 01 00 00       	jmp    89703 <syscall_exec+0x249>
   895c2:	8b 45 0c             	mov    0xc(%ebp),%eax
   895c5:	83 ec 08             	sub    $0x8,%esp
   895c8:	ff 75 10             	pushl  0x10(%ebp)
   895cb:	50                   	push   %eax
   895cc:	e8 0a 15 00 00       	call   8aadb <task_realloc>
   895d1:	83 c4 10             	add    $0x10,%esp
   895d4:	e9 2f 01 00 00       	jmp    89708 <syscall_exec+0x24e>
   895d9:	8b 55 0c             	mov    0xc(%ebp),%edx
   895dc:	a1 24 bd 0a 00       	mov    0xabd24,%eax
   895e1:	83 ec 08             	sub    $0x8,%esp
   895e4:	52                   	push   %edx
   895e5:	50                   	push   %eax
   895e6:	e8 7a 0b 00 00       	call   8a165 <task_create>
   895eb:	83 c4 10             	add    $0x10,%esp
   895ee:	8b 00                	mov    (%eax),%eax
   895f0:	e9 13 01 00 00       	jmp    89708 <syscall_exec+0x24e>
   895f5:	83 ec 0c             	sub    $0xc,%esp
   895f8:	ff 75 0c             	pushl  0xc(%ebp)
   895fb:	e8 91 0c 00 00       	call   8a291 <task_get>
   89600:	83 c4 10             	add    $0x10,%esp
   89603:	89 45 f4             	mov    %eax,-0xc(%ebp)
   89606:	83 7d f4 00          	cmpl   $0x0,-0xc(%ebp)
   8960a:	0f 84 e9 00 00 00    	je     896f9 <syscall_exec+0x23f>
   89610:	8b 45 10             	mov    0x10(%ebp),%eax
   89613:	83 ec 08             	sub    $0x8,%esp
   89616:	50                   	push   %eax
   89617:	ff 75 f4             	pushl  -0xc(%ebp)
   8961a:	e8 fc 0e 00 00       	call   8a51b <task_createStdStream>
   8961f:	83 c4 10             	add    $0x10,%esp
   89622:	89 45 f0             	mov    %eax,-0x10(%ebp)
   89625:	83 7d f0 00          	cmpl   $0x0,-0x10(%ebp)
   89629:	0f 84 cd 00 00 00    	je     896fc <syscall_exec+0x242>
   8962f:	e8 4e 0d 00 00       	call   8a382 <task_getCurrent>
   89634:	83 ec 08             	sub    $0x8,%esp
   89637:	ff 75 f0             	pushl  -0x10(%ebp)
   8963a:	50                   	push   %eax
   8963b:	e8 50 0d 00 00       	call   8a390 <task_attach>
   89640:	83 c4 10             	add    $0x10,%esp
   89643:	8b 45 f0             	mov    -0x10(%ebp),%eax
   89646:	e9 bd 00 00 00       	jmp    89708 <syscall_exec+0x24e>
   8964b:	e8 32 0d 00 00       	call   8a382 <task_getCurrent>
   89650:	8b 00                	mov    (%eax),%eax
   89652:	e9 b1 00 00 00       	jmp    89708 <syscall_exec+0x24e>
   89657:	8b 55 0c             	mov    0xc(%ebp),%edx
   8965a:	a1 24 bd 0a 00       	mov    0xabd24,%eax
   8965f:	83 ec 08             	sub    $0x8,%esp
   89662:	52                   	push   %edx
   89663:	50                   	push   %eax
   89664:	e8 fc 0a 00 00       	call   8a165 <task_create>
   89669:	83 c4 10             	add    $0x10,%esp
   8966c:	89 45 f4             	mov    %eax,-0xc(%ebp)
   8966f:	83 7d f4 00          	cmpl   $0x0,-0xc(%ebp)
   89673:	0f 84 86 00 00 00    	je     896ff <syscall_exec+0x245>
   89679:	83 ec 08             	sub    $0x8,%esp
   8967c:	6a 01                	push   $0x1
   8967e:	ff 75 f4             	pushl  -0xc(%ebp)
   89681:	e8 95 0e 00 00       	call   8a51b <task_createStdStream>
   89686:	83 c4 10             	add    $0x10,%esp
   89689:	89 45 f0             	mov    %eax,-0x10(%ebp)
   8968c:	83 7d f0 00          	cmpl   $0x0,-0x10(%ebp)
   89690:	74 70                	je     89702 <syscall_exec+0x248>
   89692:	e8 eb 0c 00 00       	call   8a382 <task_getCurrent>
   89697:	83 ec 08             	sub    $0x8,%esp
   8969a:	ff 75 f0             	pushl  -0x10(%ebp)
   8969d:	50                   	push   %eax
   8969e:	e8 ed 0c 00 00       	call   8a390 <task_attach>
   896a3:	83 c4 10             	add    $0x10,%esp
   896a6:	8b 45 10             	mov    0x10(%ebp),%eax
   896a9:	8b 55 f0             	mov    -0x10(%ebp),%edx
   896ac:	89 10                	mov    %edx,(%eax)
   896ae:	8b 45 f4             	mov    -0xc(%ebp),%eax
   896b1:	8b 00                	mov    (%eax),%eax
   896b3:	eb 53                	jmp    89708 <syscall_exec+0x24e>
   896b5:	8b 4d 10             	mov    0x10(%ebp),%ecx
   896b8:	8b 55 0c             	mov    0xc(%ebp),%edx
   896bb:	a1 24 bd 0a 00       	mov    0xabd24,%eax
   896c0:	83 ec 04             	sub    $0x4,%esp
   896c3:	51                   	push   %ecx
   896c4:	52                   	push   %edx
   896c5:	50                   	push   %eax
   896c6:	e8 cc 0e 00 00       	call   8a597 <task_open>
   896cb:	83 c4 10             	add    $0x10,%esp
   896ce:	eb 38                	jmp    89708 <syscall_exec+0x24e>
   896d0:	8b 45 0c             	mov    0xc(%ebp),%eax
   896d3:	83 ec 0c             	sub    $0xc,%esp
   896d6:	50                   	push   %eax
   896d7:	e8 6d d1 ff ff       	call   86849 <vga_get>
   896dc:	83 c4 10             	add    $0x10,%esp
   896df:	eb 27                	jmp    89708 <syscall_exec+0x24e>
   896e1:	8b 55 10             	mov    0x10(%ebp),%edx
   896e4:	8b 45 0c             	mov    0xc(%ebp),%eax
   896e7:	83 ec 08             	sub    $0x8,%esp
   896ea:	52                   	push   %edx
   896eb:	50                   	push   %eax
   896ec:	e8 b5 d1 ff ff       	call   868a6 <vga_set>
   896f1:	83 c4 10             	add    $0x10,%esp
   896f4:	eb 12                	jmp    89708 <syscall_exec+0x24e>
   896f6:	90                   	nop
   896f7:	eb 0a                	jmp    89703 <syscall_exec+0x249>
   896f9:	90                   	nop
   896fa:	eb 07                	jmp    89703 <syscall_exec+0x249>
   896fc:	90                   	nop
   896fd:	eb 04                	jmp    89703 <syscall_exec+0x249>
   896ff:	90                   	nop
   89700:	eb 01                	jmp    89703 <syscall_exec+0x249>
   89702:	90                   	nop
   89703:	b8 00 00 00 00       	mov    $0x0,%eax
   89708:	8b 5d fc             	mov    -0x4(%ebp),%ebx
   8970b:	c9                   	leave  
   8970c:	c3                   	ret    

0008970d <syscall_run>:
   8970d:	f3 0f 1e fb          	endbr32 
   89711:	55                   	push   %ebp
   89712:	89 e5                	mov    %esp,%ebp
   89714:	83 ec 08             	sub    $0x8,%esp
   89717:	8b 45 0c             	mov    0xc(%ebp),%eax
   8971a:	8b 48 18             	mov    0x18(%eax),%ecx
   8971d:	8b 45 0c             	mov    0xc(%ebp),%eax
   89720:	8b 50 1c             	mov    0x1c(%eax),%edx
   89723:	8b 45 0c             	mov    0xc(%ebp),%eax
   89726:	8b 40 14             	mov    0x14(%eax),%eax
   89729:	51                   	push   %ecx
   8972a:	52                   	push   %edx
   8972b:	50                   	push   %eax
   8972c:	ff 75 08             	pushl  0x8(%ebp)
   8972f:	e8 86 fd ff ff       	call   894ba <syscall_exec>
   89734:	83 c4 10             	add    $0x10,%esp
   89737:	8b 55 0c             	mov    0xc(%ebp),%edx
   8973a:	89 42 20             	mov    %eax,0x20(%edx)
   8973d:	90                   	nop
   8973e:	c9                   	leave  
   8973f:	c3                   	ret    

00089740 <syscall_handler>:
   89740:	f3 0f 1e fb          	endbr32 
   89744:	55                   	push   %ebp
   89745:	89 e5                	mov    %esp,%ebp
   89747:	83 ec 08             	sub    $0x8,%esp
   8974a:	8b 45 08             	mov    0x8(%ebp),%eax
   8974d:	8b 40 20             	mov    0x20(%eax),%eax
   89750:	83 ec 08             	sub    $0x8,%esp
   89753:	ff 75 08             	pushl  0x8(%ebp)
   89756:	50                   	push   %eax
   89757:	e8 b1 ff ff ff       	call   8970d <syscall_run>
   8975c:	83 c4 10             	add    $0x10,%esp
   8975f:	90                   	nop
   89760:	c9                   	leave  
   89761:	c3                   	ret    

00089762 <syscall_init>:
   89762:	f3 0f 1e fb          	endbr32 
   89766:	55                   	push   %ebp
   89767:	89 e5                	mov    %esp,%ebp
   89769:	83 ec 08             	sub    $0x8,%esp
   8976c:	83 ec 08             	sub    $0x8,%esp
   8976f:	68 40 97 08 00       	push   $0x89740
   89774:	6a 1c                	push   $0x1c
   89776:	e8 86 b7 ff ff       	call   84f01 <isr_register>
   8977b:	83 c4 10             	add    $0x10,%esp
   8977e:	90                   	nop
   8977f:	c9                   	leave  
   89780:	c3                   	ret    

00089781 <elf32_load>:
   89781:	f3 0f 1e fb          	endbr32 
   89785:	55                   	push   %ebp
   89786:	89 e5                	mov    %esp,%ebp
   89788:	83 ec 68             	sub    $0x68,%esp
   8978b:	83 7d 08 00          	cmpl   $0x0,0x8(%ebp)
   8978f:	74 06                	je     89797 <elf32_load+0x16>
   89791:	83 7d 0c 00          	cmpl   $0x0,0xc(%ebp)
   89795:	75 0a                	jne    897a1 <elf32_load+0x20>
   89797:	b8 00 00 00 00       	mov    $0x0,%eax
   8979c:	e9 9a 04 00 00       	jmp    89c3b <elf32_load+0x4ba>
   897a1:	83 ec 08             	sub    $0x8,%esp
   897a4:	ff 75 0c             	pushl  0xc(%ebp)
   897a7:	ff 75 08             	pushl  0x8(%ebp)
   897aa:	e8 0d c4 ff ff       	call   85bbc <apofs_getFile>
   897af:	83 c4 10             	add    $0x10,%esp
   897b2:	89 45 dc             	mov    %eax,-0x24(%ebp)
   897b5:	83 7d dc 00          	cmpl   $0x0,-0x24(%ebp)
   897b9:	75 13                	jne    897ce <elf32_load+0x4d>
   897bb:	8b 45 18             	mov    0x18(%ebp),%eax
   897be:	c7 00 38 2d 08 00    	movl   $0x82d38,(%eax)
   897c4:	b8 00 00 00 00       	mov    $0x0,%eax
   897c9:	e9 6d 04 00 00       	jmp    89c3b <elf32_load+0x4ba>
   897ce:	83 ec 08             	sub    $0x8,%esp
   897d1:	ff 75 dc             	pushl  -0x24(%ebp)
   897d4:	ff 75 08             	pushl  0x8(%ebp)
   897d7:	e8 db c5 ff ff       	call   85db7 <apofs_getFileSize>
   897dc:	83 c4 10             	add    $0x10,%esp
   897df:	89 45 d8             	mov    %eax,-0x28(%ebp)
   897e2:	83 7d d8 00          	cmpl   $0x0,-0x28(%ebp)
   897e6:	75 13                	jne    897fb <elf32_load+0x7a>
   897e8:	8b 45 18             	mov    0x18(%ebp),%eax
   897eb:	c7 00 49 2d 08 00    	movl   $0x82d49,(%eax)
   897f1:	b8 00 00 00 00       	mov    $0x0,%eax
   897f6:	e9 40 04 00 00       	jmp    89c3b <elf32_load+0x4ba>
   897fb:	83 ec 0c             	sub    $0xc,%esp
   897fe:	ff 75 d8             	pushl  -0x28(%ebp)
   89801:	e8 2f a4 ff ff       	call   83c35 <kmalloc>
   89806:	83 c4 10             	add    $0x10,%esp
   89809:	89 45 d4             	mov    %eax,-0x2c(%ebp)
   8980c:	83 ec 0c             	sub    $0xc,%esp
   8980f:	ff 75 d8             	pushl  -0x28(%ebp)
   89812:	6a 00                	push   $0x0
   89814:	ff 75 d4             	pushl  -0x2c(%ebp)
   89817:	ff 75 dc             	pushl  -0x24(%ebp)
   8981a:	ff 75 08             	pushl  0x8(%ebp)
   8981d:	e8 46 c7 ff ff       	call   85f68 <apofs_read>
   89822:	83 c4 20             	add    $0x20,%esp
   89825:	39 45 d8             	cmp    %eax,-0x28(%ebp)
   89828:	76 21                	jbe    8984b <elf32_load+0xca>
   8982a:	83 ec 0c             	sub    $0xc,%esp
   8982d:	ff 75 d4             	pushl  -0x2c(%ebp)
   89830:	e8 aa a4 ff ff       	call   83cdf <kfree>
   89835:	83 c4 10             	add    $0x10,%esp
   89838:	8b 45 18             	mov    0x18(%ebp),%eax
   8983b:	c7 00 5a 2d 08 00    	movl   $0x82d5a,(%eax)
   89841:	b8 00 00 00 00       	mov    $0x0,%eax
   89846:	e9 f0 03 00 00       	jmp    89c3b <elf32_load+0x4ba>
   8984b:	8b 45 d4             	mov    -0x2c(%ebp),%eax
   8984e:	89 45 d0             	mov    %eax,-0x30(%ebp)
   89851:	8b 45 d0             	mov    -0x30(%ebp),%eax
   89854:	8b 00                	mov    (%eax),%eax
   89856:	3d 7f 45 4c 46       	cmp    $0x464c457f,%eax
   8985b:	74 21                	je     8987e <elf32_load+0xfd>
   8985d:	83 ec 0c             	sub    $0xc,%esp
   89860:	ff 75 d4             	pushl  -0x2c(%ebp)
   89863:	e8 77 a4 ff ff       	call   83cdf <kfree>
   89868:	83 c4 10             	add    $0x10,%esp
   8986b:	8b 45 18             	mov    0x18(%ebp),%eax
   8986e:	c7 00 6b 2d 08 00    	movl   $0x82d6b,(%eax)
   89874:	b8 00 00 00 00       	mov    $0x0,%eax
   89879:	e9 bd 03 00 00       	jmp    89c3b <elf32_load+0x4ba>
   8987e:	8b 45 d0             	mov    -0x30(%ebp),%eax
   89881:	0f b6 40 04          	movzbl 0x4(%eax),%eax
   89885:	3c 01                	cmp    $0x1,%al
   89887:	75 0b                	jne    89894 <elf32_load+0x113>
   89889:	8b 45 d0             	mov    -0x30(%ebp),%eax
   8988c:	0f b6 40 05          	movzbl 0x5(%eax),%eax
   89890:	3c 01                	cmp    $0x1,%al
   89892:	74 21                	je     898b5 <elf32_load+0x134>
   89894:	83 ec 0c             	sub    $0xc,%esp
   89897:	ff 75 d4             	pushl  -0x2c(%ebp)
   8989a:	e8 40 a4 ff ff       	call   83cdf <kfree>
   8989f:	83 c4 10             	add    $0x10,%esp
   898a2:	8b 45 18             	mov    0x18(%ebp),%eax
   898a5:	c7 00 7c 2d 08 00    	movl   $0x82d7c,(%eax)
   898ab:	b8 00 00 00 00       	mov    $0x0,%eax
   898b0:	e9 86 03 00 00       	jmp    89c3b <elf32_load+0x4ba>
   898b5:	8b 45 d0             	mov    -0x30(%ebp),%eax
   898b8:	0f b7 40 10          	movzwl 0x10(%eax),%eax
   898bc:	66 83 f8 02          	cmp    $0x2,%ax
   898c0:	74 21                	je     898e3 <elf32_load+0x162>
   898c2:	83 ec 0c             	sub    $0xc,%esp
   898c5:	ff 75 d4             	pushl  -0x2c(%ebp)
   898c8:	e8 12 a4 ff ff       	call   83cdf <kfree>
   898cd:	83 c4 10             	add    $0x10,%esp
   898d0:	8b 45 18             	mov    0x18(%ebp),%eax
   898d3:	c7 00 ad 2d 08 00    	movl   $0x82dad,(%eax)
   898d9:	b8 00 00 00 00       	mov    $0x0,%eax
   898de:	e9 58 03 00 00       	jmp    89c3b <elf32_load+0x4ba>
   898e3:	8b 45 d0             	mov    -0x30(%ebp),%eax
   898e6:	0f b7 40 12          	movzwl 0x12(%eax),%eax
   898ea:	66 83 f8 03          	cmp    $0x3,%ax
   898ee:	74 21                	je     89911 <elf32_load+0x190>
   898f0:	83 ec 0c             	sub    $0xc,%esp
   898f3:	ff 75 d4             	pushl  -0x2c(%ebp)
   898f6:	e8 e4 a3 ff ff       	call   83cdf <kfree>
   898fb:	83 c4 10             	add    $0x10,%esp
   898fe:	8b 45 18             	mov    0x18(%ebp),%eax
   89901:	c7 00 c4 2d 08 00    	movl   $0x82dc4,(%eax)
   89907:	b8 00 00 00 00       	mov    $0x0,%eax
   8990c:	e9 2a 03 00 00       	jmp    89c3b <elf32_load+0x4ba>
   89911:	e8 e5 aa ff ff       	call   843fb <vmem_cloneKernelMemory>
   89916:	89 45 cc             	mov    %eax,-0x34(%ebp)
   89919:	83 7d cc 00          	cmpl   $0x0,-0x34(%ebp)
   8991d:	75 0a                	jne    89929 <elf32_load+0x1a8>
   8991f:	b8 00 00 00 00       	mov    $0x0,%eax
   89924:	e9 12 03 00 00       	jmp    89c3b <elf32_load+0x4ba>
   89929:	83 ec 0c             	sub    $0xc,%esp
   8992c:	ff 75 cc             	pushl  -0x34(%ebp)
   8992f:	e8 3c ad ff ff       	call   84670 <vmem_switchMemory>
   89934:	83 c4 10             	add    $0x10,%esp
   89937:	8b 45 d0             	mov    -0x30(%ebp),%eax
   8993a:	8b 50 20             	mov    0x20(%eax),%edx
   8993d:	8b 45 d4             	mov    -0x2c(%ebp),%eax
   89940:	01 d0                	add    %edx,%eax
   89942:	89 45 c8             	mov    %eax,-0x38(%ebp)
   89945:	8b 45 d0             	mov    -0x30(%ebp),%eax
   89948:	0f b7 40 30          	movzwl 0x30(%eax),%eax
   8994c:	0f b7 c0             	movzwl %ax,%eax
   8994f:	89 45 c4             	mov    %eax,-0x3c(%ebp)
   89952:	8b 45 d0             	mov    -0x30(%ebp),%eax
   89955:	0f b7 40 2e          	movzwl 0x2e(%eax),%eax
   89959:	0f b7 c0             	movzwl %ax,%eax
   8995c:	89 45 c0             	mov    %eax,-0x40(%ebp)
   8995f:	c7 45 f4 00 00 00 00 	movl   $0x0,-0xc(%ebp)
   89966:	8b 45 d0             	mov    -0x30(%ebp),%eax
   89969:	0f b7 40 32          	movzwl 0x32(%eax),%eax
   8996d:	66 85 c0             	test   %ax,%ax
   89970:	74 31                	je     899a3 <elf32_load+0x222>
   89972:	8b 45 d0             	mov    -0x30(%ebp),%eax
   89975:	0f b7 40 32          	movzwl 0x32(%eax),%eax
   89979:	0f b7 c0             	movzwl %ax,%eax
   8997c:	0f af 45 c0          	imul   -0x40(%ebp),%eax
   89980:	89 c2                	mov    %eax,%edx
   89982:	8b 45 c8             	mov    -0x38(%ebp),%eax
   89985:	01 d0                	add    %edx,%eax
   89987:	89 45 bc             	mov    %eax,-0x44(%ebp)
   8998a:	8b 45 bc             	mov    -0x44(%ebp),%eax
   8998d:	8b 40 04             	mov    0x4(%eax),%eax
   89990:	83 f8 03             	cmp    $0x3,%eax
   89993:	75 0e                	jne    899a3 <elf32_load+0x222>
   89995:	8b 45 bc             	mov    -0x44(%ebp),%eax
   89998:	8b 50 10             	mov    0x10(%eax),%edx
   8999b:	8b 45 d4             	mov    -0x2c(%ebp),%eax
   8999e:	01 d0                	add    %edx,%eax
   899a0:	89 45 f4             	mov    %eax,-0xc(%ebp)
   899a3:	c7 45 f0 00 00 00 00 	movl   $0x0,-0x10(%ebp)
   899aa:	c7 45 ec 00 00 00 00 	movl   $0x0,-0x14(%ebp)
   899b1:	e9 db 01 00 00       	jmp    89b91 <elf32_load+0x410>
   899b6:	8b 45 ec             	mov    -0x14(%ebp),%eax
   899b9:	0f af 45 c0          	imul   -0x40(%ebp),%eax
   899bd:	89 c2                	mov    %eax,%edx
   899bf:	8b 45 c8             	mov    -0x38(%ebp),%eax
   899c2:	01 d0                	add    %edx,%eax
   899c4:	89 45 b0             	mov    %eax,-0x50(%ebp)
   899c7:	8b 45 b0             	mov    -0x50(%ebp),%eax
   899ca:	8b 40 04             	mov    0x4(%eax),%eax
   899cd:	85 c0                	test   %eax,%eax
   899cf:	0f 84 b7 01 00 00    	je     89b8c <elf32_load+0x40b>
   899d5:	c7 45 ac da 2d 08 00 	movl   $0x82dda,-0x54(%ebp)
   899dc:	83 7d f4 00          	cmpl   $0x0,-0xc(%ebp)
   899e0:	74 0d                	je     899ef <elf32_load+0x26e>
   899e2:	8b 45 b0             	mov    -0x50(%ebp),%eax
   899e5:	8b 10                	mov    (%eax),%edx
   899e7:	8b 45 f4             	mov    -0xc(%ebp),%eax
   899ea:	01 d0                	add    %edx,%eax
   899ec:	89 45 ac             	mov    %eax,-0x54(%ebp)
   899ef:	8b 45 b0             	mov    -0x50(%ebp),%eax
   899f2:	8b 40 08             	mov    0x8(%eax),%eax
   899f5:	83 e0 01             	and    $0x1,%eax
   899f8:	88 45 ab             	mov    %al,-0x55(%ebp)
   899fb:	8b 45 b0             	mov    -0x50(%ebp),%eax
   899fe:	8b 40 08             	mov    0x8(%eax),%eax
   89a01:	83 e0 02             	and    $0x2,%eax
   89a04:	88 45 aa             	mov    %al,-0x56(%ebp)
   89a07:	8b 45 b0             	mov    -0x50(%ebp),%eax
   89a0a:	8b 40 08             	mov    0x8(%eax),%eax
   89a0d:	83 e0 04             	and    $0x4,%eax
   89a10:	88 45 a9             	mov    %al,-0x57(%ebp)
   89a13:	80 7d aa 00          	cmpb   $0x0,-0x56(%ebp)
   89a17:	0f 84 70 01 00 00    	je     89b8d <elf32_load+0x40c>
   89a1d:	8b 45 b0             	mov    -0x50(%ebp),%eax
   89a20:	8b 40 14             	mov    0x14(%eax),%eax
   89a23:	85 c0                	test   %eax,%eax
   89a25:	0f 84 62 01 00 00    	je     89b8d <elf32_load+0x40c>
   89a2b:	8b 45 b0             	mov    -0x50(%ebp),%eax
   89a2e:	8b 40 0c             	mov    0xc(%eax),%eax
   89a31:	c1 e8 0c             	shr    $0xc,%eax
   89a34:	89 45 a4             	mov    %eax,-0x5c(%ebp)
   89a37:	8b 45 b0             	mov    -0x50(%ebp),%eax
   89a3a:	8b 50 0c             	mov    0xc(%eax),%edx
   89a3d:	8b 45 b0             	mov    -0x50(%ebp),%eax
   89a40:	8b 40 14             	mov    0x14(%eax),%eax
   89a43:	01 d0                	add    %edx,%eax
   89a45:	c1 e8 0c             	shr    $0xc,%eax
   89a48:	89 45 e8             	mov    %eax,-0x18(%ebp)
   89a4b:	8b 45 b0             	mov    -0x50(%ebp),%eax
   89a4e:	8b 50 0c             	mov    0xc(%eax),%edx
   89a51:	8b 45 b0             	mov    -0x50(%ebp),%eax
   89a54:	8b 40 14             	mov    0x14(%eax),%eax
   89a57:	01 d0                	add    %edx,%eax
   89a59:	39 45 f0             	cmp    %eax,-0x10(%ebp)
   89a5c:	73 11                	jae    89a6f <elf32_load+0x2ee>
   89a5e:	8b 45 b0             	mov    -0x50(%ebp),%eax
   89a61:	8b 50 0c             	mov    0xc(%eax),%edx
   89a64:	8b 45 b0             	mov    -0x50(%ebp),%eax
   89a67:	8b 40 14             	mov    0x14(%eax),%eax
   89a6a:	01 d0                	add    %edx,%eax
   89a6c:	89 45 f0             	mov    %eax,-0x10(%ebp)
   89a6f:	8b 45 a4             	mov    -0x5c(%ebp),%eax
   89a72:	3b 45 e8             	cmp    -0x18(%ebp),%eax
   89a75:	75 04                	jne    89a7b <elf32_load+0x2fa>
   89a77:	83 45 e8 01          	addl   $0x1,-0x18(%ebp)
   89a7b:	8b 45 a4             	mov    -0x5c(%ebp),%eax
   89a7e:	89 45 e4             	mov    %eax,-0x1c(%ebp)
   89a81:	e9 ad 00 00 00       	jmp    89b33 <elf32_load+0x3b2>
   89a86:	8b 45 e4             	mov    -0x1c(%ebp),%eax
   89a89:	c1 e0 0c             	shl    $0xc,%eax
   89a8c:	83 ec 08             	sub    $0x8,%esp
   89a8f:	50                   	push   %eax
   89a90:	ff 75 cc             	pushl  -0x34(%ebp)
   89a93:	e8 99 a2 ff ff       	call   83d31 <vmem_getPage>
   89a98:	83 c4 10             	add    $0x10,%esp
   89a9b:	89 45 a0             	mov    %eax,-0x60(%ebp)
   89a9e:	83 7d a0 00          	cmpl   $0x0,-0x60(%ebp)
   89aa2:	74 60                	je     89b04 <elf32_load+0x383>
   89aa4:	8b 45 a0             	mov    -0x60(%ebp),%eax
   89aa7:	0f b6 00             	movzbl (%eax),%eax
   89aaa:	83 e0 04             	and    $0x4,%eax
   89aad:	84 c0                	test   %al,%al
   89aaf:	75 40                	jne    89af1 <elf32_load+0x370>
   89ab1:	a1 10 b9 0a 00       	mov    0xab910,%eax
   89ab6:	83 ec 0c             	sub    $0xc,%esp
   89ab9:	50                   	push   %eax
   89aba:	e8 b1 ab ff ff       	call   84670 <vmem_switchMemory>
   89abf:	83 c4 10             	add    $0x10,%esp
   89ac2:	83 ec 0c             	sub    $0xc,%esp
   89ac5:	ff 75 cc             	pushl  -0x34(%ebp)
   89ac8:	e8 5e aa ff ff       	call   8452b <vmem_freeMemory>
   89acd:	83 c4 10             	add    $0x10,%esp
   89ad0:	83 ec 0c             	sub    $0xc,%esp
   89ad3:	ff 75 d4             	pushl  -0x2c(%ebp)
   89ad6:	e8 04 a2 ff ff       	call   83cdf <kfree>
   89adb:	83 c4 10             	add    $0x10,%esp
   89ade:	8b 45 18             	mov    0x18(%ebp),%eax
   89ae1:	c7 00 dc 2d 08 00    	movl   $0x82ddc,(%eax)
   89ae7:	b8 00 00 00 00       	mov    $0x0,%eax
   89aec:	e9 4a 01 00 00       	jmp    89c3b <elf32_load+0x4ba>
   89af1:	80 7d ab 00          	cmpb   $0x0,-0x55(%ebp)
   89af5:	74 37                	je     89b2e <elf32_load+0x3ad>
   89af7:	8b 45 a0             	mov    -0x60(%ebp),%eax
   89afa:	0f b6 10             	movzbl (%eax),%edx
   89afd:	83 ca 02             	or     $0x2,%edx
   89b00:	88 10                	mov    %dl,(%eax)
   89b02:	eb 2a                	jmp    89b2e <elf32_load+0x3ad>
   89b04:	80 7d ab 00          	cmpb   $0x0,-0x55(%ebp)
   89b08:	74 07                	je     89b11 <elf32_load+0x390>
   89b0a:	ba 07 00 00 00       	mov    $0x7,%edx
   89b0f:	eb 05                	jmp    89b16 <elf32_load+0x395>
   89b11:	ba 05 00 00 00       	mov    $0x5,%edx
   89b16:	8b 45 e4             	mov    -0x1c(%ebp),%eax
   89b19:	c1 e0 0c             	shl    $0xc,%eax
   89b1c:	83 ec 04             	sub    $0x4,%esp
   89b1f:	52                   	push   %edx
   89b20:	50                   	push   %eax
   89b21:	ff 75 cc             	pushl  -0x34(%ebp)
   89b24:	e8 3d a7 ff ff       	call   84266 <vmem_allocPage>
   89b29:	83 c4 10             	add    $0x10,%esp
   89b2c:	eb 01                	jmp    89b2f <elf32_load+0x3ae>
   89b2e:	90                   	nop
   89b2f:	83 45 e4 01          	addl   $0x1,-0x1c(%ebp)
   89b33:	8b 45 e4             	mov    -0x1c(%ebp),%eax
   89b36:	3b 45 e8             	cmp    -0x18(%ebp),%eax
   89b39:	0f 82 47 ff ff ff    	jb     89a86 <elf32_load+0x305>
   89b3f:	8b 45 b0             	mov    -0x50(%ebp),%eax
   89b42:	8b 40 14             	mov    0x14(%eax),%eax
   89b45:	8b 55 b0             	mov    -0x50(%ebp),%edx
   89b48:	8b 52 0c             	mov    0xc(%edx),%edx
   89b4b:	83 ec 04             	sub    $0x4,%esp
   89b4e:	50                   	push   %eax
   89b4f:	6a 00                	push   $0x0
   89b51:	52                   	push   %edx
   89b52:	e8 21 96 ff ff       	call   83178 <memset>
   89b57:	83 c4 10             	add    $0x10,%esp
   89b5a:	8b 45 b0             	mov    -0x50(%ebp),%eax
   89b5d:	8b 40 04             	mov    0x4(%eax),%eax
   89b60:	83 f8 08             	cmp    $0x8,%eax
   89b63:	74 28                	je     89b8d <elf32_load+0x40c>
   89b65:	8b 45 b0             	mov    -0x50(%ebp),%eax
   89b68:	8b 40 14             	mov    0x14(%eax),%eax
   89b6b:	8b 55 b0             	mov    -0x50(%ebp),%edx
   89b6e:	8b 4a 10             	mov    0x10(%edx),%ecx
   89b71:	8b 55 d4             	mov    -0x2c(%ebp),%edx
   89b74:	01 d1                	add    %edx,%ecx
   89b76:	8b 55 b0             	mov    -0x50(%ebp),%edx
   89b79:	8b 52 0c             	mov    0xc(%edx),%edx
   89b7c:	83 ec 04             	sub    $0x4,%esp
   89b7f:	50                   	push   %eax
   89b80:	51                   	push   %ecx
   89b81:	52                   	push   %edx
   89b82:	e8 b8 95 ff ff       	call   8313f <memcpy>
   89b87:	83 c4 10             	add    $0x10,%esp
   89b8a:	eb 01                	jmp    89b8d <elf32_load+0x40c>
   89b8c:	90                   	nop
   89b8d:	83 45 ec 01          	addl   $0x1,-0x14(%ebp)
   89b91:	8b 45 ec             	mov    -0x14(%ebp),%eax
   89b94:	39 45 c4             	cmp    %eax,-0x3c(%ebp)
   89b97:	0f 87 19 fe ff ff    	ja     899b6 <elf32_load+0x235>
   89b9d:	8b 45 14             	mov    0x14(%ebp),%eax
   89ba0:	c1 e8 0c             	shr    $0xc,%eax
   89ba3:	89 c2                	mov    %eax,%edx
   89ba5:	8b 45 14             	mov    0x14(%ebp),%eax
   89ba8:	25 ff 0f 00 00       	and    $0xfff,%eax
   89bad:	85 c0                	test   %eax,%eax
   89baf:	0f 95 c0             	setne  %al
   89bb2:	0f b6 c0             	movzbl %al,%eax
   89bb5:	01 d0                	add    %edx,%eax
   89bb7:	89 45 b8             	mov    %eax,-0x48(%ebp)
   89bba:	c7 45 b4 00 00 0c 00 	movl   $0xc0000,-0x4c(%ebp)
   89bc1:	c7 45 e0 00 00 00 00 	movl   $0x0,-0x20(%ebp)
   89bc8:	eb 22                	jmp    89bec <elf32_load+0x46b>
   89bca:	8b 45 e0             	mov    -0x20(%ebp),%eax
   89bcd:	8b 55 b4             	mov    -0x4c(%ebp),%edx
   89bd0:	29 c2                	sub    %eax,%edx
   89bd2:	89 d0                	mov    %edx,%eax
   89bd4:	c1 e0 0c             	shl    $0xc,%eax
   89bd7:	83 ec 04             	sub    $0x4,%esp
   89bda:	6a 07                	push   $0x7
   89bdc:	50                   	push   %eax
   89bdd:	ff 75 cc             	pushl  -0x34(%ebp)
   89be0:	e8 81 a6 ff ff       	call   84266 <vmem_allocPage>
   89be5:	83 c4 10             	add    $0x10,%esp
   89be8:	83 45 e0 01          	addl   $0x1,-0x20(%ebp)
   89bec:	8b 45 e0             	mov    -0x20(%ebp),%eax
   89bef:	39 45 b8             	cmp    %eax,-0x48(%ebp)
   89bf2:	77 d6                	ja     89bca <elf32_load+0x449>
   89bf4:	8b 45 10             	mov    0x10(%ebp),%eax
   89bf7:	8b 55 cc             	mov    -0x34(%ebp),%edx
   89bfa:	89 50 04             	mov    %edx,0x4(%eax)
   89bfd:	8b 45 d0             	mov    -0x30(%ebp),%eax
   89c00:	8b 50 18             	mov    0x18(%eax),%edx
   89c03:	8b 45 10             	mov    0x10(%ebp),%eax
   89c06:	89 50 20             	mov    %edx,0x20(%eax)
   89c09:	8b 45 10             	mov    0x10(%ebp),%eax
   89c0c:	c7 40 24 00 00 00 c0 	movl   $0xc0000000,0x24(%eax)
   89c13:	8b 45 10             	mov    0x10(%ebp),%eax
   89c16:	8b 55 f0             	mov    -0x10(%ebp),%edx
   89c19:	89 50 28             	mov    %edx,0x28(%eax)
   89c1c:	8b 45 10             	mov    0x10(%ebp),%eax
   89c1f:	8b 50 28             	mov    0x28(%eax),%edx
   89c22:	8b 45 10             	mov    0x10(%ebp),%eax
   89c25:	89 50 2c             	mov    %edx,0x2c(%eax)
   89c28:	83 ec 0c             	sub    $0xc,%esp
   89c2b:	ff 75 d4             	pushl  -0x2c(%ebp)
   89c2e:	e8 ac a0 ff ff       	call   83cdf <kfree>
   89c33:	83 c4 10             	add    $0x10,%esp
   89c36:	b8 01 00 00 00       	mov    $0x1,%eax
   89c3b:	c9                   	leave  
   89c3c:	c3                   	ret    

00089c3d <fd_createBuffer>:
   89c3d:	f3 0f 1e fb          	endbr32 
   89c41:	55                   	push   %ebp
   89c42:	89 e5                	mov    %esp,%ebp
   89c44:	83 ec 28             	sub    $0x28,%esp
   89c47:	8b 45 10             	mov    0x10(%ebp),%eax
   89c4a:	88 45 e4             	mov    %al,-0x1c(%ebp)
   89c4d:	83 ec 0c             	sub    $0xc,%esp
   89c50:	6a 18                	push   $0x18
   89c52:	e8 de 9f ff ff       	call   83c35 <kmalloc>
   89c57:	83 c4 10             	add    $0x10,%esp
   89c5a:	89 45 f4             	mov    %eax,-0xc(%ebp)
   89c5d:	83 7d f4 00          	cmpl   $0x0,-0xc(%ebp)
   89c61:	75 07                	jne    89c6a <fd_createBuffer+0x2d>
   89c63:	b8 00 00 00 00       	mov    $0x0,%eax
   89c68:	eb 3a                	jmp    89ca4 <fd_createBuffer+0x67>
   89c6a:	8b 45 f4             	mov    -0xc(%ebp),%eax
   89c6d:	c7 00 00 fd 00 fd    	movl   $0xfd00fd00,(%eax)
   89c73:	80 7d e4 00          	cmpb   $0x0,-0x1c(%ebp)
   89c77:	74 07                	je     89c80 <fd_createBuffer+0x43>
   89c79:	ba 02 00 00 00       	mov    $0x2,%edx
   89c7e:	eb 05                	jmp    89c85 <fd_createBuffer+0x48>
   89c80:	ba 01 00 00 00       	mov    $0x1,%edx
   89c85:	8b 45 f4             	mov    -0xc(%ebp),%eax
   89c88:	88 50 04             	mov    %dl,0x4(%eax)
   89c8b:	8b 45 f4             	mov    -0xc(%ebp),%eax
   89c8e:	8b 55 08             	mov    0x8(%ebp),%edx
   89c91:	89 50 08             	mov    %edx,0x8(%eax)
   89c94:	8b 45 f4             	mov    -0xc(%ebp),%eax
   89c97:	8b 55 0c             	mov    0xc(%ebp),%edx
   89c9a:	89 50 0c             	mov    %edx,0xc(%eax)
   89c9d:	8b 45 f4             	mov    -0xc(%ebp),%eax
   89ca0:	c6 40 14 00          	movb   $0x0,0x14(%eax)
   89ca4:	c9                   	leave  
   89ca5:	c3                   	ret    

00089ca6 <fd_createOutStream>:
   89ca6:	f3 0f 1e fb          	endbr32 
   89caa:	55                   	push   %ebp
   89cab:	89 e5                	mov    %esp,%ebp
   89cad:	83 ec 18             	sub    $0x18,%esp
   89cb0:	83 ec 0c             	sub    $0xc,%esp
   89cb3:	6a 18                	push   $0x18
   89cb5:	e8 7b 9f ff ff       	call   83c35 <kmalloc>
   89cba:	83 c4 10             	add    $0x10,%esp
   89cbd:	89 45 f4             	mov    %eax,-0xc(%ebp)
   89cc0:	83 7d f4 00          	cmpl   $0x0,-0xc(%ebp)
   89cc4:	75 07                	jne    89ccd <fd_createOutStream+0x27>
   89cc6:	b8 00 00 00 00       	mov    $0x0,%eax
   89ccb:	eb 48                	jmp    89d15 <fd_createOutStream+0x6f>
   89ccd:	8b 45 f4             	mov    -0xc(%ebp),%eax
   89cd0:	c7 00 00 fd 00 fd    	movl   $0xfd00fd00,(%eax)
   89cd6:	8b 45 f4             	mov    -0xc(%ebp),%eax
   89cd9:	c6 40 04 04          	movb   $0x4,0x4(%eax)
   89cdd:	8b 45 f4             	mov    -0xc(%ebp),%eax
   89ce0:	c7 40 08 00 00 00 00 	movl   $0x0,0x8(%eax)
   89ce7:	8b 45 f4             	mov    -0xc(%ebp),%eax
   89cea:	c7 40 0c 00 00 00 00 	movl   $0x0,0xc(%eax)
   89cf1:	83 7d 08 00          	cmpl   $0x0,0x8(%ebp)
   89cf5:	74 0b                	je     89d02 <fd_createOutStream+0x5c>
   89cf7:	8b 45 f4             	mov    -0xc(%ebp),%eax
   89cfa:	8b 55 08             	mov    0x8(%ebp),%edx
   89cfd:	89 50 10             	mov    %edx,0x10(%eax)
   89d00:	eb 0c                	jmp    89d0e <fd_createOutStream+0x68>
   89d02:	8b 15 84 b0 08 00    	mov    0x8b084,%edx
   89d08:	8b 45 f4             	mov    -0xc(%ebp),%eax
   89d0b:	89 50 10             	mov    %edx,0x10(%eax)
   89d0e:	8b 45 f4             	mov    -0xc(%ebp),%eax
   89d11:	c6 40 14 00          	movb   $0x0,0x14(%eax)
   89d15:	c9                   	leave  
   89d16:	c3                   	ret    

00089d17 <fd_createInStream>:
   89d17:	f3 0f 1e fb          	endbr32 
   89d1b:	55                   	push   %ebp
   89d1c:	89 e5                	mov    %esp,%ebp
   89d1e:	83 ec 18             	sub    $0x18,%esp
   89d21:	83 ec 0c             	sub    $0xc,%esp
   89d24:	6a 18                	push   $0x18
   89d26:	e8 0a 9f ff ff       	call   83c35 <kmalloc>
   89d2b:	83 c4 10             	add    $0x10,%esp
   89d2e:	89 45 f4             	mov    %eax,-0xc(%ebp)
   89d31:	83 7d f4 00          	cmpl   $0x0,-0xc(%ebp)
   89d35:	75 07                	jne    89d3e <fd_createInStream+0x27>
   89d37:	b8 00 00 00 00       	mov    $0x0,%eax
   89d3c:	eb 2b                	jmp    89d69 <fd_createInStream+0x52>
   89d3e:	8b 45 f4             	mov    -0xc(%ebp),%eax
   89d41:	c7 00 00 fd 00 fd    	movl   $0xfd00fd00,(%eax)
   89d47:	8b 45 f4             	mov    -0xc(%ebp),%eax
   89d4a:	c6 40 04 03          	movb   $0x3,0x4(%eax)
   89d4e:	8b 45 f4             	mov    -0xc(%ebp),%eax
   89d51:	c7 40 08 00 00 00 00 	movl   $0x0,0x8(%eax)
   89d58:	8b 45 f4             	mov    -0xc(%ebp),%eax
   89d5b:	c7 40 0c 00 00 00 00 	movl   $0x0,0xc(%eax)
   89d62:	8b 45 f4             	mov    -0xc(%ebp),%eax
   89d65:	c6 40 14 00          	movb   $0x0,0x14(%eax)
   89d69:	c9                   	leave  
   89d6a:	c3                   	ret    

00089d6b <fd_getSize>:
   89d6b:	f3 0f 1e fb          	endbr32 
   89d6f:	55                   	push   %ebp
   89d70:	89 e5                	mov    %esp,%ebp
   89d72:	8b 45 08             	mov    0x8(%ebp),%eax
   89d75:	8b 40 0c             	mov    0xc(%eax),%eax
   89d78:	5d                   	pop    %ebp
   89d79:	c3                   	ret    

00089d7a <fd_read>:
   89d7a:	f3 0f 1e fb          	endbr32 
   89d7e:	55                   	push   %ebp
   89d7f:	89 e5                	mov    %esp,%ebp
   89d81:	83 ec 18             	sub    $0x18,%esp
   89d84:	8b 45 08             	mov    0x8(%ebp),%eax
   89d87:	0f b6 40 04          	movzbl 0x4(%eax),%eax
   89d8b:	3c 01                	cmp    $0x1,%al
   89d8d:	74 0b                	je     89d9a <fd_read+0x20>
   89d8f:	8b 45 08             	mov    0x8(%ebp),%eax
   89d92:	0f b6 40 04          	movzbl 0x4(%eax),%eax
   89d96:	3c 02                	cmp    $0x2,%al
   89d98:	75 6b                	jne    89e05 <fd_read+0x8b>
   89d9a:	8b 45 08             	mov    0x8(%ebp),%eax
   89d9d:	0f b6 40 14          	movzbl 0x14(%eax),%eax
   89da1:	0f b6 d0             	movzbl %al,%edx
   89da4:	8b 45 10             	mov    0x10(%ebp),%eax
   89da7:	01 c2                	add    %eax,%edx
   89da9:	8b 45 08             	mov    0x8(%ebp),%eax
   89dac:	8b 40 0c             	mov    0xc(%eax),%eax
   89daf:	39 c2                	cmp    %eax,%edx
   89db1:	72 17                	jb     89dca <fd_read+0x50>
   89db3:	8b 45 08             	mov    0x8(%ebp),%eax
   89db6:	8b 50 0c             	mov    0xc(%eax),%edx
   89db9:	8b 45 08             	mov    0x8(%ebp),%eax
   89dbc:	0f b6 40 14          	movzbl 0x14(%eax),%eax
   89dc0:	0f b6 c0             	movzbl %al,%eax
   89dc3:	29 c2                	sub    %eax,%edx
   89dc5:	89 d0                	mov    %edx,%eax
   89dc7:	89 45 10             	mov    %eax,0x10(%ebp)
   89dca:	8b 45 08             	mov    0x8(%ebp),%eax
   89dcd:	8b 50 08             	mov    0x8(%eax),%edx
   89dd0:	8b 45 08             	mov    0x8(%ebp),%eax
   89dd3:	0f b6 40 14          	movzbl 0x14(%eax),%eax
   89dd7:	0f b6 c0             	movzbl %al,%eax
   89dda:	01 d0                	add    %edx,%eax
   89ddc:	83 ec 04             	sub    $0x4,%esp
   89ddf:	ff 75 10             	pushl  0x10(%ebp)
   89de2:	50                   	push   %eax
   89de3:	ff 75 0c             	pushl  0xc(%ebp)
   89de6:	e8 54 93 ff ff       	call   8313f <memcpy>
   89deb:	83 c4 10             	add    $0x10,%esp
   89dee:	8b 45 08             	mov    0x8(%ebp),%eax
   89df1:	0f b6 40 14          	movzbl 0x14(%eax),%eax
   89df5:	8b 55 10             	mov    0x10(%ebp),%edx
   89df8:	01 c2                	add    %eax,%edx
   89dfa:	8b 45 08             	mov    0x8(%ebp),%eax
   89dfd:	88 50 14             	mov    %dl,0x14(%eax)
   89e00:	8b 45 10             	mov    0x10(%ebp),%eax
   89e03:	eb 78                	jmp    89e7d <fd_read+0x103>
   89e05:	8b 45 08             	mov    0x8(%ebp),%eax
   89e08:	0f b6 40 04          	movzbl 0x4(%eax),%eax
   89e0c:	3c 03                	cmp    $0x3,%al
   89e0e:	75 68                	jne    89e78 <fd_read+0xfe>
   89e10:	8b 45 08             	mov    0x8(%ebp),%eax
   89e13:	8b 40 0c             	mov    0xc(%eax),%eax
   89e16:	39 45 10             	cmp    %eax,0x10(%ebp)
   89e19:	0f 46 45 10          	cmovbe 0x10(%ebp),%eax
   89e1d:	89 45 f4             	mov    %eax,-0xc(%ebp)
   89e20:	8b 45 08             	mov    0x8(%ebp),%eax
   89e23:	8b 40 08             	mov    0x8(%eax),%eax
   89e26:	83 ec 04             	sub    $0x4,%esp
   89e29:	ff 75 f4             	pushl  -0xc(%ebp)
   89e2c:	50                   	push   %eax
   89e2d:	ff 75 0c             	pushl  0xc(%ebp)
   89e30:	e8 0a 93 ff ff       	call   8313f <memcpy>
   89e35:	83 c4 10             	add    $0x10,%esp
   89e38:	8b 45 08             	mov    0x8(%ebp),%eax
   89e3b:	8b 40 0c             	mov    0xc(%eax),%eax
   89e3e:	2b 45 f4             	sub    -0xc(%ebp),%eax
   89e41:	89 c2                	mov    %eax,%edx
   89e43:	8b 45 08             	mov    0x8(%ebp),%eax
   89e46:	8b 48 08             	mov    0x8(%eax),%ecx
   89e49:	8b 45 f4             	mov    -0xc(%ebp),%eax
   89e4c:	01 c1                	add    %eax,%ecx
   89e4e:	8b 45 08             	mov    0x8(%ebp),%eax
   89e51:	8b 40 08             	mov    0x8(%eax),%eax
   89e54:	83 ec 04             	sub    $0x4,%esp
   89e57:	52                   	push   %edx
   89e58:	51                   	push   %ecx
   89e59:	50                   	push   %eax
   89e5a:	e8 e0 92 ff ff       	call   8313f <memcpy>
   89e5f:	83 c4 10             	add    $0x10,%esp
   89e62:	8b 45 08             	mov    0x8(%ebp),%eax
   89e65:	8b 40 0c             	mov    0xc(%eax),%eax
   89e68:	2b 45 f4             	sub    -0xc(%ebp),%eax
   89e6b:	89 c2                	mov    %eax,%edx
   89e6d:	8b 45 08             	mov    0x8(%ebp),%eax
   89e70:	89 50 0c             	mov    %edx,0xc(%eax)
   89e73:	8b 45 f4             	mov    -0xc(%ebp),%eax
   89e76:	eb 05                	jmp    89e7d <fd_read+0x103>
   89e78:	b8 00 00 00 00       	mov    $0x0,%eax
   89e7d:	c9                   	leave  
   89e7e:	c3                   	ret    

00089e7f <fd_istream_write>:
   89e7f:	f3 0f 1e fb          	endbr32 
   89e83:	55                   	push   %ebp
   89e84:	89 e5                	mov    %esp,%ebp
   89e86:	83 ec 18             	sub    $0x18,%esp
   89e89:	8b 45 08             	mov    0x8(%ebp),%eax
   89e8c:	0f b6 40 04          	movzbl 0x4(%eax),%eax
   89e90:	3c 03                	cmp    $0x3,%al
   89e92:	0f 85 c2 00 00 00    	jne    89f5a <fd_istream_write+0xdb>
   89e98:	8b 45 08             	mov    0x8(%ebp),%eax
   89e9b:	8b 40 08             	mov    0x8(%eax),%eax
   89e9e:	85 c0                	test   %eax,%eax
   89ea0:	75 4e                	jne    89ef0 <fd_istream_write+0x71>
   89ea2:	83 ec 0c             	sub    $0xc,%esp
   89ea5:	ff 75 10             	pushl  0x10(%ebp)
   89ea8:	e8 88 9d ff ff       	call   83c35 <kmalloc>
   89ead:	83 c4 10             	add    $0x10,%esp
   89eb0:	8b 55 08             	mov    0x8(%ebp),%edx
   89eb3:	89 42 08             	mov    %eax,0x8(%edx)
   89eb6:	8b 45 08             	mov    0x8(%ebp),%eax
   89eb9:	8b 40 08             	mov    0x8(%eax),%eax
   89ebc:	85 c0                	test   %eax,%eax
   89ebe:	75 0a                	jne    89eca <fd_istream_write+0x4b>
   89ec0:	b8 00 00 00 00       	mov    $0x0,%eax
   89ec5:	e9 a5 00 00 00       	jmp    89f6f <fd_istream_write+0xf0>
   89eca:	8b 45 08             	mov    0x8(%ebp),%eax
   89ecd:	8b 40 08             	mov    0x8(%eax),%eax
   89ed0:	83 ec 04             	sub    $0x4,%esp
   89ed3:	ff 75 10             	pushl  0x10(%ebp)
   89ed6:	ff 75 0c             	pushl  0xc(%ebp)
   89ed9:	50                   	push   %eax
   89eda:	e8 60 92 ff ff       	call   8313f <memcpy>
   89edf:	83 c4 10             	add    $0x10,%esp
   89ee2:	8b 45 08             	mov    0x8(%ebp),%eax
   89ee5:	8b 55 10             	mov    0x10(%ebp),%edx
   89ee8:	89 50 0c             	mov    %edx,0xc(%eax)
   89eeb:	8b 45 10             	mov    0x10(%ebp),%eax
   89eee:	eb 7f                	jmp    89f6f <fd_istream_write+0xf0>
   89ef0:	8b 45 08             	mov    0x8(%ebp),%eax
   89ef3:	8b 50 0c             	mov    0xc(%eax),%edx
   89ef6:	8b 45 10             	mov    0x10(%ebp),%eax
   89ef9:	01 c2                	add    %eax,%edx
   89efb:	8b 45 08             	mov    0x8(%ebp),%eax
   89efe:	8b 40 08             	mov    0x8(%eax),%eax
   89f01:	83 ec 08             	sub    $0x8,%esp
   89f04:	52                   	push   %edx
   89f05:	50                   	push   %eax
   89f06:	e8 82 9a ff ff       	call   8398d <krealloc>
   89f0b:	83 c4 10             	add    $0x10,%esp
   89f0e:	89 45 f4             	mov    %eax,-0xc(%ebp)
   89f11:	83 7d f4 00          	cmpl   $0x0,-0xc(%ebp)
   89f15:	75 07                	jne    89f1e <fd_istream_write+0x9f>
   89f17:	b8 00 00 00 00       	mov    $0x0,%eax
   89f1c:	eb 51                	jmp    89f6f <fd_istream_write+0xf0>
   89f1e:	8b 45 08             	mov    0x8(%ebp),%eax
   89f21:	8b 50 0c             	mov    0xc(%eax),%edx
   89f24:	8b 45 f4             	mov    -0xc(%ebp),%eax
   89f27:	01 d0                	add    %edx,%eax
   89f29:	83 ec 04             	sub    $0x4,%esp
   89f2c:	ff 75 10             	pushl  0x10(%ebp)
   89f2f:	ff 75 0c             	pushl  0xc(%ebp)
   89f32:	50                   	push   %eax
   89f33:	e8 07 92 ff ff       	call   8313f <memcpy>
   89f38:	83 c4 10             	add    $0x10,%esp
   89f3b:	8b 45 08             	mov    0x8(%ebp),%eax
   89f3e:	8b 55 f4             	mov    -0xc(%ebp),%edx
   89f41:	89 50 08             	mov    %edx,0x8(%eax)
   89f44:	8b 45 08             	mov    0x8(%ebp),%eax
   89f47:	8b 50 0c             	mov    0xc(%eax),%edx
   89f4a:	8b 45 10             	mov    0x10(%ebp),%eax
   89f4d:	01 c2                	add    %eax,%edx
   89f4f:	8b 45 08             	mov    0x8(%ebp),%eax
   89f52:	89 50 0c             	mov    %edx,0xc(%eax)
   89f55:	8b 45 10             	mov    0x10(%ebp),%eax
   89f58:	eb 15                	jmp    89f6f <fd_istream_write+0xf0>
   89f5a:	8b 45 08             	mov    0x8(%ebp),%eax
   89f5d:	0f b6 40 04          	movzbl 0x4(%eax),%eax
   89f61:	3c 05                	cmp    $0x5,%al
   89f63:	75 05                	jne    89f6a <fd_istream_write+0xeb>
   89f65:	8b 45 10             	mov    0x10(%ebp),%eax
   89f68:	eb 05                	jmp    89f6f <fd_istream_write+0xf0>
   89f6a:	b8 00 00 00 00       	mov    $0x0,%eax
   89f6f:	c9                   	leave  
   89f70:	c3                   	ret    

00089f71 <fd_write>:
   89f71:	f3 0f 1e fb          	endbr32 
   89f75:	55                   	push   %ebp
   89f76:	89 e5                	mov    %esp,%ebp
   89f78:	83 ec 08             	sub    $0x8,%esp
   89f7b:	8b 45 08             	mov    0x8(%ebp),%eax
   89f7e:	0f b6 40 04          	movzbl 0x4(%eax),%eax
   89f82:	3c 02                	cmp    $0x2,%al
   89f84:	75 6b                	jne    89ff1 <fd_write+0x80>
   89f86:	8b 45 08             	mov    0x8(%ebp),%eax
   89f89:	0f b6 40 14          	movzbl 0x14(%eax),%eax
   89f8d:	0f b6 d0             	movzbl %al,%edx
   89f90:	8b 45 10             	mov    0x10(%ebp),%eax
   89f93:	01 c2                	add    %eax,%edx
   89f95:	8b 45 08             	mov    0x8(%ebp),%eax
   89f98:	8b 40 0c             	mov    0xc(%eax),%eax
   89f9b:	39 c2                	cmp    %eax,%edx
   89f9d:	72 17                	jb     89fb6 <fd_write+0x45>
   89f9f:	8b 45 08             	mov    0x8(%ebp),%eax
   89fa2:	8b 50 0c             	mov    0xc(%eax),%edx
   89fa5:	8b 45 08             	mov    0x8(%ebp),%eax
   89fa8:	0f b6 40 14          	movzbl 0x14(%eax),%eax
   89fac:	0f b6 c0             	movzbl %al,%eax
   89faf:	29 c2                	sub    %eax,%edx
   89fb1:	89 d0                	mov    %edx,%eax
   89fb3:	89 45 10             	mov    %eax,0x10(%ebp)
   89fb6:	8b 45 08             	mov    0x8(%ebp),%eax
   89fb9:	8b 50 08             	mov    0x8(%eax),%edx
   89fbc:	8b 45 08             	mov    0x8(%ebp),%eax
   89fbf:	0f b6 40 14          	movzbl 0x14(%eax),%eax
   89fc3:	0f b6 c0             	movzbl %al,%eax
   89fc6:	01 d0                	add    %edx,%eax
   89fc8:	83 ec 04             	sub    $0x4,%esp
   89fcb:	ff 75 10             	pushl  0x10(%ebp)
   89fce:	ff 75 0c             	pushl  0xc(%ebp)
   89fd1:	50                   	push   %eax
   89fd2:	e8 68 91 ff ff       	call   8313f <memcpy>
   89fd7:	83 c4 10             	add    $0x10,%esp
   89fda:	8b 45 08             	mov    0x8(%ebp),%eax
   89fdd:	0f b6 40 14          	movzbl 0x14(%eax),%eax
   89fe1:	8b 55 10             	mov    0x10(%ebp),%edx
   89fe4:	01 c2                	add    %eax,%edx
   89fe6:	8b 45 08             	mov    0x8(%ebp),%eax
   89fe9:	88 50 14             	mov    %dl,0x14(%eax)
   89fec:	8b 45 10             	mov    0x10(%ebp),%eax
   89fef:	eb 34                	jmp    8a025 <fd_write+0xb4>
   89ff1:	8b 45 08             	mov    0x8(%ebp),%eax
   89ff4:	0f b6 40 04          	movzbl 0x4(%eax),%eax
   89ff8:	3c 04                	cmp    $0x4,%al
   89ffa:	75 24                	jne    8a020 <fd_write+0xaf>
   89ffc:	8b 45 08             	mov    0x8(%ebp),%eax
   89fff:	8b 40 10             	mov    0x10(%eax),%eax
   8a002:	85 c0                	test   %eax,%eax
   8a004:	74 1a                	je     8a020 <fd_write+0xaf>
   8a006:	8b 45 08             	mov    0x8(%ebp),%eax
   8a009:	8b 40 10             	mov    0x10(%eax),%eax
   8a00c:	83 ec 04             	sub    $0x4,%esp
   8a00f:	ff 75 10             	pushl  0x10(%ebp)
   8a012:	ff 75 0c             	pushl  0xc(%ebp)
   8a015:	50                   	push   %eax
   8a016:	e8 64 fe ff ff       	call   89e7f <fd_istream_write>
   8a01b:	83 c4 10             	add    $0x10,%esp
   8a01e:	eb 05                	jmp    8a025 <fd_write+0xb4>
   8a020:	b8 00 00 00 00       	mov    $0x0,%eax
   8a025:	c9                   	leave  
   8a026:	c3                   	ret    

0008a027 <fd_tell>:
   8a027:	f3 0f 1e fb          	endbr32 
   8a02b:	55                   	push   %ebp
   8a02c:	89 e5                	mov    %esp,%ebp
   8a02e:	8b 45 08             	mov    0x8(%ebp),%eax
   8a031:	0f b6 40 04          	movzbl 0x4(%eax),%eax
   8a035:	3c 01                	cmp    $0x1,%al
   8a037:	74 0b                	je     8a044 <fd_tell+0x1d>
   8a039:	8b 45 08             	mov    0x8(%ebp),%eax
   8a03c:	0f b6 40 04          	movzbl 0x4(%eax),%eax
   8a040:	3c 02                	cmp    $0x2,%al
   8a042:	75 0c                	jne    8a050 <fd_tell+0x29>
   8a044:	8b 45 08             	mov    0x8(%ebp),%eax
   8a047:	0f b6 40 14          	movzbl 0x14(%eax),%eax
   8a04b:	0f b6 c0             	movzbl %al,%eax
   8a04e:	eb 05                	jmp    8a055 <fd_tell+0x2e>
   8a050:	b8 00 00 00 00       	mov    $0x0,%eax
   8a055:	5d                   	pop    %ebp
   8a056:	c3                   	ret    

0008a057 <fd_seek>:
   8a057:	f3 0f 1e fb          	endbr32 
   8a05b:	55                   	push   %ebp
   8a05c:	89 e5                	mov    %esp,%ebp
   8a05e:	83 ec 10             	sub    $0x10,%esp
   8a061:	8b 45 08             	mov    0x8(%ebp),%eax
   8a064:	0f b6 40 04          	movzbl 0x4(%eax),%eax
   8a068:	3c 01                	cmp    $0x1,%al
   8a06a:	74 0b                	je     8a077 <fd_seek+0x20>
   8a06c:	8b 45 08             	mov    0x8(%ebp),%eax
   8a06f:	0f b6 40 04          	movzbl 0x4(%eax),%eax
   8a073:	3c 02                	cmp    $0x2,%al
   8a075:	75 71                	jne    8a0e8 <fd_seek+0x91>
   8a077:	83 7d 10 03          	cmpl   $0x3,0x10(%ebp)
   8a07b:	74 2c                	je     8a0a9 <fd_seek+0x52>
   8a07d:	83 7d 10 03          	cmpl   $0x3,0x10(%ebp)
   8a081:	7f 31                	jg     8a0b4 <fd_seek+0x5d>
   8a083:	83 7d 10 01          	cmpl   $0x1,0x10(%ebp)
   8a087:	74 08                	je     8a091 <fd_seek+0x3a>
   8a089:	83 7d 10 02          	cmpl   $0x2,0x10(%ebp)
   8a08d:	74 0b                	je     8a09a <fd_seek+0x43>
   8a08f:	eb 23                	jmp    8a0b4 <fd_seek+0x5d>
   8a091:	c7 45 fc 00 00 00 00 	movl   $0x0,-0x4(%ebp)
   8a098:	eb 21                	jmp    8a0bb <fd_seek+0x64>
   8a09a:	8b 45 08             	mov    0x8(%ebp),%eax
   8a09d:	0f b6 40 14          	movzbl 0x14(%eax),%eax
   8a0a1:	0f b6 c0             	movzbl %al,%eax
   8a0a4:	89 45 fc             	mov    %eax,-0x4(%ebp)
   8a0a7:	eb 12                	jmp    8a0bb <fd_seek+0x64>
   8a0a9:	8b 45 08             	mov    0x8(%ebp),%eax
   8a0ac:	8b 40 0c             	mov    0xc(%eax),%eax
   8a0af:	89 45 fc             	mov    %eax,-0x4(%ebp)
   8a0b2:	eb 07                	jmp    8a0bb <fd_seek+0x64>
   8a0b4:	b8 01 00 00 00       	mov    $0x1,%eax
   8a0b9:	eb 32                	jmp    8a0ed <fd_seek+0x96>
   8a0bb:	8b 45 0c             	mov    0xc(%ebp),%eax
   8a0be:	01 45 fc             	add    %eax,-0x4(%ebp)
   8a0c1:	8b 45 08             	mov    0x8(%ebp),%eax
   8a0c4:	8b 50 0c             	mov    0xc(%eax),%edx
   8a0c7:	8b 45 fc             	mov    -0x4(%ebp),%eax
   8a0ca:	39 c2                	cmp    %eax,%edx
   8a0cc:	77 07                	ja     8a0d5 <fd_seek+0x7e>
   8a0ce:	b8 01 00 00 00       	mov    $0x1,%eax
   8a0d3:	eb 18                	jmp    8a0ed <fd_seek+0x96>
   8a0d5:	8b 45 fc             	mov    -0x4(%ebp),%eax
   8a0d8:	89 c2                	mov    %eax,%edx
   8a0da:	8b 45 08             	mov    0x8(%ebp),%eax
   8a0dd:	88 50 14             	mov    %dl,0x14(%eax)
   8a0e0:	90                   	nop
   8a0e1:	b8 00 00 00 00       	mov    $0x0,%eax
   8a0e6:	eb 05                	jmp    8a0ed <fd_seek+0x96>
   8a0e8:	b8 01 00 00 00       	mov    $0x1,%eax
   8a0ed:	c9                   	leave  
   8a0ee:	c3                   	ret    

0008a0ef <fd_close>:
   8a0ef:	f3 0f 1e fb          	endbr32 
   8a0f3:	55                   	push   %ebp
   8a0f4:	89 e5                	mov    %esp,%ebp
   8a0f6:	83 ec 08             	sub    $0x8,%esp
   8a0f9:	8b 45 08             	mov    0x8(%ebp),%eax
   8a0fc:	0f b6 40 04          	movzbl 0x4(%eax),%eax
   8a100:	3c 03                	cmp    $0x3,%al
   8a102:	74 0b                	je     8a10f <fd_close+0x20>
   8a104:	8b 45 08             	mov    0x8(%ebp),%eax
   8a107:	0f b6 40 04          	movzbl 0x4(%eax),%eax
   8a10b:	3c 04                	cmp    $0x4,%al
   8a10d:	75 12                	jne    8a121 <fd_close+0x32>
   8a10f:	8b 45 08             	mov    0x8(%ebp),%eax
   8a112:	8b 40 08             	mov    0x8(%eax),%eax
   8a115:	83 ec 0c             	sub    $0xc,%esp
   8a118:	50                   	push   %eax
   8a119:	e8 c1 9b ff ff       	call   83cdf <kfree>
   8a11e:	83 c4 10             	add    $0x10,%esp
   8a121:	83 ec 0c             	sub    $0xc,%esp
   8a124:	ff 75 08             	pushl  0x8(%ebp)
   8a127:	e8 b3 9b ff ff       	call   83cdf <kfree>
   8a12c:	83 c4 10             	add    $0x10,%esp
   8a12f:	90                   	nop
   8a130:	c9                   	leave  
   8a131:	c3                   	ret    

0008a132 <task_init>:
   8a132:	f3 0f 1e fb          	endbr32 
   8a136:	55                   	push   %ebp
   8a137:	89 e5                	mov    %esp,%ebp
   8a139:	83 ec 08             	sub    $0x8,%esp
   8a13c:	83 ec 08             	sub    $0x8,%esp
   8a13f:	6a 0a                	push   $0xa
   8a141:	68 a8 be 0a 00       	push   $0xabea8
   8a146:	e8 53 91 ff ff       	call   8329e <parray>
   8a14b:	83 c4 10             	add    $0x10,%esp
   8a14e:	85 c0                	test   %eax,%eax
   8a150:	74 10                	je     8a162 <task_init+0x30>
   8a152:	83 ec 0c             	sub    $0xc,%esp
   8a155:	68 04 2e 08 00       	push   $0x82e04
   8a15a:	e8 c8 90 ff ff       	call   83227 <error>
   8a15f:	83 c4 10             	add    $0x10,%esp
   8a162:	90                   	nop
   8a163:	c9                   	leave  
   8a164:	c3                   	ret    

0008a165 <task_create>:
   8a165:	f3 0f 1e fb          	endbr32 
   8a169:	55                   	push   %ebp
   8a16a:	89 e5                	mov    %esp,%ebp
   8a16c:	83 ec 18             	sub    $0x18,%esp
   8a16f:	83 ec 0c             	sub    $0xc,%esp
   8a172:	6a 50                	push   $0x50
   8a174:	e8 bc 9a ff ff       	call   83c35 <kmalloc>
   8a179:	83 c4 10             	add    $0x10,%esp
   8a17c:	89 45 f4             	mov    %eax,-0xc(%ebp)
   8a17f:	83 7d f4 00          	cmpl   $0x0,-0xc(%ebp)
   8a183:	75 0a                	jne    8a18f <task_create+0x2a>
   8a185:	b8 00 00 00 00       	mov    $0x0,%eax
   8a18a:	e9 00 01 00 00       	jmp    8a28f <task_create+0x12a>
   8a18f:	c7 45 ec 27 2e 08 00 	movl   $0x82e27,-0x14(%ebp)
   8a196:	e8 5a 9b ff ff       	call   83cf5 <vmem_current>
   8a19b:	89 45 f0             	mov    %eax,-0x10(%ebp)
   8a19e:	83 ec 0c             	sub    $0xc,%esp
   8a1a1:	8d 45 ec             	lea    -0x14(%ebp),%eax
   8a1a4:	50                   	push   %eax
   8a1a5:	68 00 00 01 00       	push   $0x10000
   8a1aa:	ff 75 f4             	pushl  -0xc(%ebp)
   8a1ad:	ff 75 0c             	pushl  0xc(%ebp)
   8a1b0:	ff 75 08             	pushl  0x8(%ebp)
   8a1b3:	e8 c9 f5 ff ff       	call   89781 <elf32_load>
   8a1b8:	83 c4 20             	add    $0x20,%esp
   8a1bb:	85 c0                	test   %eax,%eax
   8a1bd:	75 19                	jne    8a1d8 <task_create+0x73>
   8a1bf:	8b 45 ec             	mov    -0x14(%ebp),%eax
   8a1c2:	83 ec 0c             	sub    $0xc,%esp
   8a1c5:	50                   	push   %eax
   8a1c6:	e8 ff c3 ff ff       	call   865ca <vga_writeText>
   8a1cb:	83 c4 10             	add    $0x10,%esp
   8a1ce:	b8 00 00 00 00       	mov    $0x0,%eax
   8a1d3:	e9 b7 00 00 00       	jmp    8a28f <task_create+0x12a>
   8a1d8:	8b 45 f4             	mov    -0xc(%ebp),%eax
   8a1db:	83 c0 38             	add    $0x38,%eax
   8a1de:	83 ec 08             	sub    $0x8,%esp
   8a1e1:	6a 0a                	push   $0xa
   8a1e3:	50                   	push   %eax
   8a1e4:	e8 b5 90 ff ff       	call   8329e <parray>
   8a1e9:	83 c4 10             	add    $0x10,%esp
   8a1ec:	85 c0                	test   %eax,%eax
   8a1ee:	74 0a                	je     8a1fa <task_create+0x95>
   8a1f0:	b8 00 00 00 00       	mov    $0x0,%eax
   8a1f5:	e9 95 00 00 00       	jmp    8a28f <task_create+0x12a>
   8a1fa:	a1 a0 b0 08 00       	mov    0x8b0a0,%eax
   8a1ff:	8d 50 01             	lea    0x1(%eax),%edx
   8a202:	89 15 a0 b0 08 00    	mov    %edx,0x8b0a0
   8a208:	8b 55 f4             	mov    -0xc(%ebp),%edx
   8a20b:	89 02                	mov    %eax,(%edx)
   8a20d:	8b 45 f4             	mov    -0xc(%ebp),%eax
   8a210:	c7 40 08 00 00 00 00 	movl   $0x0,0x8(%eax)
   8a217:	8b 45 f4             	mov    -0xc(%ebp),%eax
   8a21a:	c6 40 0c 00          	movb   $0x0,0xc(%eax)
   8a21e:	8b 45 f4             	mov    -0xc(%ebp),%eax
   8a221:	c7 40 30 00 00 00 00 	movl   $0x0,0x30(%eax)
   8a228:	8b 45 f4             	mov    -0xc(%ebp),%eax
   8a22b:	c7 40 34 00 00 00 00 	movl   $0x0,0x34(%eax)
   8a232:	e8 e0 fa ff ff       	call   89d17 <fd_createInStream>
   8a237:	8b 55 f4             	mov    -0xc(%ebp),%edx
   8a23a:	89 42 44             	mov    %eax,0x44(%edx)
   8a23d:	8b 15 84 b0 08 00    	mov    0x8b084,%edx
   8a243:	8b 45 f4             	mov    -0xc(%ebp),%eax
   8a246:	89 50 48             	mov    %edx,0x48(%eax)
   8a249:	8b 15 84 b0 08 00    	mov    0x8b084,%edx
   8a24f:	8b 45 f4             	mov    -0xc(%ebp),%eax
   8a252:	89 50 4c             	mov    %edx,0x4c(%eax)
   8a255:	83 ec 0c             	sub    $0xc,%esp
   8a258:	ff 75 f0             	pushl  -0x10(%ebp)
   8a25b:	e8 10 a4 ff ff       	call   84670 <vmem_switchMemory>
   8a260:	83 c4 10             	add    $0x10,%esp
   8a263:	8b 45 f4             	mov    -0xc(%ebp),%eax
   8a266:	83 c0 10             	add    $0x10,%eax
   8a269:	83 ec 04             	sub    $0x4,%esp
   8a26c:	6a 32                	push   $0x32
   8a26e:	6a 08                	push   $0x8
   8a270:	50                   	push   %eax
   8a271:	e8 bf 91 ff ff       	call   83435 <array>
   8a276:	83 c4 10             	add    $0x10,%esp
   8a279:	83 ec 08             	sub    $0x8,%esp
   8a27c:	ff 75 f4             	pushl  -0xc(%ebp)
   8a27f:	68 a8 be 0a 00       	push   $0xabea8
   8a284:	e8 63 90 ff ff       	call   832ec <parray_push>
   8a289:	83 c4 10             	add    $0x10,%esp
   8a28c:	8b 45 f4             	mov    -0xc(%ebp),%eax
   8a28f:	c9                   	leave  
   8a290:	c3                   	ret    

0008a291 <task_get>:
   8a291:	f3 0f 1e fb          	endbr32 
   8a295:	55                   	push   %ebp
   8a296:	89 e5                	mov    %esp,%ebp
   8a298:	83 ec 18             	sub    $0x18,%esp
   8a29b:	c7 45 f4 00 00 00 00 	movl   $0x0,-0xc(%ebp)
   8a2a2:	eb 2a                	jmp    8a2ce <task_get+0x3d>
   8a2a4:	8b 45 f4             	mov    -0xc(%ebp),%eax
   8a2a7:	83 ec 08             	sub    $0x8,%esp
   8a2aa:	50                   	push   %eax
   8a2ab:	68 a8 be 0a 00       	push   $0xabea8
   8a2b0:	e8 38 91 ff ff       	call   833ed <parray_get>
   8a2b5:	83 c4 10             	add    $0x10,%esp
   8a2b8:	89 45 f0             	mov    %eax,-0x10(%ebp)
   8a2bb:	8b 45 f0             	mov    -0x10(%ebp),%eax
   8a2be:	8b 00                	mov    (%eax),%eax
   8a2c0:	39 45 08             	cmp    %eax,0x8(%ebp)
   8a2c3:	75 05                	jne    8a2ca <task_get+0x39>
   8a2c5:	8b 45 f0             	mov    -0x10(%ebp),%eax
   8a2c8:	eb 16                	jmp    8a2e0 <task_get+0x4f>
   8a2ca:	83 45 f4 01          	addl   $0x1,-0xc(%ebp)
   8a2ce:	8b 15 ac be 0a 00    	mov    0xabeac,%edx
   8a2d4:	8b 45 f4             	mov    -0xc(%ebp),%eax
   8a2d7:	39 c2                	cmp    %eax,%edx
   8a2d9:	77 c9                	ja     8a2a4 <task_get+0x13>
   8a2db:	b8 00 00 00 00       	mov    $0x0,%eax
   8a2e0:	c9                   	leave  
   8a2e1:	c3                   	ret    

0008a2e2 <task_close>:
   8a2e2:	f3 0f 1e fb          	endbr32 
   8a2e6:	55                   	push   %ebp
   8a2e7:	89 e5                	mov    %esp,%ebp
   8a2e9:	83 ec 18             	sub    $0x18,%esp
   8a2ec:	83 ec 08             	sub    $0x8,%esp
   8a2ef:	ff 75 08             	pushl  0x8(%ebp)
   8a2f2:	68 a8 be 0a 00       	push   $0xabea8
   8a2f7:	e8 67 90 ff ff       	call   83363 <parray_remove>
   8a2fc:	83 c4 10             	add    $0x10,%esp
   8a2ff:	c7 45 f4 00 00 00 00 	movl   $0x0,-0xc(%ebp)
   8a306:	eb 26                	jmp    8a32e <task_close+0x4c>
   8a308:	8b 45 f4             	mov    -0xc(%ebp),%eax
   8a30b:	8b 55 08             	mov    0x8(%ebp),%edx
   8a30e:	83 c2 38             	add    $0x38,%edx
   8a311:	83 ec 08             	sub    $0x8,%esp
   8a314:	50                   	push   %eax
   8a315:	52                   	push   %edx
   8a316:	e8 d2 90 ff ff       	call   833ed <parray_get>
   8a31b:	83 c4 10             	add    $0x10,%esp
   8a31e:	83 ec 0c             	sub    $0xc,%esp
   8a321:	50                   	push   %eax
   8a322:	e8 c8 fd ff ff       	call   8a0ef <fd_close>
   8a327:	83 c4 10             	add    $0x10,%esp
   8a32a:	83 45 f4 01          	addl   $0x1,-0xc(%ebp)
   8a32e:	8b 45 08             	mov    0x8(%ebp),%eax
   8a331:	8b 50 3c             	mov    0x3c(%eax),%edx
   8a334:	8b 45 f4             	mov    -0xc(%ebp),%eax
   8a337:	39 c2                	cmp    %eax,%edx
   8a339:	77 cd                	ja     8a308 <task_close+0x26>
   8a33b:	8b 45 08             	mov    0x8(%ebp),%eax
   8a33e:	83 c0 38             	add    $0x38,%eax
   8a341:	83 ec 0c             	sub    $0xc,%esp
   8a344:	50                   	push   %eax
   8a345:	e8 cd 90 ff ff       	call   83417 <parray_free>
   8a34a:	83 c4 10             	add    $0x10,%esp
   8a34d:	8b 45 08             	mov    0x8(%ebp),%eax
   8a350:	8b 40 04             	mov    0x4(%eax),%eax
   8a353:	83 ec 0c             	sub    $0xc,%esp
   8a356:	50                   	push   %eax
   8a357:	e8 cf a1 ff ff       	call   8452b <vmem_freeMemory>
   8a35c:	83 c4 10             	add    $0x10,%esp
   8a35f:	8b 45 08             	mov    0x8(%ebp),%eax
   8a362:	83 c0 10             	add    $0x10,%eax
   8a365:	83 ec 0c             	sub    $0xc,%esp
   8a368:	50                   	push   %eax
   8a369:	e8 6a 93 ff ff       	call   836d8 <array_free>
   8a36e:	83 c4 10             	add    $0x10,%esp
   8a371:	83 ec 0c             	sub    $0xc,%esp
   8a374:	ff 75 08             	pushl  0x8(%ebp)
   8a377:	e8 63 99 ff ff       	call   83cdf <kfree>
   8a37c:	83 c4 10             	add    $0x10,%esp
   8a37f:	90                   	nop
   8a380:	c9                   	leave  
   8a381:	c3                   	ret    

0008a382 <task_getCurrent>:
   8a382:	f3 0f 1e fb          	endbr32 
   8a386:	55                   	push   %ebp
   8a387:	89 e5                	mov    %esp,%ebp
   8a389:	a1 a0 be 0a 00       	mov    0xabea0,%eax
   8a38e:	5d                   	pop    %ebp
   8a38f:	c3                   	ret    

0008a390 <task_attach>:
   8a390:	f3 0f 1e fb          	endbr32 
   8a394:	55                   	push   %ebp
   8a395:	89 e5                	mov    %esp,%ebp
   8a397:	83 ec 08             	sub    $0x8,%esp
   8a39a:	8b 45 08             	mov    0x8(%ebp),%eax
   8a39d:	83 c0 38             	add    $0x38,%eax
   8a3a0:	83 ec 08             	sub    $0x8,%esp
   8a3a3:	ff 75 0c             	pushl  0xc(%ebp)
   8a3a6:	50                   	push   %eax
   8a3a7:	e8 40 8f ff ff       	call   832ec <parray_push>
   8a3ac:	83 c4 10             	add    $0x10,%esp
   8a3af:	90                   	nop
   8a3b0:	c9                   	leave  
   8a3b1:	c3                   	ret    

0008a3b2 <task_fd_present>:
   8a3b2:	f3 0f 1e fb          	endbr32 
   8a3b6:	55                   	push   %ebp
   8a3b7:	89 e5                	mov    %esp,%ebp
   8a3b9:	83 ec 18             	sub    $0x18,%esp
   8a3bc:	c7 45 f4 00 00 00 00 	movl   $0x0,-0xc(%ebp)
   8a3c3:	eb 26                	jmp    8a3eb <task_fd_present+0x39>
   8a3c5:	8b 45 f4             	mov    -0xc(%ebp),%eax
   8a3c8:	8b 55 08             	mov    0x8(%ebp),%edx
   8a3cb:	83 c2 38             	add    $0x38,%edx
   8a3ce:	83 ec 08             	sub    $0x8,%esp
   8a3d1:	50                   	push   %eax
   8a3d2:	52                   	push   %edx
   8a3d3:	e8 15 90 ff ff       	call   833ed <parray_get>
   8a3d8:	83 c4 10             	add    $0x10,%esp
   8a3db:	39 45 0c             	cmp    %eax,0xc(%ebp)
   8a3de:	75 07                	jne    8a3e7 <task_fd_present+0x35>
   8a3e0:	b8 01 00 00 00       	mov    $0x1,%eax
   8a3e5:	eb 16                	jmp    8a3fd <task_fd_present+0x4b>
   8a3e7:	83 45 f4 01          	addl   $0x1,-0xc(%ebp)
   8a3eb:	8b 45 08             	mov    0x8(%ebp),%eax
   8a3ee:	8b 50 3c             	mov    0x3c(%eax),%edx
   8a3f1:	8b 45 f4             	mov    -0xc(%ebp),%eax
   8a3f4:	39 c2                	cmp    %eax,%edx
   8a3f6:	77 cd                	ja     8a3c5 <task_fd_present+0x13>
   8a3f8:	b8 00 00 00 00       	mov    $0x0,%eax
   8a3fd:	c9                   	leave  
   8a3fe:	c3                   	ret    

0008a3ff <task_resume>:
   8a3ff:	f3 0f 1e fb          	endbr32 
   8a403:	55                   	push   %ebp
   8a404:	89 e5                	mov    %esp,%ebp
   8a406:	53                   	push   %ebx
   8a407:	83 ec 14             	sub    $0x14,%esp
   8a40a:	8b 45 08             	mov    0x8(%ebp),%eax
   8a40d:	8b 40 04             	mov    0x4(%eax),%eax
   8a410:	83 ec 0c             	sub    $0xc,%esp
   8a413:	50                   	push   %eax
   8a414:	e8 57 a2 ff ff       	call   84670 <vmem_switchMemory>
   8a419:	83 c4 10             	add    $0x10,%esp
   8a41c:	8b 45 08             	mov    0x8(%ebp),%eax
   8a41f:	a3 a0 be 0a 00       	mov    %eax,0xabea0
   8a424:	8b 45 08             	mov    0x8(%ebp),%eax
   8a427:	0f b6 40 0c          	movzbl 0xc(%eax),%eax
   8a42b:	84 c0                	test   %al,%al
   8a42d:	75 1e                	jne    8a44d <task_resume+0x4e>
   8a42f:	8b 45 08             	mov    0x8(%ebp),%eax
   8a432:	c6 40 0c 01          	movb   $0x1,0xc(%eax)
   8a436:	8b 45 08             	mov    0x8(%ebp),%eax
   8a439:	8b 40 24             	mov    0x24(%eax),%eax
   8a43c:	8b 55 08             	mov    0x8(%ebp),%edx
   8a43f:	8b 52 20             	mov    0x20(%edx),%edx
   8a442:	89 d3                	mov    %edx,%ebx
   8a444:	fb                   	sti    
   8a445:	89 c4                	mov    %eax,%esp
   8a447:	89 e5                	mov    %esp,%ebp
   8a449:	ff e3                	jmp    *%ebx
   8a44b:	eb 23                	jmp    8a470 <task_resume+0x71>
   8a44d:	8b 45 08             	mov    0x8(%ebp),%eax
   8a450:	8b 40 30             	mov    0x30(%eax),%eax
   8a453:	89 45 f4             	mov    %eax,-0xc(%ebp)
   8a456:	8b 45 08             	mov    0x8(%ebp),%eax
   8a459:	8b 40 34             	mov    0x34(%eax),%eax
   8a45c:	89 45 f0             	mov    %eax,-0x10(%ebp)
   8a45f:	83 ec 08             	sub    $0x8,%esp
   8a462:	ff 75 f0             	pushl  -0x10(%ebp)
   8a465:	ff 75 f4             	pushl  -0xc(%ebp)
   8a468:	e8 a3 8a ff ff       	call   82f10 <interrupt_return>
   8a46d:	83 c4 10             	add    $0x10,%esp
   8a470:	90                   	nop
   8a471:	8b 5d fc             	mov    -0x4(%ebp),%ebx
   8a474:	c9                   	leave  
   8a475:	c3                   	ret    

0008a476 <task_getfd>:
   8a476:	f3 0f 1e fb          	endbr32 
   8a47a:	55                   	push   %ebp
   8a47b:	89 e5                	mov    %esp,%ebp
   8a47d:	83 ec 18             	sub    $0x18,%esp
   8a480:	83 7d 0c 02          	cmpl   $0x2,0xc(%ebp)
   8a484:	74 35                	je     8a4bb <task_getfd+0x45>
   8a486:	83 7d 0c 02          	cmpl   $0x2,0xc(%ebp)
   8a48a:	77 48                	ja     8a4d4 <task_getfd+0x5e>
   8a48c:	83 7d 0c 00          	cmpl   $0x0,0xc(%ebp)
   8a490:	74 08                	je     8a49a <task_getfd+0x24>
   8a492:	83 7d 0c 01          	cmpl   $0x1,0xc(%ebp)
   8a496:	74 0a                	je     8a4a2 <task_getfd+0x2c>
   8a498:	eb 3a                	jmp    8a4d4 <task_getfd+0x5e>
   8a49a:	8b 45 08             	mov    0x8(%ebp),%eax
   8a49d:	8b 40 44             	mov    0x44(%eax),%eax
   8a4a0:	eb 77                	jmp    8a519 <task_getfd+0xa3>
   8a4a2:	8b 45 08             	mov    0x8(%ebp),%eax
   8a4a5:	8b 40 48             	mov    0x48(%eax),%eax
   8a4a8:	85 c0                	test   %eax,%eax
   8a4aa:	74 08                	je     8a4b4 <task_getfd+0x3e>
   8a4ac:	8b 45 08             	mov    0x8(%ebp),%eax
   8a4af:	8b 40 48             	mov    0x48(%eax),%eax
   8a4b2:	eb 65                	jmp    8a519 <task_getfd+0xa3>
   8a4b4:	a1 84 b0 08 00       	mov    0x8b084,%eax
   8a4b9:	eb 5e                	jmp    8a519 <task_getfd+0xa3>
   8a4bb:	8b 45 08             	mov    0x8(%ebp),%eax
   8a4be:	8b 40 4c             	mov    0x4c(%eax),%eax
   8a4c1:	85 c0                	test   %eax,%eax
   8a4c3:	74 08                	je     8a4cd <task_getfd+0x57>
   8a4c5:	8b 45 08             	mov    0x8(%ebp),%eax
   8a4c8:	8b 40 4c             	mov    0x4c(%eax),%eax
   8a4cb:	eb 4c                	jmp    8a519 <task_getfd+0xa3>
   8a4cd:	a1 84 b0 08 00       	mov    0x8b084,%eax
   8a4d2:	eb 45                	jmp    8a519 <task_getfd+0xa3>
   8a4d4:	c7 45 f4 00 00 00 00 	movl   $0x0,-0xc(%ebp)
   8a4db:	eb 2a                	jmp    8a507 <task_getfd+0x91>
   8a4dd:	8b 45 f4             	mov    -0xc(%ebp),%eax
   8a4e0:	8b 55 08             	mov    0x8(%ebp),%edx
   8a4e3:	83 c2 38             	add    $0x38,%edx
   8a4e6:	83 ec 08             	sub    $0x8,%esp
   8a4e9:	50                   	push   %eax
   8a4ea:	52                   	push   %edx
   8a4eb:	e8 fd 8e ff ff       	call   833ed <parray_get>
   8a4f0:	83 c4 10             	add    $0x10,%esp
   8a4f3:	89 45 f0             	mov    %eax,-0x10(%ebp)
   8a4f6:	8b 45 0c             	mov    0xc(%ebp),%eax
   8a4f9:	39 45 f0             	cmp    %eax,-0x10(%ebp)
   8a4fc:	75 05                	jne    8a503 <task_getfd+0x8d>
   8a4fe:	8b 45 f0             	mov    -0x10(%ebp),%eax
   8a501:	eb 16                	jmp    8a519 <task_getfd+0xa3>
   8a503:	83 45 f4 01          	addl   $0x1,-0xc(%ebp)
   8a507:	8b 45 08             	mov    0x8(%ebp),%eax
   8a50a:	8b 50 3c             	mov    0x3c(%eax),%edx
   8a50d:	8b 45 f4             	mov    -0xc(%ebp),%eax
   8a510:	39 c2                	cmp    %eax,%edx
   8a512:	77 c9                	ja     8a4dd <task_getfd+0x67>
   8a514:	b8 00 00 00 00       	mov    $0x0,%eax
   8a519:	c9                   	leave  
   8a51a:	c3                   	ret    

0008a51b <task_createStdStream>:
   8a51b:	f3 0f 1e fb          	endbr32 
   8a51f:	55                   	push   %ebp
   8a520:	89 e5                	mov    %esp,%ebp
   8a522:	83 ec 18             	sub    $0x18,%esp
   8a525:	83 7d 0c 02          	cmpl   $0x2,0xc(%ebp)
   8a529:	74 49                	je     8a574 <task_createStdStream+0x59>
   8a52b:	83 7d 0c 02          	cmpl   $0x2,0xc(%ebp)
   8a52f:	7f 64                	jg     8a595 <task_createStdStream+0x7a>
   8a531:	83 7d 0c 00          	cmpl   $0x0,0xc(%ebp)
   8a535:	74 08                	je     8a53f <task_createStdStream+0x24>
   8a537:	83 7d 0c 01          	cmpl   $0x1,0xc(%ebp)
   8a53b:	74 16                	je     8a553 <task_createStdStream+0x38>
   8a53d:	eb 56                	jmp    8a595 <task_createStdStream+0x7a>
   8a53f:	8b 45 08             	mov    0x8(%ebp),%eax
   8a542:	8b 40 44             	mov    0x44(%eax),%eax
   8a545:	83 ec 0c             	sub    $0xc,%esp
   8a548:	50                   	push   %eax
   8a549:	e8 58 f7 ff ff       	call   89ca6 <fd_createOutStream>
   8a54e:	83 c4 10             	add    $0x10,%esp
   8a551:	eb 42                	jmp    8a595 <task_createStdStream+0x7a>
   8a553:	e8 bf f7 ff ff       	call   89d17 <fd_createInStream>
   8a558:	89 45 f4             	mov    %eax,-0xc(%ebp)
   8a55b:	83 ec 0c             	sub    $0xc,%esp
   8a55e:	ff 75 f4             	pushl  -0xc(%ebp)
   8a561:	e8 40 f7 ff ff       	call   89ca6 <fd_createOutStream>
   8a566:	83 c4 10             	add    $0x10,%esp
   8a569:	8b 55 08             	mov    0x8(%ebp),%edx
   8a56c:	89 42 48             	mov    %eax,0x48(%edx)
   8a56f:	8b 45 f4             	mov    -0xc(%ebp),%eax
   8a572:	eb 21                	jmp    8a595 <task_createStdStream+0x7a>
   8a574:	e8 9e f7 ff ff       	call   89d17 <fd_createInStream>
   8a579:	89 45 f4             	mov    %eax,-0xc(%ebp)
   8a57c:	83 ec 0c             	sub    $0xc,%esp
   8a57f:	ff 75 f4             	pushl  -0xc(%ebp)
   8a582:	e8 1f f7 ff ff       	call   89ca6 <fd_createOutStream>
   8a587:	83 c4 10             	add    $0x10,%esp
   8a58a:	8b 55 08             	mov    0x8(%ebp),%edx
   8a58d:	89 42 4c             	mov    %eax,0x4c(%edx)
   8a590:	8b 45 f4             	mov    -0xc(%ebp),%eax
   8a593:	eb 00                	jmp    8a595 <task_createStdStream+0x7a>
   8a595:	c9                   	leave  
   8a596:	c3                   	ret    

0008a597 <task_open>:
   8a597:	f3 0f 1e fb          	endbr32 
   8a59b:	55                   	push   %ebp
   8a59c:	89 e5                	mov    %esp,%ebp
   8a59e:	83 ec 18             	sub    $0x18,%esp
   8a5a1:	e8 dc fd ff ff       	call   8a382 <task_getCurrent>
   8a5a6:	89 45 f4             	mov    %eax,-0xc(%ebp)
   8a5a9:	83 7d f4 00          	cmpl   $0x0,-0xc(%ebp)
   8a5ad:	75 07                	jne    8a5b6 <task_open+0x1f>
   8a5af:	b8 00 00 00 00       	mov    $0x0,%eax
   8a5b4:	eb 23                	jmp    8a5d9 <task_open+0x42>
   8a5b6:	83 ec 08             	sub    $0x8,%esp
   8a5b9:	68 28 2e 08 00       	push   $0x82e28
   8a5be:	ff 75 0c             	pushl  0xc(%ebp)
   8a5c1:	e8 e3 8b ff ff       	call   831a9 <cmpstr>
   8a5c6:	83 c4 10             	add    $0x10,%esp
   8a5c9:	84 c0                	test   %al,%al
   8a5cb:	74 07                	je     8a5d4 <task_open+0x3d>
   8a5cd:	e8 7f c3 ff ff       	call   86951 <vga_open>
   8a5d2:	eb 05                	jmp    8a5d9 <task_open+0x42>
   8a5d4:	b8 00 00 00 00       	mov    $0x0,%eax
   8a5d9:	c9                   	leave  
   8a5da:	c3                   	ret    

0008a5db <task_read>:
   8a5db:	f3 0f 1e fb          	endbr32 
   8a5df:	55                   	push   %ebp
   8a5e0:	89 e5                	mov    %esp,%ebp
   8a5e2:	83 ec 08             	sub    $0x8,%esp
   8a5e5:	8b 55 08             	mov    0x8(%ebp),%edx
   8a5e8:	a1 a0 be 0a 00       	mov    0xabea0,%eax
   8a5ed:	83 ec 08             	sub    $0x8,%esp
   8a5f0:	52                   	push   %edx
   8a5f1:	50                   	push   %eax
   8a5f2:	e8 7f fe ff ff       	call   8a476 <task_getfd>
   8a5f7:	83 c4 10             	add    $0x10,%esp
   8a5fa:	89 45 08             	mov    %eax,0x8(%ebp)
   8a5fd:	83 7d 08 00          	cmpl   $0x0,0x8(%ebp)
   8a601:	75 07                	jne    8a60a <task_read+0x2f>
   8a603:	b8 00 00 00 00       	mov    $0x0,%eax
   8a608:	eb 37                	jmp    8a641 <task_read+0x66>
   8a60a:	8b 45 08             	mov    0x8(%ebp),%eax
   8a60d:	0f b6 40 04          	movzbl 0x4(%eax),%eax
   8a611:	3c 01                	cmp    $0x1,%al
   8a613:	74 16                	je     8a62b <task_read+0x50>
   8a615:	8b 45 08             	mov    0x8(%ebp),%eax
   8a618:	0f b6 40 04          	movzbl 0x4(%eax),%eax
   8a61c:	3c 02                	cmp    $0x2,%al
   8a61e:	74 0b                	je     8a62b <task_read+0x50>
   8a620:	8b 45 08             	mov    0x8(%ebp),%eax
   8a623:	0f b6 40 04          	movzbl 0x4(%eax),%eax
   8a627:	3c 03                	cmp    $0x3,%al
   8a629:	75 16                	jne    8a641 <task_read+0x66>
   8a62b:	83 ec 04             	sub    $0x4,%esp
   8a62e:	ff 75 10             	pushl  0x10(%ebp)
   8a631:	ff 75 0c             	pushl  0xc(%ebp)
   8a634:	ff 75 08             	pushl  0x8(%ebp)
   8a637:	e8 3e f7 ff ff       	call   89d7a <fd_read>
   8a63c:	83 c4 10             	add    $0x10,%esp
   8a63f:	eb 00                	jmp    8a641 <task_read+0x66>
   8a641:	c9                   	leave  
   8a642:	c3                   	ret    

0008a643 <task_write>:
   8a643:	f3 0f 1e fb          	endbr32 
   8a647:	55                   	push   %ebp
   8a648:	89 e5                	mov    %esp,%ebp
   8a64a:	83 ec 08             	sub    $0x8,%esp
   8a64d:	8b 55 08             	mov    0x8(%ebp),%edx
   8a650:	a1 a0 be 0a 00       	mov    0xabea0,%eax
   8a655:	83 ec 08             	sub    $0x8,%esp
   8a658:	52                   	push   %edx
   8a659:	50                   	push   %eax
   8a65a:	e8 17 fe ff ff       	call   8a476 <task_getfd>
   8a65f:	83 c4 10             	add    $0x10,%esp
   8a662:	89 45 08             	mov    %eax,0x8(%ebp)
   8a665:	83 7d 08 00          	cmpl   $0x0,0x8(%ebp)
   8a669:	75 07                	jne    8a672 <task_write+0x2f>
   8a66b:	b8 00 00 00 00       	mov    $0x0,%eax
   8a670:	eb 37                	jmp    8a6a9 <task_write+0x66>
   8a672:	8b 45 08             	mov    0x8(%ebp),%eax
   8a675:	0f b6 40 04          	movzbl 0x4(%eax),%eax
   8a679:	3c 02                	cmp    $0x2,%al
   8a67b:	74 16                	je     8a693 <task_write+0x50>
   8a67d:	8b 45 08             	mov    0x8(%ebp),%eax
   8a680:	0f b6 40 04          	movzbl 0x4(%eax),%eax
   8a684:	3c 04                	cmp    $0x4,%al
   8a686:	74 0b                	je     8a693 <task_write+0x50>
   8a688:	8b 45 08             	mov    0x8(%ebp),%eax
   8a68b:	0f b6 40 04          	movzbl 0x4(%eax),%eax
   8a68f:	3c 05                	cmp    $0x5,%al
   8a691:	75 16                	jne    8a6a9 <task_write+0x66>
   8a693:	83 ec 04             	sub    $0x4,%esp
   8a696:	ff 75 10             	pushl  0x10(%ebp)
   8a699:	ff 75 0c             	pushl  0xc(%ebp)
   8a69c:	ff 75 08             	pushl  0x8(%ebp)
   8a69f:	e8 cd f8 ff ff       	call   89f71 <fd_write>
   8a6a4:	83 c4 10             	add    $0x10,%esp
   8a6a7:	eb 00                	jmp    8a6a9 <task_write+0x66>
   8a6a9:	c9                   	leave  
   8a6aa:	c3                   	ret    

0008a6ab <task_tell>:
   8a6ab:	f3 0f 1e fb          	endbr32 
   8a6af:	55                   	push   %ebp
   8a6b0:	89 e5                	mov    %esp,%ebp
   8a6b2:	83 ec 08             	sub    $0x8,%esp
   8a6b5:	8b 55 08             	mov    0x8(%ebp),%edx
   8a6b8:	a1 a0 be 0a 00       	mov    0xabea0,%eax
   8a6bd:	83 ec 08             	sub    $0x8,%esp
   8a6c0:	52                   	push   %edx
   8a6c1:	50                   	push   %eax
   8a6c2:	e8 af fd ff ff       	call   8a476 <task_getfd>
   8a6c7:	83 c4 10             	add    $0x10,%esp
   8a6ca:	89 45 08             	mov    %eax,0x8(%ebp)
   8a6cd:	83 7d 08 00          	cmpl   $0x0,0x8(%ebp)
   8a6d1:	75 07                	jne    8a6da <task_tell+0x2f>
   8a6d3:	b8 00 00 00 00       	mov    $0x0,%eax
   8a6d8:	eb 0e                	jmp    8a6e8 <task_tell+0x3d>
   8a6da:	83 ec 0c             	sub    $0xc,%esp
   8a6dd:	ff 75 08             	pushl  0x8(%ebp)
   8a6e0:	e8 42 f9 ff ff       	call   8a027 <fd_tell>
   8a6e5:	83 c4 10             	add    $0x10,%esp
   8a6e8:	c9                   	leave  
   8a6e9:	c3                   	ret    

0008a6ea <task_seek>:
   8a6ea:	f3 0f 1e fb          	endbr32 
   8a6ee:	55                   	push   %ebp
   8a6ef:	89 e5                	mov    %esp,%ebp
   8a6f1:	83 ec 08             	sub    $0x8,%esp
   8a6f4:	8b 55 08             	mov    0x8(%ebp),%edx
   8a6f7:	a1 a0 be 0a 00       	mov    0xabea0,%eax
   8a6fc:	83 ec 08             	sub    $0x8,%esp
   8a6ff:	52                   	push   %edx
   8a700:	50                   	push   %eax
   8a701:	e8 70 fd ff ff       	call   8a476 <task_getfd>
   8a706:	83 c4 10             	add    $0x10,%esp
   8a709:	89 45 08             	mov    %eax,0x8(%ebp)
   8a70c:	83 7d 08 00          	cmpl   $0x0,0x8(%ebp)
   8a710:	75 07                	jne    8a719 <task_seek+0x2f>
   8a712:	b8 00 00 00 00       	mov    $0x0,%eax
   8a717:	eb 14                	jmp    8a72d <task_seek+0x43>
   8a719:	83 ec 04             	sub    $0x4,%esp
   8a71c:	ff 75 10             	pushl  0x10(%ebp)
   8a71f:	ff 75 0c             	pushl  0xc(%ebp)
   8a722:	ff 75 08             	pushl  0x8(%ebp)
   8a725:	e8 2d f9 ff ff       	call   8a057 <fd_seek>
   8a72a:	83 c4 10             	add    $0x10,%esp
   8a72d:	c9                   	leave  
   8a72e:	c3                   	ret    

0008a72f <task_switch>:
   8a72f:	f3 0f 1e fb          	endbr32 
   8a733:	55                   	push   %ebp
   8a734:	89 e5                	mov    %esp,%ebp
   8a736:	83 ec 08             	sub    $0x8,%esp
   8a739:	a1 a0 be 0a 00       	mov    0xabea0,%eax
   8a73e:	85 c0                	test   %eax,%eax
   8a740:	75 2c                	jne    8a76e <task_switch+0x3f>
   8a742:	a1 90 be 0a 00       	mov    0xabe90,%eax
   8a747:	a3 98 be 0a 00       	mov    %eax,0xabe98
   8a74c:	a1 94 be 0a 00       	mov    0xabe94,%eax
   8a751:	a3 9c be 0a 00       	mov    %eax,0xabe9c
   8a756:	8b 15 9c be 0a 00    	mov    0xabe9c,%edx
   8a75c:	a1 98 be 0a 00       	mov    0xabe98,%eax
   8a761:	83 ec 08             	sub    $0x8,%esp
   8a764:	52                   	push   %edx
   8a765:	50                   	push   %eax
   8a766:	e8 a5 87 ff ff       	call   82f10 <interrupt_return>
   8a76b:	83 c4 10             	add    $0x10,%esp
   8a76e:	a1 a0 be 0a 00       	mov    0xabea0,%eax
   8a773:	8b 15 90 be 0a 00    	mov    0xabe90,%edx
   8a779:	89 50 30             	mov    %edx,0x30(%eax)
   8a77c:	a1 a0 be 0a 00       	mov    0xabea0,%eax
   8a781:	8b 15 94 be 0a 00    	mov    0xabe94,%edx
   8a787:	89 50 34             	mov    %edx,0x34(%eax)
   8a78a:	a1 a4 be 0a 00       	mov    0xabea4,%eax
   8a78f:	83 c0 01             	add    $0x1,%eax
   8a792:	a3 a4 be 0a 00       	mov    %eax,0xabea4
   8a797:	8b 15 ac be 0a 00    	mov    0xabeac,%edx
   8a79d:	a1 a4 be 0a 00       	mov    0xabea4,%eax
   8a7a2:	39 c2                	cmp    %eax,%edx
   8a7a4:	77 0a                	ja     8a7b0 <task_switch+0x81>
   8a7a6:	c7 05 a4 be 0a 00 00 	movl   $0x0,0xabea4
   8a7ad:	00 00 00 
   8a7b0:	a1 a4 be 0a 00       	mov    0xabea4,%eax
   8a7b5:	83 ec 08             	sub    $0x8,%esp
   8a7b8:	50                   	push   %eax
   8a7b9:	68 a8 be 0a 00       	push   $0xabea8
   8a7be:	e8 2a 8c ff ff       	call   833ed <parray_get>
   8a7c3:	83 c4 10             	add    $0x10,%esp
   8a7c6:	83 ec 0c             	sub    $0xc,%esp
   8a7c9:	50                   	push   %eax
   8a7ca:	e8 30 fc ff ff       	call   8a3ff <task_resume>
   8a7cf:	83 c4 10             	add    $0x10,%esp
   8a7d2:	90                   	nop
   8a7d3:	c9                   	leave  
   8a7d4:	c3                   	ret    

0008a7d5 <taskmm_addEntry>:
   8a7d5:	f3 0f 1e fb          	endbr32 
   8a7d9:	55                   	push   %ebp
   8a7da:	89 e5                	mov    %esp,%ebp
   8a7dc:	53                   	push   %ebx
   8a7dd:	83 ec 14             	sub    $0x14,%esp
   8a7e0:	c7 45 f4 00 00 00 00 	movl   $0x0,-0xc(%ebp)
   8a7e7:	eb 20                	jmp    8a809 <taskmm_addEntry+0x34>
   8a7e9:	8b 45 f4             	mov    -0xc(%ebp),%eax
   8a7ec:	83 ec 0c             	sub    $0xc,%esp
   8a7ef:	50                   	push   %eax
   8a7f0:	e8 2d 01 00 00       	call   8a922 <taskmm_getEntryFromIndex>
   8a7f5:	83 c4 10             	add    $0x10,%esp
   8a7f8:	89 45 f0             	mov    %eax,-0x10(%ebp)
   8a7fb:	8b 45 f0             	mov    -0x10(%ebp),%eax
   8a7fe:	8b 00                	mov    (%eax),%eax
   8a800:	39 45 08             	cmp    %eax,0x8(%ebp)
   8a803:	72 15                	jb     8a81a <taskmm_addEntry+0x45>
   8a805:	83 45 f4 01          	addl   $0x1,-0xc(%ebp)
   8a809:	a1 a0 be 0a 00       	mov    0xabea0,%eax
   8a80e:	8b 50 14             	mov    0x14(%eax),%edx
   8a811:	8b 45 f4             	mov    -0xc(%ebp),%eax
   8a814:	39 c2                	cmp    %eax,%edx
   8a816:	77 d1                	ja     8a7e9 <taskmm_addEntry+0x14>
   8a818:	eb 01                	jmp    8a81b <taskmm_addEntry+0x46>
   8a81a:	90                   	nop
   8a81b:	8b 45 08             	mov    0x8(%ebp),%eax
   8a81e:	89 45 e8             	mov    %eax,-0x18(%ebp)
   8a821:	8b 45 0c             	mov    0xc(%ebp),%eax
   8a824:	89 45 ec             	mov    %eax,-0x14(%ebp)
   8a827:	8b 45 f4             	mov    -0xc(%ebp),%eax
   8a82a:	8b 15 a0 be 0a 00    	mov    0xabea0,%edx
   8a830:	83 c2 10             	add    $0x10,%edx
   8a833:	83 ec 04             	sub    $0x4,%esp
   8a836:	50                   	push   %eax
   8a837:	8d 45 e8             	lea    -0x18(%ebp),%eax
   8a83a:	50                   	push   %eax
   8a83b:	52                   	push   %edx
   8a83c:	e8 e9 8c ff ff       	call   8352a <array_insert>
   8a841:	83 c4 10             	add    $0x10,%esp
   8a844:	b8 01 00 00 00       	mov    $0x1,%eax
   8a849:	8b 5d fc             	mov    -0x4(%ebp),%ebx
   8a84c:	c9                   	leave  
   8a84d:	c3                   	ret    

0008a84e <taskmm_getEntryIndex>:
   8a84e:	f3 0f 1e fb          	endbr32 
   8a852:	55                   	push   %ebp
   8a853:	89 e5                	mov    %esp,%ebp
   8a855:	83 ec 18             	sub    $0x18,%esp
   8a858:	c7 45 f4 00 00 00 00 	movl   $0x0,-0xc(%ebp)
   8a85f:	8b 45 f4             	mov    -0xc(%ebp),%eax
   8a862:	8b 15 a0 be 0a 00    	mov    0xabea0,%edx
   8a868:	8d 4a 10             	lea    0x10(%edx),%ecx
   8a86b:	83 ec 04             	sub    $0x4,%esp
   8a86e:	8d 55 ec             	lea    -0x14(%ebp),%edx
   8a871:	52                   	push   %edx
   8a872:	50                   	push   %eax
   8a873:	51                   	push   %ecx
   8a874:	e8 12 8e ff ff       	call   8368b <array_get>
   8a879:	83 c4 10             	add    $0x10,%esp
   8a87c:	85 c0                	test   %eax,%eax
   8a87e:	75 44                	jne    8a8c4 <taskmm_getEntryIndex+0x76>
   8a880:	b8 ff ff ff ff       	mov    $0xffffffff,%eax
   8a885:	eb 51                	jmp    8a8d8 <taskmm_getEntryIndex+0x8a>
   8a887:	8b 45 ec             	mov    -0x14(%ebp),%eax
   8a88a:	39 45 08             	cmp    %eax,0x8(%ebp)
   8a88d:	75 05                	jne    8a894 <taskmm_getEntryIndex+0x46>
   8a88f:	8b 45 f4             	mov    -0xc(%ebp),%eax
   8a892:	eb 44                	jmp    8a8d8 <taskmm_getEntryIndex+0x8a>
   8a894:	83 45 f4 01          	addl   $0x1,-0xc(%ebp)
   8a898:	8b 55 f4             	mov    -0xc(%ebp),%edx
   8a89b:	a1 a0 be 0a 00       	mov    0xabea0,%eax
   8a8a0:	8b 40 14             	mov    0x14(%eax),%eax
   8a8a3:	39 c2                	cmp    %eax,%edx
   8a8a5:	73 1d                	jae    8a8c4 <taskmm_getEntryIndex+0x76>
   8a8a7:	8b 45 f4             	mov    -0xc(%ebp),%eax
   8a8aa:	8b 15 a0 be 0a 00    	mov    0xabea0,%edx
   8a8b0:	8d 4a 10             	lea    0x10(%edx),%ecx
   8a8b3:	83 ec 04             	sub    $0x4,%esp
   8a8b6:	8d 55 ec             	lea    -0x14(%ebp),%edx
   8a8b9:	52                   	push   %edx
   8a8ba:	50                   	push   %eax
   8a8bb:	51                   	push   %ecx
   8a8bc:	e8 ca 8d ff ff       	call   8368b <array_get>
   8a8c1:	83 c4 10             	add    $0x10,%esp
   8a8c4:	a1 a0 be 0a 00       	mov    0xabea0,%eax
   8a8c9:	8b 50 14             	mov    0x14(%eax),%edx
   8a8cc:	8b 45 f4             	mov    -0xc(%ebp),%eax
   8a8cf:	39 c2                	cmp    %eax,%edx
   8a8d1:	77 b4                	ja     8a887 <taskmm_getEntryIndex+0x39>
   8a8d3:	b8 ff ff ff ff       	mov    $0xffffffff,%eax
   8a8d8:	c9                   	leave  
   8a8d9:	c3                   	ret    

0008a8da <taskmm_removeEntry>:
   8a8da:	f3 0f 1e fb          	endbr32 
   8a8de:	55                   	push   %ebp
   8a8df:	89 e5                	mov    %esp,%ebp
   8a8e1:	83 ec 18             	sub    $0x18,%esp
   8a8e4:	83 ec 0c             	sub    $0xc,%esp
   8a8e7:	ff 75 08             	pushl  0x8(%ebp)
   8a8ea:	e8 5f ff ff ff       	call   8a84e <taskmm_getEntryIndex>
   8a8ef:	83 c4 10             	add    $0x10,%esp
   8a8f2:	89 45 f4             	mov    %eax,-0xc(%ebp)
   8a8f5:	83 7d f4 ff          	cmpl   $0xffffffff,-0xc(%ebp)
   8a8f9:	75 07                	jne    8a902 <taskmm_removeEntry+0x28>
   8a8fb:	b8 00 00 00 00       	mov    $0x0,%eax
   8a900:	eb 1e                	jmp    8a920 <taskmm_removeEntry+0x46>
   8a902:	8b 45 f4             	mov    -0xc(%ebp),%eax
   8a905:	8b 15 a0 be 0a 00    	mov    0xabea0,%edx
   8a90b:	83 c2 10             	add    $0x10,%edx
   8a90e:	83 ec 08             	sub    $0x8,%esp
   8a911:	50                   	push   %eax
   8a912:	52                   	push   %edx
   8a913:	e8 ee 8c ff ff       	call   83606 <array_remove>
   8a918:	83 c4 10             	add    $0x10,%esp
   8a91b:	b8 01 00 00 00       	mov    $0x1,%eax
   8a920:	c9                   	leave  
   8a921:	c3                   	ret    

0008a922 <taskmm_getEntryFromIndex>:
   8a922:	f3 0f 1e fb          	endbr32 
   8a926:	55                   	push   %ebp
   8a927:	89 e5                	mov    %esp,%ebp
   8a929:	a1 a0 be 0a 00       	mov    0xabea0,%eax
   8a92e:	8b 50 10             	mov    0x10(%eax),%edx
   8a931:	a1 a0 be 0a 00       	mov    0xabea0,%eax
   8a936:	8b 40 18             	mov    0x18(%eax),%eax
   8a939:	0f af 45 08          	imul   0x8(%ebp),%eax
   8a93d:	c1 e0 02             	shl    $0x2,%eax
   8a940:	01 d0                	add    %edx,%eax
   8a942:	5d                   	pop    %ebp
   8a943:	c3                   	ret    

0008a944 <taskmm_getEntry>:
   8a944:	f3 0f 1e fb          	endbr32 
   8a948:	55                   	push   %ebp
   8a949:	89 e5                	mov    %esp,%ebp
   8a94b:	83 ec 18             	sub    $0x18,%esp
   8a94e:	83 ec 0c             	sub    $0xc,%esp
   8a951:	ff 75 08             	pushl  0x8(%ebp)
   8a954:	e8 f5 fe ff ff       	call   8a84e <taskmm_getEntryIndex>
   8a959:	83 c4 10             	add    $0x10,%esp
   8a95c:	89 45 f4             	mov    %eax,-0xc(%ebp)
   8a95f:	83 7d f4 ff          	cmpl   $0xffffffff,-0xc(%ebp)
   8a963:	75 07                	jne    8a96c <taskmm_getEntry+0x28>
   8a965:	b8 00 00 00 00       	mov    $0x0,%eax
   8a96a:	eb 1b                	jmp    8a987 <taskmm_getEntry+0x43>
   8a96c:	a1 a0 be 0a 00       	mov    0xabea0,%eax
   8a971:	8b 50 10             	mov    0x10(%eax),%edx
   8a974:	a1 a0 be 0a 00       	mov    0xabea0,%eax
   8a979:	8b 48 18             	mov    0x18(%eax),%ecx
   8a97c:	8b 45 f4             	mov    -0xc(%ebp),%eax
   8a97f:	0f af c1             	imul   %ecx,%eax
   8a982:	c1 e0 02             	shl    $0x2,%eax
   8a985:	01 d0                	add    %edx,%eax
   8a987:	c9                   	leave  
   8a988:	c3                   	ret    

0008a989 <taskmm_allocHeapPages>:
   8a989:	f3 0f 1e fb          	endbr32 
   8a98d:	55                   	push   %ebp
   8a98e:	89 e5                	mov    %esp,%ebp
   8a990:	83 ec 18             	sub    $0x18,%esp
   8a993:	c7 45 f4 00 00 00 00 	movl   $0x0,-0xc(%ebp)
   8a99a:	eb 39                	jmp    8a9d5 <taskmm_allocHeapPages+0x4c>
   8a99c:	a1 a0 be 0a 00       	mov    0xabea0,%eax
   8a9a1:	8b 50 2c             	mov    0x2c(%eax),%edx
   8a9a4:	a1 a0 be 0a 00       	mov    0xabea0,%eax
   8a9a9:	8b 40 04             	mov    0x4(%eax),%eax
   8a9ac:	83 ec 04             	sub    $0x4,%esp
   8a9af:	6a 07                	push   $0x7
   8a9b1:	52                   	push   %edx
   8a9b2:	50                   	push   %eax
   8a9b3:	e8 ae 98 ff ff       	call   84266 <vmem_allocPage>
   8a9b8:	83 c4 10             	add    $0x10,%esp
   8a9bb:	a1 a0 be 0a 00       	mov    0xabea0,%eax
   8a9c0:	8b 50 2c             	mov    0x2c(%eax),%edx
   8a9c3:	a1 a0 be 0a 00       	mov    0xabea0,%eax
   8a9c8:	81 c2 00 10 00 00    	add    $0x1000,%edx
   8a9ce:	89 50 2c             	mov    %edx,0x2c(%eax)
   8a9d1:	83 45 f4 01          	addl   $0x1,-0xc(%ebp)
   8a9d5:	8b 45 f4             	mov    -0xc(%ebp),%eax
   8a9d8:	39 45 08             	cmp    %eax,0x8(%ebp)
   8a9db:	77 bf                	ja     8a99c <taskmm_allocHeapPages+0x13>
   8a9dd:	90                   	nop
   8a9de:	c9                   	leave  
   8a9df:	c3                   	ret    

0008a9e0 <taskmm_freeHeapPages>:
   8a9e0:	f3 0f 1e fb          	endbr32 
   8a9e4:	55                   	push   %ebp
   8a9e5:	89 e5                	mov    %esp,%ebp
   8a9e7:	83 ec 18             	sub    $0x18,%esp
   8a9ea:	c7 45 f4 00 00 00 00 	movl   $0x0,-0xc(%ebp)
   8a9f1:	eb 37                	jmp    8aa2a <taskmm_freeHeapPages+0x4a>
   8a9f3:	a1 a0 be 0a 00       	mov    0xabea0,%eax
   8a9f8:	8b 50 2c             	mov    0x2c(%eax),%edx
   8a9fb:	a1 a0 be 0a 00       	mov    0xabea0,%eax
   8aa00:	81 ea 00 10 00 00    	sub    $0x1000,%edx
   8aa06:	89 50 2c             	mov    %edx,0x2c(%eax)
   8aa09:	a1 a0 be 0a 00       	mov    0xabea0,%eax
   8aa0e:	8b 50 2c             	mov    0x2c(%eax),%edx
   8aa11:	a1 a0 be 0a 00       	mov    0xabea0,%eax
   8aa16:	8b 40 04             	mov    0x4(%eax),%eax
   8aa19:	83 ec 08             	sub    $0x8,%esp
   8aa1c:	52                   	push   %edx
   8aa1d:	50                   	push   %eax
   8aa1e:	e8 7d 96 ff ff       	call   840a0 <vmem_freePage>
   8aa23:	83 c4 10             	add    $0x10,%esp
   8aa26:	83 45 f4 01          	addl   $0x1,-0xc(%ebp)
   8aa2a:	8b 45 f4             	mov    -0xc(%ebp),%eax
   8aa2d:	39 45 08             	cmp    %eax,0x8(%ebp)
   8aa30:	77 c1                	ja     8a9f3 <taskmm_freeHeapPages+0x13>
   8aa32:	90                   	nop
   8aa33:	c9                   	leave  
   8aa34:	c3                   	ret    

0008aa35 <taskmm_collect>:
   8aa35:	f3 0f 1e fb          	endbr32 
   8aa39:	55                   	push   %ebp
   8aa3a:	89 e5                	mov    %esp,%ebp
   8aa3c:	83 ec 28             	sub    $0x28,%esp
   8aa3f:	a1 a0 be 0a 00       	mov    0xabea0,%eax
   8aa44:	8b 40 28             	mov    0x28(%eax),%eax
   8aa47:	89 45 f4             	mov    %eax,-0xc(%ebp)
   8aa4a:	c7 45 f0 00 00 00 00 	movl   $0x0,-0x10(%ebp)
   8aa51:	eb 27                	jmp    8aa7a <taskmm_collect+0x45>
   8aa53:	8b 45 f0             	mov    -0x10(%ebp),%eax
   8aa56:	50                   	push   %eax
   8aa57:	e8 c6 fe ff ff       	call   8a922 <taskmm_getEntryFromIndex>
   8aa5c:	83 c4 04             	add    $0x4,%esp
   8aa5f:	89 45 e4             	mov    %eax,-0x1c(%ebp)
   8aa62:	8b 45 e4             	mov    -0x1c(%ebp),%eax
   8aa65:	8b 40 04             	mov    0x4(%eax),%eax
   8aa68:	39 45 f4             	cmp    %eax,-0xc(%ebp)
   8aa6b:	73 09                	jae    8aa76 <taskmm_collect+0x41>
   8aa6d:	8b 45 e4             	mov    -0x1c(%ebp),%eax
   8aa70:	8b 40 04             	mov    0x4(%eax),%eax
   8aa73:	89 45 f4             	mov    %eax,-0xc(%ebp)
   8aa76:	83 45 f0 01          	addl   $0x1,-0x10(%ebp)
   8aa7a:	a1 a0 be 0a 00       	mov    0xabea0,%eax
   8aa7f:	8b 50 14             	mov    0x14(%eax),%edx
   8aa82:	8b 45 f0             	mov    -0x10(%ebp),%eax
   8aa85:	39 c2                	cmp    %eax,%edx
   8aa87:	77 ca                	ja     8aa53 <taskmm_collect+0x1e>
   8aa89:	a1 a0 be 0a 00       	mov    0xabea0,%eax
   8aa8e:	8b 40 28             	mov    0x28(%eax),%eax
   8aa91:	8b 55 f4             	mov    -0xc(%ebp),%edx
   8aa94:	29 c2                	sub    %eax,%edx
   8aa96:	89 d0                	mov    %edx,%eax
   8aa98:	83 e8 01             	sub    $0x1,%eax
   8aa9b:	c1 e8 0c             	shr    $0xc,%eax
   8aa9e:	89 45 ec             	mov    %eax,-0x14(%ebp)
   8aaa1:	a1 a0 be 0a 00       	mov    0xabea0,%eax
   8aaa6:	8b 50 2c             	mov    0x2c(%eax),%edx
   8aaa9:	a1 a0 be 0a 00       	mov    0xabea0,%eax
   8aaae:	8b 40 28             	mov    0x28(%eax),%eax
   8aab1:	29 c2                	sub    %eax,%edx
   8aab3:	89 d0                	mov    %edx,%eax
   8aab5:	83 e8 01             	sub    $0x1,%eax
   8aab8:	c1 e8 0c             	shr    $0xc,%eax
   8aabb:	89 45 e8             	mov    %eax,-0x18(%ebp)
   8aabe:	8b 45 ec             	mov    -0x14(%ebp),%eax
   8aac1:	3b 45 e8             	cmp    -0x18(%ebp),%eax
   8aac4:	7d 12                	jge    8aad8 <taskmm_collect+0xa3>
   8aac6:	8b 45 e8             	mov    -0x18(%ebp),%eax
   8aac9:	2b 45 ec             	sub    -0x14(%ebp),%eax
   8aacc:	83 ec 0c             	sub    $0xc,%esp
   8aacf:	50                   	push   %eax
   8aad0:	e8 0b ff ff ff       	call   8a9e0 <taskmm_freeHeapPages>
   8aad5:	83 c4 10             	add    $0x10,%esp
   8aad8:	90                   	nop
   8aad9:	c9                   	leave  
   8aada:	c3                   	ret    

0008aadb <task_realloc>:
   8aadb:	f3 0f 1e fb          	endbr32 
   8aadf:	55                   	push   %ebp
   8aae0:	89 e5                	mov    %esp,%ebp
   8aae2:	83 ec 28             	sub    $0x28,%esp
   8aae5:	8b 45 08             	mov    0x8(%ebp),%eax
   8aae8:	83 ec 0c             	sub    $0xc,%esp
   8aaeb:	50                   	push   %eax
   8aaec:	e8 5d fd ff ff       	call   8a84e <taskmm_getEntryIndex>
   8aaf1:	83 c4 10             	add    $0x10,%esp
   8aaf4:	89 45 f4             	mov    %eax,-0xc(%ebp)
   8aaf7:	83 7d f4 ff          	cmpl   $0xffffffff,-0xc(%ebp)
   8aafb:	75 13                	jne    8ab10 <task_realloc+0x35>
   8aafd:	83 ec 0c             	sub    $0xc,%esp
   8ab00:	ff 75 0c             	pushl  0xc(%ebp)
   8ab03:	e8 91 01 00 00       	call   8ac99 <task_malloc>
   8ab08:	83 c4 10             	add    $0x10,%esp
   8ab0b:	e9 87 01 00 00       	jmp    8ac97 <task_realloc+0x1bc>
   8ab10:	8b 45 f4             	mov    -0xc(%ebp),%eax
   8ab13:	83 ec 0c             	sub    $0xc,%esp
   8ab16:	50                   	push   %eax
   8ab17:	e8 06 fe ff ff       	call   8a922 <taskmm_getEntryFromIndex>
   8ab1c:	83 c4 10             	add    $0x10,%esp
   8ab1f:	89 45 f0             	mov    %eax,-0x10(%ebp)
   8ab22:	8b 45 f4             	mov    -0xc(%ebp),%eax
   8ab25:	83 c0 01             	add    $0x1,%eax
   8ab28:	89 c2                	mov    %eax,%edx
   8ab2a:	a1 a0 be 0a 00       	mov    0xabea0,%eax
   8ab2f:	8b 40 14             	mov    0x14(%eax),%eax
   8ab32:	39 c2                	cmp    %eax,%edx
   8ab34:	0f 82 ad 00 00 00    	jb     8abe7 <task_realloc+0x10c>
   8ab3a:	a1 a0 be 0a 00       	mov    0xabea0,%eax
   8ab3f:	8b 50 2c             	mov    0x2c(%eax),%edx
   8ab42:	8b 45 f0             	mov    -0x10(%ebp),%eax
   8ab45:	8b 00                	mov    (%eax),%eax
   8ab47:	29 c2                	sub    %eax,%edx
   8ab49:	89 d0                	mov    %edx,%eax
   8ab4b:	39 45 0c             	cmp    %eax,0xc(%ebp)
   8ab4e:	77 18                	ja     8ab68 <task_realloc+0x8d>
   8ab50:	8b 45 f0             	mov    -0x10(%ebp),%eax
   8ab53:	8b 10                	mov    (%eax),%edx
   8ab55:	8b 45 0c             	mov    0xc(%ebp),%eax
   8ab58:	01 c2                	add    %eax,%edx
   8ab5a:	8b 45 f0             	mov    -0x10(%ebp),%eax
   8ab5d:	89 50 04             	mov    %edx,0x4(%eax)
   8ab60:	8b 45 08             	mov    0x8(%ebp),%eax
   8ab63:	e9 2f 01 00 00       	jmp    8ac97 <task_realloc+0x1bc>
   8ab68:	8b 45 f0             	mov    -0x10(%ebp),%eax
   8ab6b:	8b 10                	mov    (%eax),%edx
   8ab6d:	8b 45 0c             	mov    0xc(%ebp),%eax
   8ab70:	01 c2                	add    %eax,%edx
   8ab72:	a1 a0 be 0a 00       	mov    0xabea0,%eax
   8ab77:	8b 40 2c             	mov    0x2c(%eax),%eax
   8ab7a:	29 c2                	sub    %eax,%edx
   8ab7c:	89 d0                	mov    %edx,%eax
   8ab7e:	89 45 dc             	mov    %eax,-0x24(%ebp)
   8ab81:	a1 a0 be 0a 00       	mov    0xabea0,%eax
   8ab86:	8b 50 2c             	mov    0x2c(%eax),%edx
   8ab89:	8b 45 f0             	mov    -0x10(%ebp),%eax
   8ab8c:	8b 00                	mov    (%eax),%eax
   8ab8e:	29 c2                	sub    %eax,%edx
   8ab90:	89 d0                	mov    %edx,%eax
   8ab92:	89 45 d8             	mov    %eax,-0x28(%ebp)
   8ab95:	83 7d dc 00          	cmpl   $0x0,-0x24(%ebp)
   8ab99:	74 36                	je     8abd1 <task_realloc+0xf6>
   8ab9b:	8b 45 dc             	mov    -0x24(%ebp),%eax
   8ab9e:	c1 e8 0c             	shr    $0xc,%eax
   8aba1:	89 c2                	mov    %eax,%edx
   8aba3:	8b 45 dc             	mov    -0x24(%ebp),%eax
   8aba6:	25 ff 0f 00 00       	and    $0xfff,%eax
   8abab:	85 c0                	test   %eax,%eax
   8abad:	0f 95 c0             	setne  %al
   8abb0:	0f b6 c0             	movzbl %al,%eax
   8abb3:	01 d0                	add    %edx,%eax
   8abb5:	83 ec 0c             	sub    $0xc,%esp
   8abb8:	50                   	push   %eax
   8abb9:	e8 cb fd ff ff       	call   8a989 <taskmm_allocHeapPages>
   8abbe:	83 c4 10             	add    $0x10,%esp
   8abc1:	8b 45 f0             	mov    -0x10(%ebp),%eax
   8abc4:	8b 10                	mov    (%eax),%edx
   8abc6:	8b 45 0c             	mov    0xc(%ebp),%eax
   8abc9:	01 c2                	add    %eax,%edx
   8abcb:	8b 45 f0             	mov    -0x10(%ebp),%eax
   8abce:	89 50 04             	mov    %edx,0x4(%eax)
   8abd1:	8b 45 d8             	mov    -0x28(%ebp),%eax
   8abd4:	3b 45 0c             	cmp    0xc(%ebp),%eax
   8abd7:	0f 86 ba 00 00 00    	jbe    8ac97 <task_realloc+0x1bc>
   8abdd:	e8 53 fe ff ff       	call   8aa35 <taskmm_collect>
   8abe2:	e9 b0 00 00 00       	jmp    8ac97 <task_realloc+0x1bc>
   8abe7:	8b 45 f4             	mov    -0xc(%ebp),%eax
   8abea:	83 c0 01             	add    $0x1,%eax
   8abed:	83 ec 0c             	sub    $0xc,%esp
   8abf0:	50                   	push   %eax
   8abf1:	e8 2c fd ff ff       	call   8a922 <taskmm_getEntryFromIndex>
   8abf6:	83 c4 10             	add    $0x10,%esp
   8abf9:	89 45 ec             	mov    %eax,-0x14(%ebp)
   8abfc:	8b 45 ec             	mov    -0x14(%ebp),%eax
   8abff:	8b 10                	mov    (%eax),%edx
   8ac01:	8b 45 f0             	mov    -0x10(%ebp),%eax
   8ac04:	8b 00                	mov    (%eax),%eax
   8ac06:	29 c2                	sub    %eax,%edx
   8ac08:	89 d0                	mov    %edx,%eax
   8ac0a:	39 45 0c             	cmp    %eax,0xc(%ebp)
   8ac0d:	77 15                	ja     8ac24 <task_realloc+0x149>
   8ac0f:	8b 45 f0             	mov    -0x10(%ebp),%eax
   8ac12:	8b 10                	mov    (%eax),%edx
   8ac14:	8b 45 0c             	mov    0xc(%ebp),%eax
   8ac17:	01 c2                	add    %eax,%edx
   8ac19:	8b 45 f0             	mov    -0x10(%ebp),%eax
   8ac1c:	89 50 04             	mov    %edx,0x4(%eax)
   8ac1f:	8b 45 08             	mov    0x8(%ebp),%eax
   8ac22:	eb 73                	jmp    8ac97 <task_realloc+0x1bc>
   8ac24:	8b 45 f0             	mov    -0x10(%ebp),%eax
   8ac27:	8b 00                	mov    (%eax),%eax
   8ac29:	89 45 e8             	mov    %eax,-0x18(%ebp)
   8ac2c:	8b 45 f0             	mov    -0x10(%ebp),%eax
   8ac2f:	8b 50 04             	mov    0x4(%eax),%edx
   8ac32:	8b 45 e8             	mov    -0x18(%ebp),%eax
   8ac35:	29 c2                	sub    %eax,%edx
   8ac37:	89 d0                	mov    %edx,%eax
   8ac39:	89 45 e4             	mov    %eax,-0x1c(%ebp)
   8ac3c:	8b 45 e8             	mov    -0x18(%ebp),%eax
   8ac3f:	83 ec 0c             	sub    $0xc,%esp
   8ac42:	50                   	push   %eax
   8ac43:	e8 92 fc ff ff       	call   8a8da <taskmm_removeEntry>
   8ac48:	83 c4 10             	add    $0x10,%esp
   8ac4b:	83 ec 0c             	sub    $0xc,%esp
   8ac4e:	ff 75 0c             	pushl  0xc(%ebp)
   8ac51:	e8 43 00 00 00       	call   8ac99 <task_malloc>
   8ac56:	83 c4 10             	add    $0x10,%esp
   8ac59:	89 45 e0             	mov    %eax,-0x20(%ebp)
   8ac5c:	83 7d e0 00          	cmpl   $0x0,-0x20(%ebp)
   8ac60:	74 16                	je     8ac78 <task_realloc+0x19d>
   8ac62:	83 ec 04             	sub    $0x4,%esp
   8ac65:	ff 75 0c             	pushl  0xc(%ebp)
   8ac68:	ff 75 e8             	pushl  -0x18(%ebp)
   8ac6b:	ff 75 e0             	pushl  -0x20(%ebp)
   8ac6e:	e8 cc 84 ff ff       	call   8313f <memcpy>
   8ac73:	83 c4 10             	add    $0x10,%esp
   8ac76:	eb 1f                	jmp    8ac97 <task_realloc+0x1bc>
   8ac78:	8b 55 e8             	mov    -0x18(%ebp),%edx
   8ac7b:	8b 45 e4             	mov    -0x1c(%ebp),%eax
   8ac7e:	01 c2                	add    %eax,%edx
   8ac80:	8b 45 e8             	mov    -0x18(%ebp),%eax
   8ac83:	83 ec 08             	sub    $0x8,%esp
   8ac86:	52                   	push   %edx
   8ac87:	50                   	push   %eax
   8ac88:	e8 48 fb ff ff       	call   8a7d5 <taskmm_addEntry>
   8ac8d:	83 c4 10             	add    $0x10,%esp
   8ac90:	b8 00 00 00 00       	mov    $0x0,%eax
   8ac95:	eb 00                	jmp    8ac97 <task_realloc+0x1bc>
   8ac97:	c9                   	leave  
   8ac98:	c3                   	ret    

0008ac99 <task_malloc>:
   8ac99:	f3 0f 1e fb          	endbr32 
   8ac9d:	55                   	push   %ebp
   8ac9e:	89 e5                	mov    %esp,%ebp
   8aca0:	83 ec 18             	sub    $0x18,%esp
   8aca3:	a1 a0 be 0a 00       	mov    0xabea0,%eax
   8aca8:	8b 40 28             	mov    0x28(%eax),%eax
   8acab:	89 45 f4             	mov    %eax,-0xc(%ebp)
   8acae:	c7 45 f0 00 00 00 00 	movl   $0x0,-0x10(%ebp)
   8acb5:	eb 56                	jmp    8ad0d <task_malloc+0x74>
   8acb7:	8b 45 f0             	mov    -0x10(%ebp),%eax
   8acba:	50                   	push   %eax
   8acbb:	e8 62 fc ff ff       	call   8a922 <taskmm_getEntryFromIndex>
   8acc0:	83 c4 04             	add    $0x4,%esp
   8acc3:	89 45 e8             	mov    %eax,-0x18(%ebp)
   8acc6:	8b 45 e8             	mov    -0x18(%ebp),%eax
   8acc9:	8b 00                	mov    (%eax),%eax
   8accb:	2b 45 f4             	sub    -0xc(%ebp),%eax
   8acce:	39 45 08             	cmp    %eax,0x8(%ebp)
   8acd1:	77 2d                	ja     8ad00 <task_malloc+0x67>
   8acd3:	8b 55 f4             	mov    -0xc(%ebp),%edx
   8acd6:	8b 45 08             	mov    0x8(%ebp),%eax
   8acd9:	01 d0                	add    %edx,%eax
   8acdb:	83 ec 08             	sub    $0x8,%esp
   8acde:	50                   	push   %eax
   8acdf:	ff 75 f4             	pushl  -0xc(%ebp)
   8ace2:	e8 ee fa ff ff       	call   8a7d5 <taskmm_addEntry>
   8ace7:	83 c4 10             	add    $0x10,%esp
   8acea:	84 c0                	test   %al,%al
   8acec:	75 0a                	jne    8acf8 <task_malloc+0x5f>
   8acee:	b8 00 00 00 00       	mov    $0x0,%eax
   8acf3:	e9 c5 00 00 00       	jmp    8adbd <task_malloc+0x124>
   8acf8:	8b 45 f4             	mov    -0xc(%ebp),%eax
   8acfb:	e9 bd 00 00 00       	jmp    8adbd <task_malloc+0x124>
   8ad00:	8b 45 e8             	mov    -0x18(%ebp),%eax
   8ad03:	8b 40 04             	mov    0x4(%eax),%eax
   8ad06:	89 45 f4             	mov    %eax,-0xc(%ebp)
   8ad09:	83 45 f0 01          	addl   $0x1,-0x10(%ebp)
   8ad0d:	a1 a0 be 0a 00       	mov    0xabea0,%eax
   8ad12:	8b 50 14             	mov    0x14(%eax),%edx
   8ad15:	8b 45 f0             	mov    -0x10(%ebp),%eax
   8ad18:	39 c2                	cmp    %eax,%edx
   8ad1a:	77 9b                	ja     8acb7 <task_malloc+0x1e>
   8ad1c:	a1 a0 be 0a 00       	mov    0xabea0,%eax
   8ad21:	8b 40 2c             	mov    0x2c(%eax),%eax
   8ad24:	2b 45 f4             	sub    -0xc(%ebp),%eax
   8ad27:	39 45 08             	cmp    %eax,0x8(%ebp)
   8ad2a:	77 27                	ja     8ad53 <task_malloc+0xba>
   8ad2c:	8b 55 f4             	mov    -0xc(%ebp),%edx
   8ad2f:	8b 45 08             	mov    0x8(%ebp),%eax
   8ad32:	01 d0                	add    %edx,%eax
   8ad34:	83 ec 08             	sub    $0x8,%esp
   8ad37:	50                   	push   %eax
   8ad38:	ff 75 f4             	pushl  -0xc(%ebp)
   8ad3b:	e8 95 fa ff ff       	call   8a7d5 <taskmm_addEntry>
   8ad40:	83 c4 10             	add    $0x10,%esp
   8ad43:	84 c0                	test   %al,%al
   8ad45:	75 07                	jne    8ad4e <task_malloc+0xb5>
   8ad47:	b8 00 00 00 00       	mov    $0x0,%eax
   8ad4c:	eb 6f                	jmp    8adbd <task_malloc+0x124>
   8ad4e:	8b 45 f4             	mov    -0xc(%ebp),%eax
   8ad51:	eb 6a                	jmp    8adbd <task_malloc+0x124>
   8ad53:	8b 55 f4             	mov    -0xc(%ebp),%edx
   8ad56:	8b 45 08             	mov    0x8(%ebp),%eax
   8ad59:	01 c2                	add    %eax,%edx
   8ad5b:	a1 a0 be 0a 00       	mov    0xabea0,%eax
   8ad60:	8b 40 2c             	mov    0x2c(%eax),%eax
   8ad63:	29 c2                	sub    %eax,%edx
   8ad65:	89 d0                	mov    %edx,%eax
   8ad67:	89 45 ec             	mov    %eax,-0x14(%ebp)
   8ad6a:	83 7d ec 00          	cmpl   $0x0,-0x14(%ebp)
   8ad6e:	74 4d                	je     8adbd <task_malloc+0x124>
   8ad70:	8b 45 ec             	mov    -0x14(%ebp),%eax
   8ad73:	c1 e8 0c             	shr    $0xc,%eax
   8ad76:	89 c2                	mov    %eax,%edx
   8ad78:	8b 45 ec             	mov    -0x14(%ebp),%eax
   8ad7b:	25 ff 0f 00 00       	and    $0xfff,%eax
   8ad80:	85 c0                	test   %eax,%eax
   8ad82:	0f 95 c0             	setne  %al
   8ad85:	0f b6 c0             	movzbl %al,%eax
   8ad88:	01 d0                	add    %edx,%eax
   8ad8a:	83 ec 0c             	sub    $0xc,%esp
   8ad8d:	50                   	push   %eax
   8ad8e:	e8 f6 fb ff ff       	call   8a989 <taskmm_allocHeapPages>
   8ad93:	83 c4 10             	add    $0x10,%esp
   8ad96:	8b 55 f4             	mov    -0xc(%ebp),%edx
   8ad99:	8b 45 08             	mov    0x8(%ebp),%eax
   8ad9c:	01 d0                	add    %edx,%eax
   8ad9e:	83 ec 08             	sub    $0x8,%esp
   8ada1:	50                   	push   %eax
   8ada2:	ff 75 f4             	pushl  -0xc(%ebp)
   8ada5:	e8 2b fa ff ff       	call   8a7d5 <taskmm_addEntry>
   8adaa:	83 c4 10             	add    $0x10,%esp
   8adad:	84 c0                	test   %al,%al
   8adaf:	75 07                	jne    8adb8 <task_malloc+0x11f>
   8adb1:	b8 00 00 00 00       	mov    $0x0,%eax
   8adb6:	eb 05                	jmp    8adbd <task_malloc+0x124>
   8adb8:	8b 45 f4             	mov    -0xc(%ebp),%eax
   8adbb:	eb 00                	jmp    8adbd <task_malloc+0x124>
   8adbd:	c9                   	leave  
   8adbe:	c3                   	ret    

0008adbf <task_free>:
   8adbf:	f3 0f 1e fb          	endbr32 
   8adc3:	55                   	push   %ebp
   8adc4:	89 e5                	mov    %esp,%ebp
   8adc6:	83 ec 08             	sub    $0x8,%esp
   8adc9:	8b 45 08             	mov    0x8(%ebp),%eax
   8adcc:	83 ec 0c             	sub    $0xc,%esp
   8adcf:	50                   	push   %eax
   8add0:	e8 05 fb ff ff       	call   8a8da <taskmm_removeEntry>
   8add5:	83 c4 10             	add    $0x10,%esp
   8add8:	e8 58 fc ff ff       	call   8aa35 <taskmm_collect>
   8addd:	90                   	nop
   8adde:	c9                   	leave  
   8addf:	c3                   	ret    

0008ade0 <task_exception>:
   8ade0:	f3 0f 1e fb          	endbr32 
   8ade4:	55                   	push   %ebp
   8ade5:	89 e5                	mov    %esp,%ebp
   8ade7:	83 ec 08             	sub    $0x8,%esp
   8adea:	83 ec 08             	sub    $0x8,%esp
   8aded:	6a 02                	push   $0x2
   8adef:	6a 00                	push   $0x0
   8adf1:	e8 fd bc ff ff       	call   86af3 <vga_setCursor>
   8adf6:	83 c4 10             	add    $0x10,%esp
   8adf9:	83 ec 0c             	sub    $0xc,%esp
   8adfc:	68 30 2e 08 00       	push   $0x82e30
   8ae01:	e8 c4 b7 ff ff       	call   865ca <vga_writeText>
   8ae06:	83 c4 10             	add    $0x10,%esp
   8ae09:	90                   	nop
   8ae0a:	c9                   	leave  
   8ae0b:	c3                   	ret    
